
RS41Cam.elf:     file format elf32-littlearm

Sections:
Idx Name          Size      VMA       LMA       File off  Algn
  0 .isr_vector   000001d0  08000000  08000000  00010000  2**0
                  CONTENTS, ALLOC, LOAD, READONLY, DATA
  1 .text         000084b4  080001d0  080001d0  000101d0  2**3
                  CONTENTS, ALLOC, LOAD, READONLY, CODE
  2 .rodata       000000b4  08008684  08008684  00018684  2**2
                  CONTENTS, ALLOC, LOAD, READONLY, DATA
  3 .ARM.extab    00000000  08008738  08008738  00020040  2**0
                  CONTENTS
  4 .ARM          00000008  08008738  08008738  00018738  2**2
                  CONTENTS, ALLOC, LOAD, READONLY, DATA
  5 .preinit_array 00000000  08008740  08008740  00020040  2**0
                  CONTENTS, ALLOC, LOAD, DATA
  6 .init_array   00000004  08008740  08008740  00018740  2**2
                  CONTENTS, ALLOC, LOAD, DATA
  7 .fini_array   00000004  08008744  08008744  00018744  2**2
                  CONTENTS, ALLOC, LOAD, DATA
  8 .data         00000040  20000000  08008748  00020000  2**2
                  CONTENTS, ALLOC, LOAD, DATA
  9 .bss          00000558  20000040  08008788  00020040  2**2
                  ALLOC
 10 ._user_heap_stack 00000600  20000598  08008788  00020598  2**0
                  ALLOC
 11 .ARM.attributes 00000029  00000000  00000000  00020040  2**0
                  CONTENTS, READONLY
 12 .debug_info   0001ecd6  00000000  00000000  00020069  2**0
                  CONTENTS, READONLY, DEBUGGING, OCTETS
 13 .debug_abbrev 00004634  00000000  00000000  0003ed3f  2**0
                  CONTENTS, READONLY, DEBUGGING, OCTETS
 14 .debug_aranges 00001328  00000000  00000000  00043378  2**3
                  CONTENTS, READONLY, DEBUGGING, OCTETS
 15 .debug_ranges 00001140  00000000  00000000  000446a0  2**3
                  CONTENTS, READONLY, DEBUGGING, OCTETS
 16 .debug_macro  000163d8  00000000  00000000  000457e0  2**0
                  CONTENTS, READONLY, DEBUGGING, OCTETS
 17 .debug_line   00019aaf  00000000  00000000  0005bbb8  2**0
                  CONTENTS, READONLY, DEBUGGING, OCTETS
 18 .debug_str    00074141  00000000  00000000  00075667  2**0
                  CONTENTS, READONLY, DEBUGGING, OCTETS
 19 .comment      00000053  00000000  00000000  000e97a8  2**0
                  CONTENTS, READONLY
 20 .debug_frame  00004f78  00000000  00000000  000e97fc  2**2
                  CONTENTS, READONLY, DEBUGGING, OCTETS

Disassembly of section .text:

080001d0 <__do_global_dtors_aux>:
 80001d0:	b510      	push	{r4, lr}
 80001d2:	4c05      	ldr	r4, [pc, #20]	; (80001e8 <__do_global_dtors_aux+0x18>)
 80001d4:	7823      	ldrb	r3, [r4, #0]
 80001d6:	b933      	cbnz	r3, 80001e6 <__do_global_dtors_aux+0x16>
 80001d8:	4b04      	ldr	r3, [pc, #16]	; (80001ec <__do_global_dtors_aux+0x1c>)
 80001da:	b113      	cbz	r3, 80001e2 <__do_global_dtors_aux+0x12>
 80001dc:	4804      	ldr	r0, [pc, #16]	; (80001f0 <__do_global_dtors_aux+0x20>)
 80001de:	f3af 8000 	nop.w
 80001e2:	2301      	movs	r3, #1
 80001e4:	7023      	strb	r3, [r4, #0]
 80001e6:	bd10      	pop	{r4, pc}
 80001e8:	20000040 	.word	0x20000040
 80001ec:	00000000 	.word	0x00000000
 80001f0:	0800866c 	.word	0x0800866c

080001f4 <frame_dummy>:
 80001f4:	b508      	push	{r3, lr}
 80001f6:	4b03      	ldr	r3, [pc, #12]	; (8000204 <frame_dummy+0x10>)
 80001f8:	b11b      	cbz	r3, 8000202 <frame_dummy+0xe>
 80001fa:	4903      	ldr	r1, [pc, #12]	; (8000208 <frame_dummy+0x14>)
 80001fc:	4803      	ldr	r0, [pc, #12]	; (800020c <frame_dummy+0x18>)
 80001fe:	f3af 8000 	nop.w
 8000202:	bd08      	pop	{r3, pc}
 8000204:	00000000 	.word	0x00000000
 8000208:	20000044 	.word	0x20000044
 800020c:	0800866c 	.word	0x0800866c

08000210 <strlen>:
 8000210:	4603      	mov	r3, r0
 8000212:	f813 2b01 	ldrb.w	r2, [r3], #1
 8000216:	2a00      	cmp	r2, #0
 8000218:	d1fb      	bne.n	8000212 <strlen+0x2>
 800021a:	1a18      	subs	r0, r3, r0
 800021c:	3801      	subs	r0, #1
 800021e:	4770      	bx	lr

08000220 <__aeabi_drsub>:
 8000220:	f081 4100 	eor.w	r1, r1, #2147483648	; 0x80000000
 8000224:	e002      	b.n	800022c <__adddf3>
 8000226:	bf00      	nop

08000228 <__aeabi_dsub>:
 8000228:	f083 4300 	eor.w	r3, r3, #2147483648	; 0x80000000

0800022c <__adddf3>:
 800022c:	b530      	push	{r4, r5, lr}
 800022e:	ea4f 0441 	mov.w	r4, r1, lsl #1
 8000232:	ea4f 0543 	mov.w	r5, r3, lsl #1
 8000236:	ea94 0f05 	teq	r4, r5
 800023a:	bf08      	it	eq
 800023c:	ea90 0f02 	teqeq	r0, r2
 8000240:	bf1f      	itttt	ne
 8000242:	ea54 0c00 	orrsne.w	ip, r4, r0
 8000246:	ea55 0c02 	orrsne.w	ip, r5, r2
 800024a:	ea7f 5c64 	mvnsne.w	ip, r4, asr #21
 800024e:	ea7f 5c65 	mvnsne.w	ip, r5, asr #21
 8000252:	f000 80e2 	beq.w	800041a <__adddf3+0x1ee>
 8000256:	ea4f 5454 	mov.w	r4, r4, lsr #21
 800025a:	ebd4 5555 	rsbs	r5, r4, r5, lsr #21
 800025e:	bfb8      	it	lt
 8000260:	426d      	neglt	r5, r5
 8000262:	dd0c      	ble.n	800027e <__adddf3+0x52>
 8000264:	442c      	add	r4, r5
 8000266:	ea80 0202 	eor.w	r2, r0, r2
 800026a:	ea81 0303 	eor.w	r3, r1, r3
 800026e:	ea82 0000 	eor.w	r0, r2, r0
 8000272:	ea83 0101 	eor.w	r1, r3, r1
 8000276:	ea80 0202 	eor.w	r2, r0, r2
 800027a:	ea81 0303 	eor.w	r3, r1, r3
 800027e:	2d36      	cmp	r5, #54	; 0x36
 8000280:	bf88      	it	hi
 8000282:	bd30      	pophi	{r4, r5, pc}
 8000284:	f011 4f00 	tst.w	r1, #2147483648	; 0x80000000
 8000288:	ea4f 3101 	mov.w	r1, r1, lsl #12
 800028c:	f44f 1c80 	mov.w	ip, #1048576	; 0x100000
 8000290:	ea4c 3111 	orr.w	r1, ip, r1, lsr #12
 8000294:	d002      	beq.n	800029c <__adddf3+0x70>
 8000296:	4240      	negs	r0, r0
 8000298:	eb61 0141 	sbc.w	r1, r1, r1, lsl #1
 800029c:	f013 4f00 	tst.w	r3, #2147483648	; 0x80000000
 80002a0:	ea4f 3303 	mov.w	r3, r3, lsl #12
 80002a4:	ea4c 3313 	orr.w	r3, ip, r3, lsr #12
 80002a8:	d002      	beq.n	80002b0 <__adddf3+0x84>
 80002aa:	4252      	negs	r2, r2
 80002ac:	eb63 0343 	sbc.w	r3, r3, r3, lsl #1
 80002b0:	ea94 0f05 	teq	r4, r5
 80002b4:	f000 80a7 	beq.w	8000406 <__adddf3+0x1da>
 80002b8:	f1a4 0401 	sub.w	r4, r4, #1
 80002bc:	f1d5 0e20 	rsbs	lr, r5, #32
 80002c0:	db0d      	blt.n	80002de <__adddf3+0xb2>
 80002c2:	fa02 fc0e 	lsl.w	ip, r2, lr
 80002c6:	fa22 f205 	lsr.w	r2, r2, r5
 80002ca:	1880      	adds	r0, r0, r2
 80002cc:	f141 0100 	adc.w	r1, r1, #0
 80002d0:	fa03 f20e 	lsl.w	r2, r3, lr
 80002d4:	1880      	adds	r0, r0, r2
 80002d6:	fa43 f305 	asr.w	r3, r3, r5
 80002da:	4159      	adcs	r1, r3
 80002dc:	e00e      	b.n	80002fc <__adddf3+0xd0>
 80002de:	f1a5 0520 	sub.w	r5, r5, #32
 80002e2:	f10e 0e20 	add.w	lr, lr, #32
 80002e6:	2a01      	cmp	r2, #1
 80002e8:	fa03 fc0e 	lsl.w	ip, r3, lr
 80002ec:	bf28      	it	cs
 80002ee:	f04c 0c02 	orrcs.w	ip, ip, #2
 80002f2:	fa43 f305 	asr.w	r3, r3, r5
 80002f6:	18c0      	adds	r0, r0, r3
 80002f8:	eb51 71e3 	adcs.w	r1, r1, r3, asr #31
 80002fc:	f001 4500 	and.w	r5, r1, #2147483648	; 0x80000000
 8000300:	d507      	bpl.n	8000312 <__adddf3+0xe6>
 8000302:	f04f 0e00 	mov.w	lr, #0
 8000306:	f1dc 0c00 	rsbs	ip, ip, #0
 800030a:	eb7e 0000 	sbcs.w	r0, lr, r0
 800030e:	eb6e 0101 	sbc.w	r1, lr, r1
 8000312:	f5b1 1f80 	cmp.w	r1, #1048576	; 0x100000
 8000316:	d31b      	bcc.n	8000350 <__adddf3+0x124>
 8000318:	f5b1 1f00 	cmp.w	r1, #2097152	; 0x200000
 800031c:	d30c      	bcc.n	8000338 <__adddf3+0x10c>
 800031e:	0849      	lsrs	r1, r1, #1
 8000320:	ea5f 0030 	movs.w	r0, r0, rrx
 8000324:	ea4f 0c3c 	mov.w	ip, ip, rrx
 8000328:	f104 0401 	add.w	r4, r4, #1
 800032c:	ea4f 5244 	mov.w	r2, r4, lsl #21
 8000330:	f512 0f80 	cmn.w	r2, #4194304	; 0x400000
 8000334:	f080 809a 	bcs.w	800046c <__adddf3+0x240>
 8000338:	f1bc 4f00 	cmp.w	ip, #2147483648	; 0x80000000
 800033c:	bf08      	it	eq
 800033e:	ea5f 0c50 	movseq.w	ip, r0, lsr #1
 8000342:	f150 0000 	adcs.w	r0, r0, #0
 8000346:	eb41 5104 	adc.w	r1, r1, r4, lsl #20
 800034a:	ea41 0105 	orr.w	r1, r1, r5
 800034e:	bd30      	pop	{r4, r5, pc}
 8000350:	ea5f 0c4c 	movs.w	ip, ip, lsl #1
 8000354:	4140      	adcs	r0, r0
 8000356:	eb41 0101 	adc.w	r1, r1, r1
 800035a:	3c01      	subs	r4, #1
 800035c:	bf28      	it	cs
 800035e:	f5b1 1f80 	cmpcs.w	r1, #1048576	; 0x100000
 8000362:	d2e9      	bcs.n	8000338 <__adddf3+0x10c>
 8000364:	f091 0f00 	teq	r1, #0
 8000368:	bf04      	itt	eq
 800036a:	4601      	moveq	r1, r0
 800036c:	2000      	moveq	r0, #0
 800036e:	fab1 f381 	clz	r3, r1
 8000372:	bf08      	it	eq
 8000374:	3320      	addeq	r3, #32
 8000376:	f1a3 030b 	sub.w	r3, r3, #11
 800037a:	f1b3 0220 	subs.w	r2, r3, #32
 800037e:	da0c      	bge.n	800039a <__adddf3+0x16e>
 8000380:	320c      	adds	r2, #12
 8000382:	dd08      	ble.n	8000396 <__adddf3+0x16a>
 8000384:	f102 0c14 	add.w	ip, r2, #20
 8000388:	f1c2 020c 	rsb	r2, r2, #12
 800038c:	fa01 f00c 	lsl.w	r0, r1, ip
 8000390:	fa21 f102 	lsr.w	r1, r1, r2
 8000394:	e00c      	b.n	80003b0 <__adddf3+0x184>
 8000396:	f102 0214 	add.w	r2, r2, #20
 800039a:	bfd8      	it	le
 800039c:	f1c2 0c20 	rsble	ip, r2, #32
 80003a0:	fa01 f102 	lsl.w	r1, r1, r2
 80003a4:	fa20 fc0c 	lsr.w	ip, r0, ip
 80003a8:	bfdc      	itt	le
 80003aa:	ea41 010c 	orrle.w	r1, r1, ip
 80003ae:	4090      	lslle	r0, r2
 80003b0:	1ae4      	subs	r4, r4, r3
 80003b2:	bfa2      	ittt	ge
 80003b4:	eb01 5104 	addge.w	r1, r1, r4, lsl #20
 80003b8:	4329      	orrge	r1, r5
 80003ba:	bd30      	popge	{r4, r5, pc}
 80003bc:	ea6f 0404 	mvn.w	r4, r4
 80003c0:	3c1f      	subs	r4, #31
 80003c2:	da1c      	bge.n	80003fe <__adddf3+0x1d2>
 80003c4:	340c      	adds	r4, #12
 80003c6:	dc0e      	bgt.n	80003e6 <__adddf3+0x1ba>
 80003c8:	f104 0414 	add.w	r4, r4, #20
 80003cc:	f1c4 0220 	rsb	r2, r4, #32
 80003d0:	fa20 f004 	lsr.w	r0, r0, r4
 80003d4:	fa01 f302 	lsl.w	r3, r1, r2
 80003d8:	ea40 0003 	orr.w	r0, r0, r3
 80003dc:	fa21 f304 	lsr.w	r3, r1, r4
 80003e0:	ea45 0103 	orr.w	r1, r5, r3
 80003e4:	bd30      	pop	{r4, r5, pc}
 80003e6:	f1c4 040c 	rsb	r4, r4, #12
 80003ea:	f1c4 0220 	rsb	r2, r4, #32
 80003ee:	fa20 f002 	lsr.w	r0, r0, r2
 80003f2:	fa01 f304 	lsl.w	r3, r1, r4
 80003f6:	ea40 0003 	orr.w	r0, r0, r3
 80003fa:	4629      	mov	r1, r5
 80003fc:	bd30      	pop	{r4, r5, pc}
 80003fe:	fa21 f004 	lsr.w	r0, r1, r4
 8000402:	4629      	mov	r1, r5
 8000404:	bd30      	pop	{r4, r5, pc}
 8000406:	f094 0f00 	teq	r4, #0
 800040a:	f483 1380 	eor.w	r3, r3, #1048576	; 0x100000
 800040e:	bf06      	itte	eq
 8000410:	f481 1180 	eoreq.w	r1, r1, #1048576	; 0x100000
 8000414:	3401      	addeq	r4, #1
 8000416:	3d01      	subne	r5, #1
 8000418:	e74e      	b.n	80002b8 <__adddf3+0x8c>
 800041a:	ea7f 5c64 	mvns.w	ip, r4, asr #21
 800041e:	bf18      	it	ne
 8000420:	ea7f 5c65 	mvnsne.w	ip, r5, asr #21
 8000424:	d029      	beq.n	800047a <__adddf3+0x24e>
 8000426:	ea94 0f05 	teq	r4, r5
 800042a:	bf08      	it	eq
 800042c:	ea90 0f02 	teqeq	r0, r2
 8000430:	d005      	beq.n	800043e <__adddf3+0x212>
 8000432:	ea54 0c00 	orrs.w	ip, r4, r0
 8000436:	bf04      	itt	eq
 8000438:	4619      	moveq	r1, r3
 800043a:	4610      	moveq	r0, r2
 800043c:	bd30      	pop	{r4, r5, pc}
 800043e:	ea91 0f03 	teq	r1, r3
 8000442:	bf1e      	ittt	ne
 8000444:	2100      	movne	r1, #0
 8000446:	2000      	movne	r0, #0
 8000448:	bd30      	popne	{r4, r5, pc}
 800044a:	ea5f 5c54 	movs.w	ip, r4, lsr #21
 800044e:	d105      	bne.n	800045c <__adddf3+0x230>
 8000450:	0040      	lsls	r0, r0, #1
 8000452:	4149      	adcs	r1, r1
 8000454:	bf28      	it	cs
 8000456:	f041 4100 	orrcs.w	r1, r1, #2147483648	; 0x80000000
 800045a:	bd30      	pop	{r4, r5, pc}
 800045c:	f514 0480 	adds.w	r4, r4, #4194304	; 0x400000
 8000460:	bf3c      	itt	cc
 8000462:	f501 1180 	addcc.w	r1, r1, #1048576	; 0x100000
 8000466:	bd30      	popcc	{r4, r5, pc}
 8000468:	f001 4500 	and.w	r5, r1, #2147483648	; 0x80000000
 800046c:	f045 41fe 	orr.w	r1, r5, #2130706432	; 0x7f000000
 8000470:	f441 0170 	orr.w	r1, r1, #15728640	; 0xf00000
 8000474:	f04f 0000 	mov.w	r0, #0
 8000478:	bd30      	pop	{r4, r5, pc}
 800047a:	ea7f 5c64 	mvns.w	ip, r4, asr #21
 800047e:	bf1a      	itte	ne
 8000480:	4619      	movne	r1, r3
 8000482:	4610      	movne	r0, r2
 8000484:	ea7f 5c65 	mvnseq.w	ip, r5, asr #21
 8000488:	bf1c      	itt	ne
 800048a:	460b      	movne	r3, r1
 800048c:	4602      	movne	r2, r0
 800048e:	ea50 3401 	orrs.w	r4, r0, r1, lsl #12
 8000492:	bf06      	itte	eq
 8000494:	ea52 3503 	orrseq.w	r5, r2, r3, lsl #12
 8000498:	ea91 0f03 	teqeq	r1, r3
 800049c:	f441 2100 	orrne.w	r1, r1, #524288	; 0x80000
 80004a0:	bd30      	pop	{r4, r5, pc}
 80004a2:	bf00      	nop

080004a4 <__aeabi_ui2d>:
 80004a4:	f090 0f00 	teq	r0, #0
 80004a8:	bf04      	itt	eq
 80004aa:	2100      	moveq	r1, #0
 80004ac:	4770      	bxeq	lr
 80004ae:	b530      	push	{r4, r5, lr}
 80004b0:	f44f 6480 	mov.w	r4, #1024	; 0x400
 80004b4:	f104 0432 	add.w	r4, r4, #50	; 0x32
 80004b8:	f04f 0500 	mov.w	r5, #0
 80004bc:	f04f 0100 	mov.w	r1, #0
 80004c0:	e750      	b.n	8000364 <__adddf3+0x138>
 80004c2:	bf00      	nop

080004c4 <__aeabi_i2d>:
 80004c4:	f090 0f00 	teq	r0, #0
 80004c8:	bf04      	itt	eq
 80004ca:	2100      	moveq	r1, #0
 80004cc:	4770      	bxeq	lr
 80004ce:	b530      	push	{r4, r5, lr}
 80004d0:	f44f 6480 	mov.w	r4, #1024	; 0x400
 80004d4:	f104 0432 	add.w	r4, r4, #50	; 0x32
 80004d8:	f010 4500 	ands.w	r5, r0, #2147483648	; 0x80000000
 80004dc:	bf48      	it	mi
 80004de:	4240      	negmi	r0, r0
 80004e0:	f04f 0100 	mov.w	r1, #0
 80004e4:	e73e      	b.n	8000364 <__adddf3+0x138>
 80004e6:	bf00      	nop

080004e8 <__aeabi_f2d>:
 80004e8:	0042      	lsls	r2, r0, #1
 80004ea:	ea4f 01e2 	mov.w	r1, r2, asr #3
 80004ee:	ea4f 0131 	mov.w	r1, r1, rrx
 80004f2:	ea4f 7002 	mov.w	r0, r2, lsl #28
 80004f6:	bf1f      	itttt	ne
 80004f8:	f012 437f 	andsne.w	r3, r2, #4278190080	; 0xff000000
 80004fc:	f093 4f7f 	teqne	r3, #4278190080	; 0xff000000
 8000500:	f081 5160 	eorne.w	r1, r1, #939524096	; 0x38000000
 8000504:	4770      	bxne	lr
 8000506:	f032 427f 	bics.w	r2, r2, #4278190080	; 0xff000000
 800050a:	bf08      	it	eq
 800050c:	4770      	bxeq	lr
 800050e:	f093 4f7f 	teq	r3, #4278190080	; 0xff000000
 8000512:	bf04      	itt	eq
 8000514:	f441 2100 	orreq.w	r1, r1, #524288	; 0x80000
 8000518:	4770      	bxeq	lr
 800051a:	b530      	push	{r4, r5, lr}
 800051c:	f44f 7460 	mov.w	r4, #896	; 0x380
 8000520:	f001 4500 	and.w	r5, r1, #2147483648	; 0x80000000
 8000524:	f021 4100 	bic.w	r1, r1, #2147483648	; 0x80000000
 8000528:	e71c      	b.n	8000364 <__adddf3+0x138>
 800052a:	bf00      	nop

0800052c <__aeabi_ul2d>:
 800052c:	ea50 0201 	orrs.w	r2, r0, r1
 8000530:	bf08      	it	eq
 8000532:	4770      	bxeq	lr
 8000534:	b530      	push	{r4, r5, lr}
 8000536:	f04f 0500 	mov.w	r5, #0
 800053a:	e00a      	b.n	8000552 <__aeabi_l2d+0x16>

0800053c <__aeabi_l2d>:
 800053c:	ea50 0201 	orrs.w	r2, r0, r1
 8000540:	bf08      	it	eq
 8000542:	4770      	bxeq	lr
 8000544:	b530      	push	{r4, r5, lr}
 8000546:	f011 4500 	ands.w	r5, r1, #2147483648	; 0x80000000
 800054a:	d502      	bpl.n	8000552 <__aeabi_l2d+0x16>
 800054c:	4240      	negs	r0, r0
 800054e:	eb61 0141 	sbc.w	r1, r1, r1, lsl #1
 8000552:	f44f 6480 	mov.w	r4, #1024	; 0x400
 8000556:	f104 0432 	add.w	r4, r4, #50	; 0x32
 800055a:	ea5f 5c91 	movs.w	ip, r1, lsr #22
 800055e:	f43f aed8 	beq.w	8000312 <__adddf3+0xe6>
 8000562:	f04f 0203 	mov.w	r2, #3
 8000566:	ea5f 0cdc 	movs.w	ip, ip, lsr #3
 800056a:	bf18      	it	ne
 800056c:	3203      	addne	r2, #3
 800056e:	ea5f 0cdc 	movs.w	ip, ip, lsr #3
 8000572:	bf18      	it	ne
 8000574:	3203      	addne	r2, #3
 8000576:	eb02 02dc 	add.w	r2, r2, ip, lsr #3
 800057a:	f1c2 0320 	rsb	r3, r2, #32
 800057e:	fa00 fc03 	lsl.w	ip, r0, r3
 8000582:	fa20 f002 	lsr.w	r0, r0, r2
 8000586:	fa01 fe03 	lsl.w	lr, r1, r3
 800058a:	ea40 000e 	orr.w	r0, r0, lr
 800058e:	fa21 f102 	lsr.w	r1, r1, r2
 8000592:	4414      	add	r4, r2
 8000594:	e6bd      	b.n	8000312 <__adddf3+0xe6>
 8000596:	bf00      	nop

08000598 <__aeabi_dmul>:
 8000598:	b570      	push	{r4, r5, r6, lr}
 800059a:	f04f 0cff 	mov.w	ip, #255	; 0xff
 800059e:	f44c 6ce0 	orr.w	ip, ip, #1792	; 0x700
 80005a2:	ea1c 5411 	ands.w	r4, ip, r1, lsr #20
 80005a6:	bf1d      	ittte	ne
 80005a8:	ea1c 5513 	andsne.w	r5, ip, r3, lsr #20
 80005ac:	ea94 0f0c 	teqne	r4, ip
 80005b0:	ea95 0f0c 	teqne	r5, ip
 80005b4:	f000 f8de 	bleq	8000774 <__aeabi_dmul+0x1dc>
 80005b8:	442c      	add	r4, r5
 80005ba:	ea81 0603 	eor.w	r6, r1, r3
 80005be:	ea21 514c 	bic.w	r1, r1, ip, lsl #21
 80005c2:	ea23 534c 	bic.w	r3, r3, ip, lsl #21
 80005c6:	ea50 3501 	orrs.w	r5, r0, r1, lsl #12
 80005ca:	bf18      	it	ne
 80005cc:	ea52 3503 	orrsne.w	r5, r2, r3, lsl #12
 80005d0:	f441 1180 	orr.w	r1, r1, #1048576	; 0x100000
 80005d4:	f443 1380 	orr.w	r3, r3, #1048576	; 0x100000
 80005d8:	d038      	beq.n	800064c <__aeabi_dmul+0xb4>
 80005da:	fba0 ce02 	umull	ip, lr, r0, r2
 80005de:	f04f 0500 	mov.w	r5, #0
 80005e2:	fbe1 e502 	umlal	lr, r5, r1, r2
 80005e6:	f006 4200 	and.w	r2, r6, #2147483648	; 0x80000000
 80005ea:	fbe0 e503 	umlal	lr, r5, r0, r3
 80005ee:	f04f 0600 	mov.w	r6, #0
 80005f2:	fbe1 5603 	umlal	r5, r6, r1, r3
 80005f6:	f09c 0f00 	teq	ip, #0
 80005fa:	bf18      	it	ne
 80005fc:	f04e 0e01 	orrne.w	lr, lr, #1
 8000600:	f1a4 04ff 	sub.w	r4, r4, #255	; 0xff
 8000604:	f5b6 7f00 	cmp.w	r6, #512	; 0x200
 8000608:	f564 7440 	sbc.w	r4, r4, #768	; 0x300
 800060c:	d204      	bcs.n	8000618 <__aeabi_dmul+0x80>
 800060e:	ea5f 0e4e 	movs.w	lr, lr, lsl #1
 8000612:	416d      	adcs	r5, r5
 8000614:	eb46 0606 	adc.w	r6, r6, r6
 8000618:	ea42 21c6 	orr.w	r1, r2, r6, lsl #11
 800061c:	ea41 5155 	orr.w	r1, r1, r5, lsr #21
 8000620:	ea4f 20c5 	mov.w	r0, r5, lsl #11
 8000624:	ea40 505e 	orr.w	r0, r0, lr, lsr #21
 8000628:	ea4f 2ece 	mov.w	lr, lr, lsl #11
 800062c:	f1b4 0cfd 	subs.w	ip, r4, #253	; 0xfd
 8000630:	bf88      	it	hi
 8000632:	f5bc 6fe0 	cmphi.w	ip, #1792	; 0x700
 8000636:	d81e      	bhi.n	8000676 <__aeabi_dmul+0xde>
 8000638:	f1be 4f00 	cmp.w	lr, #2147483648	; 0x80000000
 800063c:	bf08      	it	eq
 800063e:	ea5f 0e50 	movseq.w	lr, r0, lsr #1
 8000642:	f150 0000 	adcs.w	r0, r0, #0
 8000646:	eb41 5104 	adc.w	r1, r1, r4, lsl #20
 800064a:	bd70      	pop	{r4, r5, r6, pc}
 800064c:	f006 4600 	and.w	r6, r6, #2147483648	; 0x80000000
 8000650:	ea46 0101 	orr.w	r1, r6, r1
 8000654:	ea40 0002 	orr.w	r0, r0, r2
 8000658:	ea81 0103 	eor.w	r1, r1, r3
 800065c:	ebb4 045c 	subs.w	r4, r4, ip, lsr #1
 8000660:	bfc2      	ittt	gt
 8000662:	ebd4 050c 	rsbsgt	r5, r4, ip
 8000666:	ea41 5104 	orrgt.w	r1, r1, r4, lsl #20
 800066a:	bd70      	popgt	{r4, r5, r6, pc}
 800066c:	f441 1180 	orr.w	r1, r1, #1048576	; 0x100000
 8000670:	f04f 0e00 	mov.w	lr, #0
 8000674:	3c01      	subs	r4, #1
 8000676:	f300 80ab 	bgt.w	80007d0 <__aeabi_dmul+0x238>
 800067a:	f114 0f36 	cmn.w	r4, #54	; 0x36
 800067e:	bfde      	ittt	le
 8000680:	2000      	movle	r0, #0
 8000682:	f001 4100 	andle.w	r1, r1, #2147483648	; 0x80000000
 8000686:	bd70      	pople	{r4, r5, r6, pc}
 8000688:	f1c4 0400 	rsb	r4, r4, #0
 800068c:	3c20      	subs	r4, #32
 800068e:	da35      	bge.n	80006fc <__aeabi_dmul+0x164>
 8000690:	340c      	adds	r4, #12
 8000692:	dc1b      	bgt.n	80006cc <__aeabi_dmul+0x134>
 8000694:	f104 0414 	add.w	r4, r4, #20
 8000698:	f1c4 0520 	rsb	r5, r4, #32
 800069c:	fa00 f305 	lsl.w	r3, r0, r5
 80006a0:	fa20 f004 	lsr.w	r0, r0, r4
 80006a4:	fa01 f205 	lsl.w	r2, r1, r5
 80006a8:	ea40 0002 	orr.w	r0, r0, r2
 80006ac:	f001 4200 	and.w	r2, r1, #2147483648	; 0x80000000
 80006b0:	f021 4100 	bic.w	r1, r1, #2147483648	; 0x80000000
 80006b4:	eb10 70d3 	adds.w	r0, r0, r3, lsr #31
 80006b8:	fa21 f604 	lsr.w	r6, r1, r4
 80006bc:	eb42 0106 	adc.w	r1, r2, r6
 80006c0:	ea5e 0e43 	orrs.w	lr, lr, r3, lsl #1
 80006c4:	bf08      	it	eq
 80006c6:	ea20 70d3 	biceq.w	r0, r0, r3, lsr #31
 80006ca:	bd70      	pop	{r4, r5, r6, pc}
 80006cc:	f1c4 040c 	rsb	r4, r4, #12
 80006d0:	f1c4 0520 	rsb	r5, r4, #32
 80006d4:	fa00 f304 	lsl.w	r3, r0, r4
 80006d8:	fa20 f005 	lsr.w	r0, r0, r5
 80006dc:	fa01 f204 	lsl.w	r2, r1, r4
 80006e0:	ea40 0002 	orr.w	r0, r0, r2
 80006e4:	f001 4100 	and.w	r1, r1, #2147483648	; 0x80000000
 80006e8:	eb10 70d3 	adds.w	r0, r0, r3, lsr #31
 80006ec:	f141 0100 	adc.w	r1, r1, #0
 80006f0:	ea5e 0e43 	orrs.w	lr, lr, r3, lsl #1
 80006f4:	bf08      	it	eq
 80006f6:	ea20 70d3 	biceq.w	r0, r0, r3, lsr #31
 80006fa:	bd70      	pop	{r4, r5, r6, pc}
 80006fc:	f1c4 0520 	rsb	r5, r4, #32
 8000700:	fa00 f205 	lsl.w	r2, r0, r5
 8000704:	ea4e 0e02 	orr.w	lr, lr, r2
 8000708:	fa20 f304 	lsr.w	r3, r0, r4
 800070c:	fa01 f205 	lsl.w	r2, r1, r5
 8000710:	ea43 0302 	orr.w	r3, r3, r2
 8000714:	fa21 f004 	lsr.w	r0, r1, r4
 8000718:	f001 4100 	and.w	r1, r1, #2147483648	; 0x80000000
 800071c:	fa21 f204 	lsr.w	r2, r1, r4
 8000720:	ea20 0002 	bic.w	r0, r0, r2
 8000724:	eb00 70d3 	add.w	r0, r0, r3, lsr #31
 8000728:	ea5e 0e43 	orrs.w	lr, lr, r3, lsl #1
 800072c:	bf08      	it	eq
 800072e:	ea20 70d3 	biceq.w	r0, r0, r3, lsr #31
 8000732:	bd70      	pop	{r4, r5, r6, pc}
 8000734:	f094 0f00 	teq	r4, #0
 8000738:	d10f      	bne.n	800075a <__aeabi_dmul+0x1c2>
 800073a:	f001 4600 	and.w	r6, r1, #2147483648	; 0x80000000
 800073e:	0040      	lsls	r0, r0, #1
 8000740:	eb41 0101 	adc.w	r1, r1, r1
 8000744:	f411 1f80 	tst.w	r1, #1048576	; 0x100000
 8000748:	bf08      	it	eq
 800074a:	3c01      	subeq	r4, #1
 800074c:	d0f7      	beq.n	800073e <__aeabi_dmul+0x1a6>
 800074e:	ea41 0106 	orr.w	r1, r1, r6
 8000752:	f095 0f00 	teq	r5, #0
 8000756:	bf18      	it	ne
 8000758:	4770      	bxne	lr
 800075a:	f003 4600 	and.w	r6, r3, #2147483648	; 0x80000000
 800075e:	0052      	lsls	r2, r2, #1
 8000760:	eb43 0303 	adc.w	r3, r3, r3
 8000764:	f413 1f80 	tst.w	r3, #1048576	; 0x100000
 8000768:	bf08      	it	eq
 800076a:	3d01      	subeq	r5, #1
 800076c:	d0f7      	beq.n	800075e <__aeabi_dmul+0x1c6>
 800076e:	ea43 0306 	orr.w	r3, r3, r6
 8000772:	4770      	bx	lr
 8000774:	ea94 0f0c 	teq	r4, ip
 8000778:	ea0c 5513 	and.w	r5, ip, r3, lsr #20
 800077c:	bf18      	it	ne
 800077e:	ea95 0f0c 	teqne	r5, ip
 8000782:	d00c      	beq.n	800079e <__aeabi_dmul+0x206>
 8000784:	ea50 0641 	orrs.w	r6, r0, r1, lsl #1
 8000788:	bf18      	it	ne
 800078a:	ea52 0643 	orrsne.w	r6, r2, r3, lsl #1
 800078e:	d1d1      	bne.n	8000734 <__aeabi_dmul+0x19c>
 8000790:	ea81 0103 	eor.w	r1, r1, r3
 8000794:	f001 4100 	and.w	r1, r1, #2147483648	; 0x80000000
 8000798:	f04f 0000 	mov.w	r0, #0
 800079c:	bd70      	pop	{r4, r5, r6, pc}
 800079e:	ea50 0641 	orrs.w	r6, r0, r1, lsl #1
 80007a2:	bf06      	itte	eq
 80007a4:	4610      	moveq	r0, r2
 80007a6:	4619      	moveq	r1, r3
 80007a8:	ea52 0643 	orrsne.w	r6, r2, r3, lsl #1
 80007ac:	d019      	beq.n	80007e2 <__aeabi_dmul+0x24a>
 80007ae:	ea94 0f0c 	teq	r4, ip
 80007b2:	d102      	bne.n	80007ba <__aeabi_dmul+0x222>
 80007b4:	ea50 3601 	orrs.w	r6, r0, r1, lsl #12
 80007b8:	d113      	bne.n	80007e2 <__aeabi_dmul+0x24a>
 80007ba:	ea95 0f0c 	teq	r5, ip
 80007be:	d105      	bne.n	80007cc <__aeabi_dmul+0x234>
 80007c0:	ea52 3603 	orrs.w	r6, r2, r3, lsl #12
 80007c4:	bf1c      	itt	ne
 80007c6:	4610      	movne	r0, r2
 80007c8:	4619      	movne	r1, r3
 80007ca:	d10a      	bne.n	80007e2 <__aeabi_dmul+0x24a>
 80007cc:	ea81 0103 	eor.w	r1, r1, r3
 80007d0:	f001 4100 	and.w	r1, r1, #2147483648	; 0x80000000
 80007d4:	f041 41fe 	orr.w	r1, r1, #2130706432	; 0x7f000000
 80007d8:	f441 0170 	orr.w	r1, r1, #15728640	; 0xf00000
 80007dc:	f04f 0000 	mov.w	r0, #0
 80007e0:	bd70      	pop	{r4, r5, r6, pc}
 80007e2:	f041 41fe 	orr.w	r1, r1, #2130706432	; 0x7f000000
 80007e6:	f441 0178 	orr.w	r1, r1, #16252928	; 0xf80000
 80007ea:	bd70      	pop	{r4, r5, r6, pc}

080007ec <__aeabi_ddiv>:
 80007ec:	b570      	push	{r4, r5, r6, lr}
 80007ee:	f04f 0cff 	mov.w	ip, #255	; 0xff
 80007f2:	f44c 6ce0 	orr.w	ip, ip, #1792	; 0x700
 80007f6:	ea1c 5411 	ands.w	r4, ip, r1, lsr #20
 80007fa:	bf1d      	ittte	ne
 80007fc:	ea1c 5513 	andsne.w	r5, ip, r3, lsr #20
 8000800:	ea94 0f0c 	teqne	r4, ip
 8000804:	ea95 0f0c 	teqne	r5, ip
 8000808:	f000 f8a7 	bleq	800095a <__aeabi_ddiv+0x16e>
 800080c:	eba4 0405 	sub.w	r4, r4, r5
 8000810:	ea81 0e03 	eor.w	lr, r1, r3
 8000814:	ea52 3503 	orrs.w	r5, r2, r3, lsl #12
 8000818:	ea4f 3101 	mov.w	r1, r1, lsl #12
 800081c:	f000 8088 	beq.w	8000930 <__aeabi_ddiv+0x144>
 8000820:	ea4f 3303 	mov.w	r3, r3, lsl #12
 8000824:	f04f 5580 	mov.w	r5, #268435456	; 0x10000000
 8000828:	ea45 1313 	orr.w	r3, r5, r3, lsr #4
 800082c:	ea43 6312 	orr.w	r3, r3, r2, lsr #24
 8000830:	ea4f 2202 	mov.w	r2, r2, lsl #8
 8000834:	ea45 1511 	orr.w	r5, r5, r1, lsr #4
 8000838:	ea45 6510 	orr.w	r5, r5, r0, lsr #24
 800083c:	ea4f 2600 	mov.w	r6, r0, lsl #8
 8000840:	f00e 4100 	and.w	r1, lr, #2147483648	; 0x80000000
 8000844:	429d      	cmp	r5, r3
 8000846:	bf08      	it	eq
 8000848:	4296      	cmpeq	r6, r2
 800084a:	f144 04fd 	adc.w	r4, r4, #253	; 0xfd
 800084e:	f504 7440 	add.w	r4, r4, #768	; 0x300
 8000852:	d202      	bcs.n	800085a <__aeabi_ddiv+0x6e>
 8000854:	085b      	lsrs	r3, r3, #1
 8000856:	ea4f 0232 	mov.w	r2, r2, rrx
 800085a:	1ab6      	subs	r6, r6, r2
 800085c:	eb65 0503 	sbc.w	r5, r5, r3
 8000860:	085b      	lsrs	r3, r3, #1
 8000862:	ea4f 0232 	mov.w	r2, r2, rrx
 8000866:	f44f 1080 	mov.w	r0, #1048576	; 0x100000
 800086a:	f44f 2c00 	mov.w	ip, #524288	; 0x80000
 800086e:	ebb6 0e02 	subs.w	lr, r6, r2
 8000872:	eb75 0e03 	sbcs.w	lr, r5, r3
 8000876:	bf22      	ittt	cs
 8000878:	1ab6      	subcs	r6, r6, r2
 800087a:	4675      	movcs	r5, lr
 800087c:	ea40 000c 	orrcs.w	r0, r0, ip
 8000880:	085b      	lsrs	r3, r3, #1
 8000882:	ea4f 0232 	mov.w	r2, r2, rrx
 8000886:	ebb6 0e02 	subs.w	lr, r6, r2
 800088a:	eb75 0e03 	sbcs.w	lr, r5, r3
 800088e:	bf22      	ittt	cs
 8000890:	1ab6      	subcs	r6, r6, r2
 8000892:	4675      	movcs	r5, lr
 8000894:	ea40 005c 	orrcs.w	r0, r0, ip, lsr #1
 8000898:	085b      	lsrs	r3, r3, #1
 800089a:	ea4f 0232 	mov.w	r2, r2, rrx
 800089e:	ebb6 0e02 	subs.w	lr, r6, r2
 80008a2:	eb75 0e03 	sbcs.w	lr, r5, r3
 80008a6:	bf22      	ittt	cs
 80008a8:	1ab6      	subcs	r6, r6, r2
 80008aa:	4675      	movcs	r5, lr
 80008ac:	ea40 009c 	orrcs.w	r0, r0, ip, lsr #2
 80008b0:	085b      	lsrs	r3, r3, #1
 80008b2:	ea4f 0232 	mov.w	r2, r2, rrx
 80008b6:	ebb6 0e02 	subs.w	lr, r6, r2
 80008ba:	eb75 0e03 	sbcs.w	lr, r5, r3
 80008be:	bf22      	ittt	cs
 80008c0:	1ab6      	subcs	r6, r6, r2
 80008c2:	4675      	movcs	r5, lr
 80008c4:	ea40 00dc 	orrcs.w	r0, r0, ip, lsr #3
 80008c8:	ea55 0e06 	orrs.w	lr, r5, r6
 80008cc:	d018      	beq.n	8000900 <__aeabi_ddiv+0x114>
 80008ce:	ea4f 1505 	mov.w	r5, r5, lsl #4
 80008d2:	ea45 7516 	orr.w	r5, r5, r6, lsr #28
 80008d6:	ea4f 1606 	mov.w	r6, r6, lsl #4
 80008da:	ea4f 03c3 	mov.w	r3, r3, lsl #3
 80008de:	ea43 7352 	orr.w	r3, r3, r2, lsr #29
 80008e2:	ea4f 02c2 	mov.w	r2, r2, lsl #3
 80008e6:	ea5f 1c1c 	movs.w	ip, ip, lsr #4
 80008ea:	d1c0      	bne.n	800086e <__aeabi_ddiv+0x82>
 80008ec:	f411 1f80 	tst.w	r1, #1048576	; 0x100000
 80008f0:	d10b      	bne.n	800090a <__aeabi_ddiv+0x11e>
 80008f2:	ea41 0100 	orr.w	r1, r1, r0
 80008f6:	f04f 0000 	mov.w	r0, #0
 80008fa:	f04f 4c00 	mov.w	ip, #2147483648	; 0x80000000
 80008fe:	e7b6      	b.n	800086e <__aeabi_ddiv+0x82>
 8000900:	f411 1f80 	tst.w	r1, #1048576	; 0x100000
 8000904:	bf04      	itt	eq
 8000906:	4301      	orreq	r1, r0
 8000908:	2000      	moveq	r0, #0
 800090a:	f1b4 0cfd 	subs.w	ip, r4, #253	; 0xfd
 800090e:	bf88      	it	hi
 8000910:	f5bc 6fe0 	cmphi.w	ip, #1792	; 0x700
 8000914:	f63f aeaf 	bhi.w	8000676 <__aeabi_dmul+0xde>
 8000918:	ebb5 0c03 	subs.w	ip, r5, r3
 800091c:	bf04      	itt	eq
 800091e:	ebb6 0c02 	subseq.w	ip, r6, r2
 8000922:	ea5f 0c50 	movseq.w	ip, r0, lsr #1
 8000926:	f150 0000 	adcs.w	r0, r0, #0
 800092a:	eb41 5104 	adc.w	r1, r1, r4, lsl #20
 800092e:	bd70      	pop	{r4, r5, r6, pc}
 8000930:	f00e 4e00 	and.w	lr, lr, #2147483648	; 0x80000000
 8000934:	ea4e 3111 	orr.w	r1, lr, r1, lsr #12
 8000938:	eb14 045c 	adds.w	r4, r4, ip, lsr #1
 800093c:	bfc2      	ittt	gt
 800093e:	ebd4 050c 	rsbsgt	r5, r4, ip
 8000942:	ea41 5104 	orrgt.w	r1, r1, r4, lsl #20
 8000946:	bd70      	popgt	{r4, r5, r6, pc}
 8000948:	f441 1180 	orr.w	r1, r1, #1048576	; 0x100000
 800094c:	f04f 0e00 	mov.w	lr, #0
 8000950:	3c01      	subs	r4, #1
 8000952:	e690      	b.n	8000676 <__aeabi_dmul+0xde>
 8000954:	ea45 0e06 	orr.w	lr, r5, r6
 8000958:	e68d      	b.n	8000676 <__aeabi_dmul+0xde>
 800095a:	ea0c 5513 	and.w	r5, ip, r3, lsr #20
 800095e:	ea94 0f0c 	teq	r4, ip
 8000962:	bf08      	it	eq
 8000964:	ea95 0f0c 	teqeq	r5, ip
 8000968:	f43f af3b 	beq.w	80007e2 <__aeabi_dmul+0x24a>
 800096c:	ea94 0f0c 	teq	r4, ip
 8000970:	d10a      	bne.n	8000988 <__aeabi_ddiv+0x19c>
 8000972:	ea50 3401 	orrs.w	r4, r0, r1, lsl #12
 8000976:	f47f af34 	bne.w	80007e2 <__aeabi_dmul+0x24a>
 800097a:	ea95 0f0c 	teq	r5, ip
 800097e:	f47f af25 	bne.w	80007cc <__aeabi_dmul+0x234>
 8000982:	4610      	mov	r0, r2
 8000984:	4619      	mov	r1, r3
 8000986:	e72c      	b.n	80007e2 <__aeabi_dmul+0x24a>
 8000988:	ea95 0f0c 	teq	r5, ip
 800098c:	d106      	bne.n	800099c <__aeabi_ddiv+0x1b0>
 800098e:	ea52 3503 	orrs.w	r5, r2, r3, lsl #12
 8000992:	f43f aefd 	beq.w	8000790 <__aeabi_dmul+0x1f8>
 8000996:	4610      	mov	r0, r2
 8000998:	4619      	mov	r1, r3
 800099a:	e722      	b.n	80007e2 <__aeabi_dmul+0x24a>
 800099c:	ea50 0641 	orrs.w	r6, r0, r1, lsl #1
 80009a0:	bf18      	it	ne
 80009a2:	ea52 0643 	orrsne.w	r6, r2, r3, lsl #1
 80009a6:	f47f aec5 	bne.w	8000734 <__aeabi_dmul+0x19c>
 80009aa:	ea50 0441 	orrs.w	r4, r0, r1, lsl #1
 80009ae:	f47f af0d 	bne.w	80007cc <__aeabi_dmul+0x234>
 80009b2:	ea52 0543 	orrs.w	r5, r2, r3, lsl #1
 80009b6:	f47f aeeb 	bne.w	8000790 <__aeabi_dmul+0x1f8>
 80009ba:	e712      	b.n	80007e2 <__aeabi_dmul+0x24a>

080009bc <__aeabi_d2f>:
 80009bc:	ea4f 0241 	mov.w	r2, r1, lsl #1
 80009c0:	f1b2 43e0 	subs.w	r3, r2, #1879048192	; 0x70000000
 80009c4:	bf24      	itt	cs
 80009c6:	f5b3 1c00 	subscs.w	ip, r3, #2097152	; 0x200000
 80009ca:	f1dc 5cfe 	rsbscs	ip, ip, #532676608	; 0x1fc00000
 80009ce:	d90d      	bls.n	80009ec <__aeabi_d2f+0x30>
 80009d0:	f001 4c00 	and.w	ip, r1, #2147483648	; 0x80000000
 80009d4:	ea4f 02c0 	mov.w	r2, r0, lsl #3
 80009d8:	ea4c 7050 	orr.w	r0, ip, r0, lsr #29
 80009dc:	f1b2 4f00 	cmp.w	r2, #2147483648	; 0x80000000
 80009e0:	eb40 0083 	adc.w	r0, r0, r3, lsl #2
 80009e4:	bf08      	it	eq
 80009e6:	f020 0001 	biceq.w	r0, r0, #1
 80009ea:	4770      	bx	lr
 80009ec:	f011 4f80 	tst.w	r1, #1073741824	; 0x40000000
 80009f0:	d121      	bne.n	8000a36 <__aeabi_d2f+0x7a>
 80009f2:	f113 7238 	adds.w	r2, r3, #48234496	; 0x2e00000
 80009f6:	bfbc      	itt	lt
 80009f8:	f001 4000 	andlt.w	r0, r1, #2147483648	; 0x80000000
 80009fc:	4770      	bxlt	lr
 80009fe:	f441 1180 	orr.w	r1, r1, #1048576	; 0x100000
 8000a02:	ea4f 5252 	mov.w	r2, r2, lsr #21
 8000a06:	f1c2 0218 	rsb	r2, r2, #24
 8000a0a:	f1c2 0c20 	rsb	ip, r2, #32
 8000a0e:	fa10 f30c 	lsls.w	r3, r0, ip
 8000a12:	fa20 f002 	lsr.w	r0, r0, r2
 8000a16:	bf18      	it	ne
 8000a18:	f040 0001 	orrne.w	r0, r0, #1
 8000a1c:	ea4f 23c1 	mov.w	r3, r1, lsl #11
 8000a20:	ea4f 23d3 	mov.w	r3, r3, lsr #11
 8000a24:	fa03 fc0c 	lsl.w	ip, r3, ip
 8000a28:	ea40 000c 	orr.w	r0, r0, ip
 8000a2c:	fa23 f302 	lsr.w	r3, r3, r2
 8000a30:	ea4f 0343 	mov.w	r3, r3, lsl #1
 8000a34:	e7cc      	b.n	80009d0 <__aeabi_d2f+0x14>
 8000a36:	ea7f 5362 	mvns.w	r3, r2, asr #21
 8000a3a:	d107      	bne.n	8000a4c <__aeabi_d2f+0x90>
 8000a3c:	ea50 3301 	orrs.w	r3, r0, r1, lsl #12
 8000a40:	bf1e      	ittt	ne
 8000a42:	f04f 40fe 	movne.w	r0, #2130706432	; 0x7f000000
 8000a46:	f440 0040 	orrne.w	r0, r0, #12582912	; 0xc00000
 8000a4a:	4770      	bxne	lr
 8000a4c:	f001 4000 	and.w	r0, r1, #2147483648	; 0x80000000
 8000a50:	f040 40fe 	orr.w	r0, r0, #2130706432	; 0x7f000000
 8000a54:	f440 0000 	orr.w	r0, r0, #8388608	; 0x800000
 8000a58:	4770      	bx	lr
 8000a5a:	bf00      	nop

08000a5c <__aeabi_frsub>:
 8000a5c:	f080 4000 	eor.w	r0, r0, #2147483648	; 0x80000000
 8000a60:	e002      	b.n	8000a68 <__addsf3>
 8000a62:	bf00      	nop

08000a64 <__aeabi_fsub>:
 8000a64:	f081 4100 	eor.w	r1, r1, #2147483648	; 0x80000000

08000a68 <__addsf3>:
 8000a68:	0042      	lsls	r2, r0, #1
 8000a6a:	bf1f      	itttt	ne
 8000a6c:	ea5f 0341 	movsne.w	r3, r1, lsl #1
 8000a70:	ea92 0f03 	teqne	r2, r3
 8000a74:	ea7f 6c22 	mvnsne.w	ip, r2, asr #24
 8000a78:	ea7f 6c23 	mvnsne.w	ip, r3, asr #24
 8000a7c:	d06a      	beq.n	8000b54 <__addsf3+0xec>
 8000a7e:	ea4f 6212 	mov.w	r2, r2, lsr #24
 8000a82:	ebd2 6313 	rsbs	r3, r2, r3, lsr #24
 8000a86:	bfc1      	itttt	gt
 8000a88:	18d2      	addgt	r2, r2, r3
 8000a8a:	4041      	eorgt	r1, r0
 8000a8c:	4048      	eorgt	r0, r1
 8000a8e:	4041      	eorgt	r1, r0
 8000a90:	bfb8      	it	lt
 8000a92:	425b      	neglt	r3, r3
 8000a94:	2b19      	cmp	r3, #25
 8000a96:	bf88      	it	hi
 8000a98:	4770      	bxhi	lr
 8000a9a:	f010 4f00 	tst.w	r0, #2147483648	; 0x80000000
 8000a9e:	f440 0000 	orr.w	r0, r0, #8388608	; 0x800000
 8000aa2:	f020 407f 	bic.w	r0, r0, #4278190080	; 0xff000000
 8000aa6:	bf18      	it	ne
 8000aa8:	4240      	negne	r0, r0
 8000aaa:	f011 4f00 	tst.w	r1, #2147483648	; 0x80000000
 8000aae:	f441 0100 	orr.w	r1, r1, #8388608	; 0x800000
 8000ab2:	f021 417f 	bic.w	r1, r1, #4278190080	; 0xff000000
 8000ab6:	bf18      	it	ne
 8000ab8:	4249      	negne	r1, r1
 8000aba:	ea92 0f03 	teq	r2, r3
 8000abe:	d03f      	beq.n	8000b40 <__addsf3+0xd8>
 8000ac0:	f1a2 0201 	sub.w	r2, r2, #1
 8000ac4:	fa41 fc03 	asr.w	ip, r1, r3
 8000ac8:	eb10 000c 	adds.w	r0, r0, ip
 8000acc:	f1c3 0320 	rsb	r3, r3, #32
 8000ad0:	fa01 f103 	lsl.w	r1, r1, r3
 8000ad4:	f000 4300 	and.w	r3, r0, #2147483648	; 0x80000000
 8000ad8:	d502      	bpl.n	8000ae0 <__addsf3+0x78>
 8000ada:	4249      	negs	r1, r1
 8000adc:	eb60 0040 	sbc.w	r0, r0, r0, lsl #1
 8000ae0:	f5b0 0f00 	cmp.w	r0, #8388608	; 0x800000
 8000ae4:	d313      	bcc.n	8000b0e <__addsf3+0xa6>
 8000ae6:	f1b0 7f80 	cmp.w	r0, #16777216	; 0x1000000
 8000aea:	d306      	bcc.n	8000afa <__addsf3+0x92>
 8000aec:	0840      	lsrs	r0, r0, #1
 8000aee:	ea4f 0131 	mov.w	r1, r1, rrx
 8000af2:	f102 0201 	add.w	r2, r2, #1
 8000af6:	2afe      	cmp	r2, #254	; 0xfe
 8000af8:	d251      	bcs.n	8000b9e <__addsf3+0x136>
 8000afa:	f1b1 4f00 	cmp.w	r1, #2147483648	; 0x80000000
 8000afe:	eb40 50c2 	adc.w	r0, r0, r2, lsl #23
 8000b02:	bf08      	it	eq
 8000b04:	f020 0001 	biceq.w	r0, r0, #1
 8000b08:	ea40 0003 	orr.w	r0, r0, r3
 8000b0c:	4770      	bx	lr
 8000b0e:	0049      	lsls	r1, r1, #1
 8000b10:	eb40 0000 	adc.w	r0, r0, r0
 8000b14:	3a01      	subs	r2, #1
 8000b16:	bf28      	it	cs
 8000b18:	f5b0 0f00 	cmpcs.w	r0, #8388608	; 0x800000
 8000b1c:	d2ed      	bcs.n	8000afa <__addsf3+0x92>
 8000b1e:	fab0 fc80 	clz	ip, r0
 8000b22:	f1ac 0c08 	sub.w	ip, ip, #8
 8000b26:	ebb2 020c 	subs.w	r2, r2, ip
 8000b2a:	fa00 f00c 	lsl.w	r0, r0, ip
 8000b2e:	bfaa      	itet	ge
 8000b30:	eb00 50c2 	addge.w	r0, r0, r2, lsl #23
 8000b34:	4252      	neglt	r2, r2
 8000b36:	4318      	orrge	r0, r3
 8000b38:	bfbc      	itt	lt
 8000b3a:	40d0      	lsrlt	r0, r2
 8000b3c:	4318      	orrlt	r0, r3
 8000b3e:	4770      	bx	lr
 8000b40:	f092 0f00 	teq	r2, #0
 8000b44:	f481 0100 	eor.w	r1, r1, #8388608	; 0x800000
 8000b48:	bf06      	itte	eq
 8000b4a:	f480 0000 	eoreq.w	r0, r0, #8388608	; 0x800000
 8000b4e:	3201      	addeq	r2, #1
 8000b50:	3b01      	subne	r3, #1
 8000b52:	e7b5      	b.n	8000ac0 <__addsf3+0x58>
 8000b54:	ea4f 0341 	mov.w	r3, r1, lsl #1
 8000b58:	ea7f 6c22 	mvns.w	ip, r2, asr #24
 8000b5c:	bf18      	it	ne
 8000b5e:	ea7f 6c23 	mvnsne.w	ip, r3, asr #24
 8000b62:	d021      	beq.n	8000ba8 <__addsf3+0x140>
 8000b64:	ea92 0f03 	teq	r2, r3
 8000b68:	d004      	beq.n	8000b74 <__addsf3+0x10c>
 8000b6a:	f092 0f00 	teq	r2, #0
 8000b6e:	bf08      	it	eq
 8000b70:	4608      	moveq	r0, r1
 8000b72:	4770      	bx	lr
 8000b74:	ea90 0f01 	teq	r0, r1
 8000b78:	bf1c      	itt	ne
 8000b7a:	2000      	movne	r0, #0
 8000b7c:	4770      	bxne	lr
 8000b7e:	f012 4f7f 	tst.w	r2, #4278190080	; 0xff000000
 8000b82:	d104      	bne.n	8000b8e <__addsf3+0x126>
 8000b84:	0040      	lsls	r0, r0, #1
 8000b86:	bf28      	it	cs
 8000b88:	f040 4000 	orrcs.w	r0, r0, #2147483648	; 0x80000000
 8000b8c:	4770      	bx	lr
 8000b8e:	f112 7200 	adds.w	r2, r2, #33554432	; 0x2000000
 8000b92:	bf3c      	itt	cc
 8000b94:	f500 0000 	addcc.w	r0, r0, #8388608	; 0x800000
 8000b98:	4770      	bxcc	lr
 8000b9a:	f000 4300 	and.w	r3, r0, #2147483648	; 0x80000000
 8000b9e:	f043 40fe 	orr.w	r0, r3, #2130706432	; 0x7f000000
 8000ba2:	f440 0000 	orr.w	r0, r0, #8388608	; 0x800000
 8000ba6:	4770      	bx	lr
 8000ba8:	ea7f 6222 	mvns.w	r2, r2, asr #24
 8000bac:	bf16      	itet	ne
 8000bae:	4608      	movne	r0, r1
 8000bb0:	ea7f 6323 	mvnseq.w	r3, r3, asr #24
 8000bb4:	4601      	movne	r1, r0
 8000bb6:	0242      	lsls	r2, r0, #9
 8000bb8:	bf06      	itte	eq
 8000bba:	ea5f 2341 	movseq.w	r3, r1, lsl #9
 8000bbe:	ea90 0f01 	teqeq	r0, r1
 8000bc2:	f440 0080 	orrne.w	r0, r0, #4194304	; 0x400000
 8000bc6:	4770      	bx	lr

08000bc8 <__aeabi_ui2f>:
 8000bc8:	f04f 0300 	mov.w	r3, #0
 8000bcc:	e004      	b.n	8000bd8 <__aeabi_i2f+0x8>
 8000bce:	bf00      	nop

08000bd0 <__aeabi_i2f>:
 8000bd0:	f010 4300 	ands.w	r3, r0, #2147483648	; 0x80000000
 8000bd4:	bf48      	it	mi
 8000bd6:	4240      	negmi	r0, r0
 8000bd8:	ea5f 0c00 	movs.w	ip, r0
 8000bdc:	bf08      	it	eq
 8000bde:	4770      	bxeq	lr
 8000be0:	f043 4396 	orr.w	r3, r3, #1258291200	; 0x4b000000
 8000be4:	4601      	mov	r1, r0
 8000be6:	f04f 0000 	mov.w	r0, #0
 8000bea:	e01c      	b.n	8000c26 <__aeabi_l2f+0x2a>

08000bec <__aeabi_ul2f>:
 8000bec:	ea50 0201 	orrs.w	r2, r0, r1
 8000bf0:	bf08      	it	eq
 8000bf2:	4770      	bxeq	lr
 8000bf4:	f04f 0300 	mov.w	r3, #0
 8000bf8:	e00a      	b.n	8000c10 <__aeabi_l2f+0x14>
 8000bfa:	bf00      	nop

08000bfc <__aeabi_l2f>:
 8000bfc:	ea50 0201 	orrs.w	r2, r0, r1
 8000c00:	bf08      	it	eq
 8000c02:	4770      	bxeq	lr
 8000c04:	f011 4300 	ands.w	r3, r1, #2147483648	; 0x80000000
 8000c08:	d502      	bpl.n	8000c10 <__aeabi_l2f+0x14>
 8000c0a:	4240      	negs	r0, r0
 8000c0c:	eb61 0141 	sbc.w	r1, r1, r1, lsl #1
 8000c10:	ea5f 0c01 	movs.w	ip, r1
 8000c14:	bf02      	ittt	eq
 8000c16:	4684      	moveq	ip, r0
 8000c18:	4601      	moveq	r1, r0
 8000c1a:	2000      	moveq	r0, #0
 8000c1c:	f043 43b6 	orr.w	r3, r3, #1526726656	; 0x5b000000
 8000c20:	bf08      	it	eq
 8000c22:	f1a3 5380 	subeq.w	r3, r3, #268435456	; 0x10000000
 8000c26:	f5a3 0300 	sub.w	r3, r3, #8388608	; 0x800000
 8000c2a:	fabc f28c 	clz	r2, ip
 8000c2e:	3a08      	subs	r2, #8
 8000c30:	eba3 53c2 	sub.w	r3, r3, r2, lsl #23
 8000c34:	db10      	blt.n	8000c58 <__aeabi_l2f+0x5c>
 8000c36:	fa01 fc02 	lsl.w	ip, r1, r2
 8000c3a:	4463      	add	r3, ip
 8000c3c:	fa00 fc02 	lsl.w	ip, r0, r2
 8000c40:	f1c2 0220 	rsb	r2, r2, #32
 8000c44:	f1bc 4f00 	cmp.w	ip, #2147483648	; 0x80000000
 8000c48:	fa20 f202 	lsr.w	r2, r0, r2
 8000c4c:	eb43 0002 	adc.w	r0, r3, r2
 8000c50:	bf08      	it	eq
 8000c52:	f020 0001 	biceq.w	r0, r0, #1
 8000c56:	4770      	bx	lr
 8000c58:	f102 0220 	add.w	r2, r2, #32
 8000c5c:	fa01 fc02 	lsl.w	ip, r1, r2
 8000c60:	f1c2 0220 	rsb	r2, r2, #32
 8000c64:	ea50 004c 	orrs.w	r0, r0, ip, lsl #1
 8000c68:	fa21 f202 	lsr.w	r2, r1, r2
 8000c6c:	eb43 0002 	adc.w	r0, r3, r2
 8000c70:	bf08      	it	eq
 8000c72:	ea20 70dc 	biceq.w	r0, r0, ip, lsr #31
 8000c76:	4770      	bx	lr

08000c78 <__aeabi_fmul>:
 8000c78:	f04f 0cff 	mov.w	ip, #255	; 0xff
 8000c7c:	ea1c 52d0 	ands.w	r2, ip, r0, lsr #23
 8000c80:	bf1e      	ittt	ne
 8000c82:	ea1c 53d1 	andsne.w	r3, ip, r1, lsr #23
 8000c86:	ea92 0f0c 	teqne	r2, ip
 8000c8a:	ea93 0f0c 	teqne	r3, ip
 8000c8e:	d06f      	beq.n	8000d70 <__aeabi_fmul+0xf8>
 8000c90:	441a      	add	r2, r3
 8000c92:	ea80 0c01 	eor.w	ip, r0, r1
 8000c96:	0240      	lsls	r0, r0, #9
 8000c98:	bf18      	it	ne
 8000c9a:	ea5f 2141 	movsne.w	r1, r1, lsl #9
 8000c9e:	d01e      	beq.n	8000cde <__aeabi_fmul+0x66>
 8000ca0:	f04f 6300 	mov.w	r3, #134217728	; 0x8000000
 8000ca4:	ea43 1050 	orr.w	r0, r3, r0, lsr #5
 8000ca8:	ea43 1151 	orr.w	r1, r3, r1, lsr #5
 8000cac:	fba0 3101 	umull	r3, r1, r0, r1
 8000cb0:	f00c 4000 	and.w	r0, ip, #2147483648	; 0x80000000
 8000cb4:	f5b1 0f00 	cmp.w	r1, #8388608	; 0x800000
 8000cb8:	bf3e      	ittt	cc
 8000cba:	0049      	lslcc	r1, r1, #1
 8000cbc:	ea41 71d3 	orrcc.w	r1, r1, r3, lsr #31
 8000cc0:	005b      	lslcc	r3, r3, #1
 8000cc2:	ea40 0001 	orr.w	r0, r0, r1
 8000cc6:	f162 027f 	sbc.w	r2, r2, #127	; 0x7f
 8000cca:	2afd      	cmp	r2, #253	; 0xfd
 8000ccc:	d81d      	bhi.n	8000d0a <__aeabi_fmul+0x92>
 8000cce:	f1b3 4f00 	cmp.w	r3, #2147483648	; 0x80000000
 8000cd2:	eb40 50c2 	adc.w	r0, r0, r2, lsl #23
 8000cd6:	bf08      	it	eq
 8000cd8:	f020 0001 	biceq.w	r0, r0, #1
 8000cdc:	4770      	bx	lr
 8000cde:	f090 0f00 	teq	r0, #0
 8000ce2:	f00c 4c00 	and.w	ip, ip, #2147483648	; 0x80000000
 8000ce6:	bf08      	it	eq
 8000ce8:	0249      	lsleq	r1, r1, #9
 8000cea:	ea4c 2050 	orr.w	r0, ip, r0, lsr #9
 8000cee:	ea40 2051 	orr.w	r0, r0, r1, lsr #9
 8000cf2:	3a7f      	subs	r2, #127	; 0x7f
 8000cf4:	bfc2      	ittt	gt
 8000cf6:	f1d2 03ff 	rsbsgt	r3, r2, #255	; 0xff
 8000cfa:	ea40 50c2 	orrgt.w	r0, r0, r2, lsl #23
 8000cfe:	4770      	bxgt	lr
 8000d00:	f440 0000 	orr.w	r0, r0, #8388608	; 0x800000
 8000d04:	f04f 0300 	mov.w	r3, #0
 8000d08:	3a01      	subs	r2, #1
 8000d0a:	dc5d      	bgt.n	8000dc8 <__aeabi_fmul+0x150>
 8000d0c:	f112 0f19 	cmn.w	r2, #25
 8000d10:	bfdc      	itt	le
 8000d12:	f000 4000 	andle.w	r0, r0, #2147483648	; 0x80000000
 8000d16:	4770      	bxle	lr
 8000d18:	f1c2 0200 	rsb	r2, r2, #0
 8000d1c:	0041      	lsls	r1, r0, #1
 8000d1e:	fa21 f102 	lsr.w	r1, r1, r2
 8000d22:	f1c2 0220 	rsb	r2, r2, #32
 8000d26:	fa00 fc02 	lsl.w	ip, r0, r2
 8000d2a:	ea5f 0031 	movs.w	r0, r1, rrx
 8000d2e:	f140 0000 	adc.w	r0, r0, #0
 8000d32:	ea53 034c 	orrs.w	r3, r3, ip, lsl #1
 8000d36:	bf08      	it	eq
 8000d38:	ea20 70dc 	biceq.w	r0, r0, ip, lsr #31
 8000d3c:	4770      	bx	lr
 8000d3e:	f092 0f00 	teq	r2, #0
 8000d42:	f000 4c00 	and.w	ip, r0, #2147483648	; 0x80000000
 8000d46:	bf02      	ittt	eq
 8000d48:	0040      	lsleq	r0, r0, #1
 8000d4a:	f410 0f00 	tsteq.w	r0, #8388608	; 0x800000
 8000d4e:	3a01      	subeq	r2, #1
 8000d50:	d0f9      	beq.n	8000d46 <__aeabi_fmul+0xce>
 8000d52:	ea40 000c 	orr.w	r0, r0, ip
 8000d56:	f093 0f00 	teq	r3, #0
 8000d5a:	f001 4c00 	and.w	ip, r1, #2147483648	; 0x80000000
 8000d5e:	bf02      	ittt	eq
 8000d60:	0049      	lsleq	r1, r1, #1
 8000d62:	f411 0f00 	tsteq.w	r1, #8388608	; 0x800000
 8000d66:	3b01      	subeq	r3, #1
 8000d68:	d0f9      	beq.n	8000d5e <__aeabi_fmul+0xe6>
 8000d6a:	ea41 010c 	orr.w	r1, r1, ip
 8000d6e:	e78f      	b.n	8000c90 <__aeabi_fmul+0x18>
 8000d70:	ea0c 53d1 	and.w	r3, ip, r1, lsr #23
 8000d74:	ea92 0f0c 	teq	r2, ip
 8000d78:	bf18      	it	ne
 8000d7a:	ea93 0f0c 	teqne	r3, ip
 8000d7e:	d00a      	beq.n	8000d96 <__aeabi_fmul+0x11e>
 8000d80:	f030 4c00 	bics.w	ip, r0, #2147483648	; 0x80000000
 8000d84:	bf18      	it	ne
 8000d86:	f031 4c00 	bicsne.w	ip, r1, #2147483648	; 0x80000000
 8000d8a:	d1d8      	bne.n	8000d3e <__aeabi_fmul+0xc6>
 8000d8c:	ea80 0001 	eor.w	r0, r0, r1
 8000d90:	f000 4000 	and.w	r0, r0, #2147483648	; 0x80000000
 8000d94:	4770      	bx	lr
 8000d96:	f090 0f00 	teq	r0, #0
 8000d9a:	bf17      	itett	ne
 8000d9c:	f090 4f00 	teqne	r0, #2147483648	; 0x80000000
 8000da0:	4608      	moveq	r0, r1
 8000da2:	f091 0f00 	teqne	r1, #0
 8000da6:	f091 4f00 	teqne	r1, #2147483648	; 0x80000000
 8000daa:	d014      	beq.n	8000dd6 <__aeabi_fmul+0x15e>
 8000dac:	ea92 0f0c 	teq	r2, ip
 8000db0:	d101      	bne.n	8000db6 <__aeabi_fmul+0x13e>
 8000db2:	0242      	lsls	r2, r0, #9
 8000db4:	d10f      	bne.n	8000dd6 <__aeabi_fmul+0x15e>
 8000db6:	ea93 0f0c 	teq	r3, ip
 8000dba:	d103      	bne.n	8000dc4 <__aeabi_fmul+0x14c>
 8000dbc:	024b      	lsls	r3, r1, #9
 8000dbe:	bf18      	it	ne
 8000dc0:	4608      	movne	r0, r1
 8000dc2:	d108      	bne.n	8000dd6 <__aeabi_fmul+0x15e>
 8000dc4:	ea80 0001 	eor.w	r0, r0, r1
 8000dc8:	f000 4000 	and.w	r0, r0, #2147483648	; 0x80000000
 8000dcc:	f040 40fe 	orr.w	r0, r0, #2130706432	; 0x7f000000
 8000dd0:	f440 0000 	orr.w	r0, r0, #8388608	; 0x800000
 8000dd4:	4770      	bx	lr
 8000dd6:	f040 40fe 	orr.w	r0, r0, #2130706432	; 0x7f000000
 8000dda:	f440 0040 	orr.w	r0, r0, #12582912	; 0xc00000
 8000dde:	4770      	bx	lr

08000de0 <__aeabi_fdiv>:
 8000de0:	f04f 0cff 	mov.w	ip, #255	; 0xff
 8000de4:	ea1c 52d0 	ands.w	r2, ip, r0, lsr #23
 8000de8:	bf1e      	ittt	ne
 8000dea:	ea1c 53d1 	andsne.w	r3, ip, r1, lsr #23
 8000dee:	ea92 0f0c 	teqne	r2, ip
 8000df2:	ea93 0f0c 	teqne	r3, ip
 8000df6:	d069      	beq.n	8000ecc <__aeabi_fdiv+0xec>
 8000df8:	eba2 0203 	sub.w	r2, r2, r3
 8000dfc:	ea80 0c01 	eor.w	ip, r0, r1
 8000e00:	0249      	lsls	r1, r1, #9
 8000e02:	ea4f 2040 	mov.w	r0, r0, lsl #9
 8000e06:	d037      	beq.n	8000e78 <__aeabi_fdiv+0x98>
 8000e08:	f04f 5380 	mov.w	r3, #268435456	; 0x10000000
 8000e0c:	ea43 1111 	orr.w	r1, r3, r1, lsr #4
 8000e10:	ea43 1310 	orr.w	r3, r3, r0, lsr #4
 8000e14:	f00c 4000 	and.w	r0, ip, #2147483648	; 0x80000000
 8000e18:	428b      	cmp	r3, r1
 8000e1a:	bf38      	it	cc
 8000e1c:	005b      	lslcc	r3, r3, #1
 8000e1e:	f142 027d 	adc.w	r2, r2, #125	; 0x7d
 8000e22:	f44f 0c00 	mov.w	ip, #8388608	; 0x800000
 8000e26:	428b      	cmp	r3, r1
 8000e28:	bf24      	itt	cs
 8000e2a:	1a5b      	subcs	r3, r3, r1
 8000e2c:	ea40 000c 	orrcs.w	r0, r0, ip
 8000e30:	ebb3 0f51 	cmp.w	r3, r1, lsr #1
 8000e34:	bf24      	itt	cs
 8000e36:	eba3 0351 	subcs.w	r3, r3, r1, lsr #1
 8000e3a:	ea40 005c 	orrcs.w	r0, r0, ip, lsr #1
 8000e3e:	ebb3 0f91 	cmp.w	r3, r1, lsr #2
 8000e42:	bf24      	itt	cs
 8000e44:	eba3 0391 	subcs.w	r3, r3, r1, lsr #2
 8000e48:	ea40 009c 	orrcs.w	r0, r0, ip, lsr #2
 8000e4c:	ebb3 0fd1 	cmp.w	r3, r1, lsr #3
 8000e50:	bf24      	itt	cs
 8000e52:	eba3 03d1 	subcs.w	r3, r3, r1, lsr #3
 8000e56:	ea40 00dc 	orrcs.w	r0, r0, ip, lsr #3
 8000e5a:	011b      	lsls	r3, r3, #4
 8000e5c:	bf18      	it	ne
 8000e5e:	ea5f 1c1c 	movsne.w	ip, ip, lsr #4
 8000e62:	d1e0      	bne.n	8000e26 <__aeabi_fdiv+0x46>
 8000e64:	2afd      	cmp	r2, #253	; 0xfd
 8000e66:	f63f af50 	bhi.w	8000d0a <__aeabi_fmul+0x92>
 8000e6a:	428b      	cmp	r3, r1
 8000e6c:	eb40 50c2 	adc.w	r0, r0, r2, lsl #23
 8000e70:	bf08      	it	eq
 8000e72:	f020 0001 	biceq.w	r0, r0, #1
 8000e76:	4770      	bx	lr
 8000e78:	f00c 4c00 	and.w	ip, ip, #2147483648	; 0x80000000
 8000e7c:	ea4c 2050 	orr.w	r0, ip, r0, lsr #9
 8000e80:	327f      	adds	r2, #127	; 0x7f
 8000e82:	bfc2      	ittt	gt
 8000e84:	f1d2 03ff 	rsbsgt	r3, r2, #255	; 0xff
 8000e88:	ea40 50c2 	orrgt.w	r0, r0, r2, lsl #23
 8000e8c:	4770      	bxgt	lr
 8000e8e:	f440 0000 	orr.w	r0, r0, #8388608	; 0x800000
 8000e92:	f04f 0300 	mov.w	r3, #0
 8000e96:	3a01      	subs	r2, #1
 8000e98:	e737      	b.n	8000d0a <__aeabi_fmul+0x92>
 8000e9a:	f092 0f00 	teq	r2, #0
 8000e9e:	f000 4c00 	and.w	ip, r0, #2147483648	; 0x80000000
 8000ea2:	bf02      	ittt	eq
 8000ea4:	0040      	lsleq	r0, r0, #1
 8000ea6:	f410 0f00 	tsteq.w	r0, #8388608	; 0x800000
 8000eaa:	3a01      	subeq	r2, #1
 8000eac:	d0f9      	beq.n	8000ea2 <__aeabi_fdiv+0xc2>
 8000eae:	ea40 000c 	orr.w	r0, r0, ip
 8000eb2:	f093 0f00 	teq	r3, #0
 8000eb6:	f001 4c00 	and.w	ip, r1, #2147483648	; 0x80000000
 8000eba:	bf02      	ittt	eq
 8000ebc:	0049      	lsleq	r1, r1, #1
 8000ebe:	f411 0f00 	tsteq.w	r1, #8388608	; 0x800000
 8000ec2:	3b01      	subeq	r3, #1
 8000ec4:	d0f9      	beq.n	8000eba <__aeabi_fdiv+0xda>
 8000ec6:	ea41 010c 	orr.w	r1, r1, ip
 8000eca:	e795      	b.n	8000df8 <__aeabi_fdiv+0x18>
 8000ecc:	ea0c 53d1 	and.w	r3, ip, r1, lsr #23
 8000ed0:	ea92 0f0c 	teq	r2, ip
 8000ed4:	d108      	bne.n	8000ee8 <__aeabi_fdiv+0x108>
 8000ed6:	0242      	lsls	r2, r0, #9
 8000ed8:	f47f af7d 	bne.w	8000dd6 <__aeabi_fmul+0x15e>
 8000edc:	ea93 0f0c 	teq	r3, ip
 8000ee0:	f47f af70 	bne.w	8000dc4 <__aeabi_fmul+0x14c>
 8000ee4:	4608      	mov	r0, r1
 8000ee6:	e776      	b.n	8000dd6 <__aeabi_fmul+0x15e>
 8000ee8:	ea93 0f0c 	teq	r3, ip
 8000eec:	d104      	bne.n	8000ef8 <__aeabi_fdiv+0x118>
 8000eee:	024b      	lsls	r3, r1, #9
 8000ef0:	f43f af4c 	beq.w	8000d8c <__aeabi_fmul+0x114>
 8000ef4:	4608      	mov	r0, r1
 8000ef6:	e76e      	b.n	8000dd6 <__aeabi_fmul+0x15e>
 8000ef8:	f030 4c00 	bics.w	ip, r0, #2147483648	; 0x80000000
 8000efc:	bf18      	it	ne
 8000efe:	f031 4c00 	bicsne.w	ip, r1, #2147483648	; 0x80000000
 8000f02:	d1ca      	bne.n	8000e9a <__aeabi_fdiv+0xba>
 8000f04:	f030 4200 	bics.w	r2, r0, #2147483648	; 0x80000000
 8000f08:	f47f af5c 	bne.w	8000dc4 <__aeabi_fmul+0x14c>
 8000f0c:	f031 4300 	bics.w	r3, r1, #2147483648	; 0x80000000
 8000f10:	f47f af3c 	bne.w	8000d8c <__aeabi_fmul+0x114>
 8000f14:	e75f      	b.n	8000dd6 <__aeabi_fmul+0x15e>
 8000f16:	bf00      	nop

08000f18 <__gesf2>:
 8000f18:	f04f 3cff 	mov.w	ip, #4294967295
 8000f1c:	e006      	b.n	8000f2c <__cmpsf2+0x4>
 8000f1e:	bf00      	nop

08000f20 <__lesf2>:
 8000f20:	f04f 0c01 	mov.w	ip, #1
 8000f24:	e002      	b.n	8000f2c <__cmpsf2+0x4>
 8000f26:	bf00      	nop

08000f28 <__cmpsf2>:
 8000f28:	f04f 0c01 	mov.w	ip, #1
 8000f2c:	f84d cd04 	str.w	ip, [sp, #-4]!
 8000f30:	ea4f 0240 	mov.w	r2, r0, lsl #1
 8000f34:	ea4f 0341 	mov.w	r3, r1, lsl #1
 8000f38:	ea7f 6c22 	mvns.w	ip, r2, asr #24
 8000f3c:	bf18      	it	ne
 8000f3e:	ea7f 6c23 	mvnsne.w	ip, r3, asr #24
 8000f42:	d011      	beq.n	8000f68 <__cmpsf2+0x40>
 8000f44:	b001      	add	sp, #4
 8000f46:	ea52 0c53 	orrs.w	ip, r2, r3, lsr #1
 8000f4a:	bf18      	it	ne
 8000f4c:	ea90 0f01 	teqne	r0, r1
 8000f50:	bf58      	it	pl
 8000f52:	ebb2 0003 	subspl.w	r0, r2, r3
 8000f56:	bf88      	it	hi
 8000f58:	17c8      	asrhi	r0, r1, #31
 8000f5a:	bf38      	it	cc
 8000f5c:	ea6f 70e1 	mvncc.w	r0, r1, asr #31
 8000f60:	bf18      	it	ne
 8000f62:	f040 0001 	orrne.w	r0, r0, #1
 8000f66:	4770      	bx	lr
 8000f68:	ea7f 6c22 	mvns.w	ip, r2, asr #24
 8000f6c:	d102      	bne.n	8000f74 <__cmpsf2+0x4c>
 8000f6e:	ea5f 2c40 	movs.w	ip, r0, lsl #9
 8000f72:	d105      	bne.n	8000f80 <__cmpsf2+0x58>
 8000f74:	ea7f 6c23 	mvns.w	ip, r3, asr #24
 8000f78:	d1e4      	bne.n	8000f44 <__cmpsf2+0x1c>
 8000f7a:	ea5f 2c41 	movs.w	ip, r1, lsl #9
 8000f7e:	d0e1      	beq.n	8000f44 <__cmpsf2+0x1c>
 8000f80:	f85d 0b04 	ldr.w	r0, [sp], #4
 8000f84:	4770      	bx	lr
 8000f86:	bf00      	nop

08000f88 <__aeabi_cfrcmple>:
 8000f88:	4684      	mov	ip, r0
 8000f8a:	4608      	mov	r0, r1
 8000f8c:	4661      	mov	r1, ip
 8000f8e:	e7ff      	b.n	8000f90 <__aeabi_cfcmpeq>

08000f90 <__aeabi_cfcmpeq>:
 8000f90:	b50f      	push	{r0, r1, r2, r3, lr}
 8000f92:	f7ff ffc9 	bl	8000f28 <__cmpsf2>
 8000f96:	2800      	cmp	r0, #0
 8000f98:	bf48      	it	mi
 8000f9a:	f110 0f00 	cmnmi.w	r0, #0
 8000f9e:	bd0f      	pop	{r0, r1, r2, r3, pc}

08000fa0 <__aeabi_fcmpeq>:
 8000fa0:	f84d ed08 	str.w	lr, [sp, #-8]!
 8000fa4:	f7ff fff4 	bl	8000f90 <__aeabi_cfcmpeq>
 8000fa8:	bf0c      	ite	eq
 8000faa:	2001      	moveq	r0, #1
 8000fac:	2000      	movne	r0, #0
 8000fae:	f85d fb08 	ldr.w	pc, [sp], #8
 8000fb2:	bf00      	nop

08000fb4 <__aeabi_fcmplt>:
 8000fb4:	f84d ed08 	str.w	lr, [sp, #-8]!
 8000fb8:	f7ff ffea 	bl	8000f90 <__aeabi_cfcmpeq>
 8000fbc:	bf34      	ite	cc
 8000fbe:	2001      	movcc	r0, #1
 8000fc0:	2000      	movcs	r0, #0
 8000fc2:	f85d fb08 	ldr.w	pc, [sp], #8
 8000fc6:	bf00      	nop

08000fc8 <__aeabi_fcmple>:
 8000fc8:	f84d ed08 	str.w	lr, [sp, #-8]!
 8000fcc:	f7ff ffe0 	bl	8000f90 <__aeabi_cfcmpeq>
 8000fd0:	bf94      	ite	ls
 8000fd2:	2001      	movls	r0, #1
 8000fd4:	2000      	movhi	r0, #0
 8000fd6:	f85d fb08 	ldr.w	pc, [sp], #8
 8000fda:	bf00      	nop

08000fdc <__aeabi_fcmpge>:
 8000fdc:	f84d ed08 	str.w	lr, [sp, #-8]!
 8000fe0:	f7ff ffd2 	bl	8000f88 <__aeabi_cfrcmple>
 8000fe4:	bf94      	ite	ls
 8000fe6:	2001      	movls	r0, #1
 8000fe8:	2000      	movhi	r0, #0
 8000fea:	f85d fb08 	ldr.w	pc, [sp], #8
 8000fee:	bf00      	nop

08000ff0 <__aeabi_fcmpgt>:
 8000ff0:	f84d ed08 	str.w	lr, [sp, #-8]!
 8000ff4:	f7ff ffc8 	bl	8000f88 <__aeabi_cfrcmple>
 8000ff8:	bf34      	ite	cc
 8000ffa:	2001      	movcc	r0, #1
 8000ffc:	2000      	movcs	r0, #0
 8000ffe:	f85d fb08 	ldr.w	pc, [sp], #8
 8001002:	bf00      	nop

08001004 <__aeabi_f2uiz>:
 8001004:	0042      	lsls	r2, r0, #1
 8001006:	d20e      	bcs.n	8001026 <__aeabi_f2uiz+0x22>
 8001008:	f1b2 4ffe 	cmp.w	r2, #2130706432	; 0x7f000000
 800100c:	d30b      	bcc.n	8001026 <__aeabi_f2uiz+0x22>
 800100e:	f04f 039e 	mov.w	r3, #158	; 0x9e
 8001012:	ebb3 6212 	subs.w	r2, r3, r2, lsr #24
 8001016:	d409      	bmi.n	800102c <__aeabi_f2uiz+0x28>
 8001018:	ea4f 2300 	mov.w	r3, r0, lsl #8
 800101c:	f043 4300 	orr.w	r3, r3, #2147483648	; 0x80000000
 8001020:	fa23 f002 	lsr.w	r0, r3, r2
 8001024:	4770      	bx	lr
 8001026:	f04f 0000 	mov.w	r0, #0
 800102a:	4770      	bx	lr
 800102c:	f112 0f61 	cmn.w	r2, #97	; 0x61
 8001030:	d101      	bne.n	8001036 <__aeabi_f2uiz+0x32>
 8001032:	0242      	lsls	r2, r0, #9
 8001034:	d102      	bne.n	800103c <__aeabi_f2uiz+0x38>
 8001036:	f04f 30ff 	mov.w	r0, #4294967295
 800103a:	4770      	bx	lr
 800103c:	f04f 0000 	mov.w	r0, #0
 8001040:	4770      	bx	lr
 8001042:	bf00      	nop

08001044 <__aeabi_ldivmod>:
 8001044:	b97b      	cbnz	r3, 8001066 <__aeabi_ldivmod+0x22>
 8001046:	b972      	cbnz	r2, 8001066 <__aeabi_ldivmod+0x22>
 8001048:	2900      	cmp	r1, #0
 800104a:	bfbe      	ittt	lt
 800104c:	2000      	movlt	r0, #0
 800104e:	f04f 4100 	movlt.w	r1, #2147483648	; 0x80000000
 8001052:	e006      	blt.n	8001062 <__aeabi_ldivmod+0x1e>
 8001054:	bf08      	it	eq
 8001056:	2800      	cmpeq	r0, #0
 8001058:	bf1c      	itt	ne
 800105a:	f06f 4100 	mvnne.w	r1, #2147483648	; 0x80000000
 800105e:	f04f 30ff 	movne.w	r0, #4294967295
 8001062:	f000 b9a1 	b.w	80013a8 <__aeabi_idiv0>
 8001066:	f1ad 0c08 	sub.w	ip, sp, #8
 800106a:	e96d ce04 	strd	ip, lr, [sp, #-16]!
 800106e:	2900      	cmp	r1, #0
 8001070:	db09      	blt.n	8001086 <__aeabi_ldivmod+0x42>
 8001072:	2b00      	cmp	r3, #0
 8001074:	db1a      	blt.n	80010ac <__aeabi_ldivmod+0x68>
 8001076:	f000 f835 	bl	80010e4 <__udivmoddi4>
 800107a:	f8dd e004 	ldr.w	lr, [sp, #4]
 800107e:	e9dd 2302 	ldrd	r2, r3, [sp, #8]
 8001082:	b004      	add	sp, #16
 8001084:	4770      	bx	lr
 8001086:	4240      	negs	r0, r0
 8001088:	eb61 0141 	sbc.w	r1, r1, r1, lsl #1
 800108c:	2b00      	cmp	r3, #0
 800108e:	db1b      	blt.n	80010c8 <__aeabi_ldivmod+0x84>
 8001090:	f000 f828 	bl	80010e4 <__udivmoddi4>
 8001094:	f8dd e004 	ldr.w	lr, [sp, #4]
 8001098:	e9dd 2302 	ldrd	r2, r3, [sp, #8]
 800109c:	b004      	add	sp, #16
 800109e:	4240      	negs	r0, r0
 80010a0:	eb61 0141 	sbc.w	r1, r1, r1, lsl #1
 80010a4:	4252      	negs	r2, r2
 80010a6:	eb63 0343 	sbc.w	r3, r3, r3, lsl #1
 80010aa:	4770      	bx	lr
 80010ac:	4252      	negs	r2, r2
 80010ae:	eb63 0343 	sbc.w	r3, r3, r3, lsl #1
 80010b2:	f000 f817 	bl	80010e4 <__udivmoddi4>
 80010b6:	f8dd e004 	ldr.w	lr, [sp, #4]
 80010ba:	e9dd 2302 	ldrd	r2, r3, [sp, #8]
 80010be:	b004      	add	sp, #16
 80010c0:	4240      	negs	r0, r0
 80010c2:	eb61 0141 	sbc.w	r1, r1, r1, lsl #1
 80010c6:	4770      	bx	lr
 80010c8:	4252      	negs	r2, r2
 80010ca:	eb63 0343 	sbc.w	r3, r3, r3, lsl #1
 80010ce:	f000 f809 	bl	80010e4 <__udivmoddi4>
 80010d2:	f8dd e004 	ldr.w	lr, [sp, #4]
 80010d6:	e9dd 2302 	ldrd	r2, r3, [sp, #8]
 80010da:	b004      	add	sp, #16
 80010dc:	4252      	negs	r2, r2
 80010de:	eb63 0343 	sbc.w	r3, r3, r3, lsl #1
 80010e2:	4770      	bx	lr

080010e4 <__udivmoddi4>:
 80010e4:	e92d 47f0 	stmdb	sp!, {r4, r5, r6, r7, r8, r9, sl, lr}
 80010e8:	9e08      	ldr	r6, [sp, #32]
 80010ea:	460d      	mov	r5, r1
 80010ec:	4604      	mov	r4, r0
 80010ee:	468e      	mov	lr, r1
 80010f0:	2b00      	cmp	r3, #0
 80010f2:	f040 8083 	bne.w	80011fc <__udivmoddi4+0x118>
 80010f6:	428a      	cmp	r2, r1
 80010f8:	4617      	mov	r7, r2
 80010fa:	d947      	bls.n	800118c <__udivmoddi4+0xa8>
 80010fc:	fab2 f382 	clz	r3, r2
 8001100:	b14b      	cbz	r3, 8001116 <__udivmoddi4+0x32>
 8001102:	f1c3 0120 	rsb	r1, r3, #32
 8001106:	fa05 fe03 	lsl.w	lr, r5, r3
 800110a:	fa20 f101 	lsr.w	r1, r0, r1
 800110e:	409f      	lsls	r7, r3
 8001110:	ea41 0e0e 	orr.w	lr, r1, lr
 8001114:	409c      	lsls	r4, r3
 8001116:	ea4f 4817 	mov.w	r8, r7, lsr #16
 800111a:	fbbe fcf8 	udiv	ip, lr, r8
 800111e:	fa1f f987 	uxth.w	r9, r7
 8001122:	fb08 e21c 	mls	r2, r8, ip, lr
 8001126:	fb0c f009 	mul.w	r0, ip, r9
 800112a:	0c21      	lsrs	r1, r4, #16
 800112c:	ea41 4202 	orr.w	r2, r1, r2, lsl #16
 8001130:	4290      	cmp	r0, r2
 8001132:	d90a      	bls.n	800114a <__udivmoddi4+0x66>
 8001134:	18ba      	adds	r2, r7, r2
 8001136:	f10c 31ff 	add.w	r1, ip, #4294967295
 800113a:	f080 8118 	bcs.w	800136e <__udivmoddi4+0x28a>
 800113e:	4290      	cmp	r0, r2
 8001140:	f240 8115 	bls.w	800136e <__udivmoddi4+0x28a>
 8001144:	f1ac 0c02 	sub.w	ip, ip, #2
 8001148:	443a      	add	r2, r7
 800114a:	1a12      	subs	r2, r2, r0
 800114c:	fbb2 f0f8 	udiv	r0, r2, r8
 8001150:	fb08 2210 	mls	r2, r8, r0, r2
 8001154:	fb00 f109 	mul.w	r1, r0, r9
 8001158:	b2a4      	uxth	r4, r4
 800115a:	ea44 4402 	orr.w	r4, r4, r2, lsl #16
 800115e:	42a1      	cmp	r1, r4
 8001160:	d909      	bls.n	8001176 <__udivmoddi4+0x92>
 8001162:	193c      	adds	r4, r7, r4
 8001164:	f100 32ff 	add.w	r2, r0, #4294967295
 8001168:	f080 8103 	bcs.w	8001372 <__udivmoddi4+0x28e>
 800116c:	42a1      	cmp	r1, r4
 800116e:	f240 8100 	bls.w	8001372 <__udivmoddi4+0x28e>
 8001172:	3802      	subs	r0, #2
 8001174:	443c      	add	r4, r7
 8001176:	1a64      	subs	r4, r4, r1
 8001178:	2100      	movs	r1, #0
 800117a:	ea40 400c 	orr.w	r0, r0, ip, lsl #16
 800117e:	b11e      	cbz	r6, 8001188 <__udivmoddi4+0xa4>
 8001180:	2200      	movs	r2, #0
 8001182:	40dc      	lsrs	r4, r3
 8001184:	e9c6 4200 	strd	r4, r2, [r6]
 8001188:	e8bd 87f0 	ldmia.w	sp!, {r4, r5, r6, r7, r8, r9, sl, pc}
 800118c:	b902      	cbnz	r2, 8001190 <__udivmoddi4+0xac>
 800118e:	deff      	udf	#255	; 0xff
 8001190:	fab2 f382 	clz	r3, r2
 8001194:	2b00      	cmp	r3, #0
 8001196:	d14f      	bne.n	8001238 <__udivmoddi4+0x154>
 8001198:	1a8d      	subs	r5, r1, r2
 800119a:	2101      	movs	r1, #1
 800119c:	ea4f 4e12 	mov.w	lr, r2, lsr #16
 80011a0:	fa1f f882 	uxth.w	r8, r2
 80011a4:	fbb5 fcfe 	udiv	ip, r5, lr
 80011a8:	fb0e 551c 	mls	r5, lr, ip, r5
 80011ac:	fb08 f00c 	mul.w	r0, r8, ip
 80011b0:	0c22      	lsrs	r2, r4, #16
 80011b2:	ea42 4505 	orr.w	r5, r2, r5, lsl #16
 80011b6:	42a8      	cmp	r0, r5
 80011b8:	d907      	bls.n	80011ca <__udivmoddi4+0xe6>
 80011ba:	197d      	adds	r5, r7, r5
 80011bc:	f10c 32ff 	add.w	r2, ip, #4294967295
 80011c0:	d202      	bcs.n	80011c8 <__udivmoddi4+0xe4>
 80011c2:	42a8      	cmp	r0, r5
 80011c4:	f200 80e9 	bhi.w	800139a <__udivmoddi4+0x2b6>
 80011c8:	4694      	mov	ip, r2
 80011ca:	1a2d      	subs	r5, r5, r0
 80011cc:	fbb5 f0fe 	udiv	r0, r5, lr
 80011d0:	fb0e 5510 	mls	r5, lr, r0, r5
 80011d4:	fb08 f800 	mul.w	r8, r8, r0
 80011d8:	b2a4      	uxth	r4, r4
 80011da:	ea44 4405 	orr.w	r4, r4, r5, lsl #16
 80011de:	45a0      	cmp	r8, r4
 80011e0:	d907      	bls.n	80011f2 <__udivmoddi4+0x10e>
 80011e2:	193c      	adds	r4, r7, r4
 80011e4:	f100 32ff 	add.w	r2, r0, #4294967295
 80011e8:	d202      	bcs.n	80011f0 <__udivmoddi4+0x10c>
 80011ea:	45a0      	cmp	r8, r4
 80011ec:	f200 80d9 	bhi.w	80013a2 <__udivmoddi4+0x2be>
 80011f0:	4610      	mov	r0, r2
 80011f2:	eba4 0408 	sub.w	r4, r4, r8
 80011f6:	ea40 400c 	orr.w	r0, r0, ip, lsl #16
 80011fa:	e7c0      	b.n	800117e <__udivmoddi4+0x9a>
 80011fc:	428b      	cmp	r3, r1
 80011fe:	d908      	bls.n	8001212 <__udivmoddi4+0x12e>
 8001200:	2e00      	cmp	r6, #0
 8001202:	f000 80b1 	beq.w	8001368 <__udivmoddi4+0x284>
 8001206:	2100      	movs	r1, #0
 8001208:	e9c6 0500 	strd	r0, r5, [r6]
 800120c:	4608      	mov	r0, r1
 800120e:	e8bd 87f0 	ldmia.w	sp!, {r4, r5, r6, r7, r8, r9, sl, pc}
 8001212:	fab3 f183 	clz	r1, r3
 8001216:	2900      	cmp	r1, #0
 8001218:	d14b      	bne.n	80012b2 <__udivmoddi4+0x1ce>
 800121a:	42ab      	cmp	r3, r5
 800121c:	d302      	bcc.n	8001224 <__udivmoddi4+0x140>
 800121e:	4282      	cmp	r2, r0
 8001220:	f200 80b9 	bhi.w	8001396 <__udivmoddi4+0x2b2>
 8001224:	1a84      	subs	r4, r0, r2
 8001226:	eb65 0303 	sbc.w	r3, r5, r3
 800122a:	2001      	movs	r0, #1
 800122c:	469e      	mov	lr, r3
 800122e:	2e00      	cmp	r6, #0
 8001230:	d0aa      	beq.n	8001188 <__udivmoddi4+0xa4>
 8001232:	e9c6 4e00 	strd	r4, lr, [r6]
 8001236:	e7a7      	b.n	8001188 <__udivmoddi4+0xa4>
 8001238:	409f      	lsls	r7, r3
 800123a:	f1c3 0220 	rsb	r2, r3, #32
 800123e:	40d1      	lsrs	r1, r2
 8001240:	ea4f 4e17 	mov.w	lr, r7, lsr #16
 8001244:	fbb1 f0fe 	udiv	r0, r1, lr
 8001248:	fa1f f887 	uxth.w	r8, r7
 800124c:	fb0e 1110 	mls	r1, lr, r0, r1
 8001250:	fa24 f202 	lsr.w	r2, r4, r2
 8001254:	409d      	lsls	r5, r3
 8001256:	fb00 fc08 	mul.w	ip, r0, r8
 800125a:	432a      	orrs	r2, r5
 800125c:	0c15      	lsrs	r5, r2, #16
 800125e:	ea45 4501 	orr.w	r5, r5, r1, lsl #16
 8001262:	45ac      	cmp	ip, r5
 8001264:	fa04 f403 	lsl.w	r4, r4, r3
 8001268:	d909      	bls.n	800127e <__udivmoddi4+0x19a>
 800126a:	197d      	adds	r5, r7, r5
 800126c:	f100 31ff 	add.w	r1, r0, #4294967295
 8001270:	f080 808f 	bcs.w	8001392 <__udivmoddi4+0x2ae>
 8001274:	45ac      	cmp	ip, r5
 8001276:	f240 808c 	bls.w	8001392 <__udivmoddi4+0x2ae>
 800127a:	3802      	subs	r0, #2
 800127c:	443d      	add	r5, r7
 800127e:	eba5 050c 	sub.w	r5, r5, ip
 8001282:	fbb5 f1fe 	udiv	r1, r5, lr
 8001286:	fb0e 5c11 	mls	ip, lr, r1, r5
 800128a:	fb01 f908 	mul.w	r9, r1, r8
 800128e:	b295      	uxth	r5, r2
 8001290:	ea45 450c 	orr.w	r5, r5, ip, lsl #16
 8001294:	45a9      	cmp	r9, r5
 8001296:	d907      	bls.n	80012a8 <__udivmoddi4+0x1c4>
 8001298:	197d      	adds	r5, r7, r5
 800129a:	f101 32ff 	add.w	r2, r1, #4294967295
 800129e:	d274      	bcs.n	800138a <__udivmoddi4+0x2a6>
 80012a0:	45a9      	cmp	r9, r5
 80012a2:	d972      	bls.n	800138a <__udivmoddi4+0x2a6>
 80012a4:	3902      	subs	r1, #2
 80012a6:	443d      	add	r5, r7
 80012a8:	eba5 0509 	sub.w	r5, r5, r9
 80012ac:	ea41 4100 	orr.w	r1, r1, r0, lsl #16
 80012b0:	e778      	b.n	80011a4 <__udivmoddi4+0xc0>
 80012b2:	f1c1 0720 	rsb	r7, r1, #32
 80012b6:	408b      	lsls	r3, r1
 80012b8:	fa22 fc07 	lsr.w	ip, r2, r7
 80012bc:	ea4c 0c03 	orr.w	ip, ip, r3
 80012c0:	fa25 f407 	lsr.w	r4, r5, r7
 80012c4:	ea4f 4e1c 	mov.w	lr, ip, lsr #16
 80012c8:	fbb4 f9fe 	udiv	r9, r4, lr
 80012cc:	fa1f f88c 	uxth.w	r8, ip
 80012d0:	fb0e 4419 	mls	r4, lr, r9, r4
 80012d4:	fa20 f307 	lsr.w	r3, r0, r7
 80012d8:	fb09 fa08 	mul.w	sl, r9, r8
 80012dc:	408d      	lsls	r5, r1
 80012de:	431d      	orrs	r5, r3
 80012e0:	0c2b      	lsrs	r3, r5, #16
 80012e2:	ea43 4404 	orr.w	r4, r3, r4, lsl #16
 80012e6:	45a2      	cmp	sl, r4
 80012e8:	fa02 f201 	lsl.w	r2, r2, r1
 80012ec:	fa00 f301 	lsl.w	r3, r0, r1
 80012f0:	d909      	bls.n	8001306 <__udivmoddi4+0x222>
 80012f2:	eb1c 0404 	adds.w	r4, ip, r4
 80012f6:	f109 30ff 	add.w	r0, r9, #4294967295
 80012fa:	d248      	bcs.n	800138e <__udivmoddi4+0x2aa>
 80012fc:	45a2      	cmp	sl, r4
 80012fe:	d946      	bls.n	800138e <__udivmoddi4+0x2aa>
 8001300:	f1a9 0902 	sub.w	r9, r9, #2
 8001304:	4464      	add	r4, ip
 8001306:	eba4 040a 	sub.w	r4, r4, sl
 800130a:	fbb4 f0fe 	udiv	r0, r4, lr
 800130e:	fb0e 4410 	mls	r4, lr, r0, r4
 8001312:	fb00 fa08 	mul.w	sl, r0, r8
 8001316:	b2ad      	uxth	r5, r5
 8001318:	ea45 4404 	orr.w	r4, r5, r4, lsl #16
 800131c:	45a2      	cmp	sl, r4
 800131e:	d908      	bls.n	8001332 <__udivmoddi4+0x24e>
 8001320:	eb1c 0404 	adds.w	r4, ip, r4
 8001324:	f100 35ff 	add.w	r5, r0, #4294967295
 8001328:	d22d      	bcs.n	8001386 <__udivmoddi4+0x2a2>
 800132a:	45a2      	cmp	sl, r4
 800132c:	d92b      	bls.n	8001386 <__udivmoddi4+0x2a2>
 800132e:	3802      	subs	r0, #2
 8001330:	4464      	add	r4, ip
 8001332:	ea40 4009 	orr.w	r0, r0, r9, lsl #16
 8001336:	fba0 8902 	umull	r8, r9, r0, r2
 800133a:	eba4 040a 	sub.w	r4, r4, sl
 800133e:	454c      	cmp	r4, r9
 8001340:	46c6      	mov	lr, r8
 8001342:	464d      	mov	r5, r9
 8001344:	d319      	bcc.n	800137a <__udivmoddi4+0x296>
 8001346:	d016      	beq.n	8001376 <__udivmoddi4+0x292>
 8001348:	b15e      	cbz	r6, 8001362 <__udivmoddi4+0x27e>
 800134a:	ebb3 020e 	subs.w	r2, r3, lr
 800134e:	eb64 0405 	sbc.w	r4, r4, r5
 8001352:	fa04 f707 	lsl.w	r7, r4, r7
 8001356:	fa22 f301 	lsr.w	r3, r2, r1
 800135a:	431f      	orrs	r7, r3
 800135c:	40cc      	lsrs	r4, r1
 800135e:	e9c6 7400 	strd	r7, r4, [r6]
 8001362:	2100      	movs	r1, #0
 8001364:	e8bd 87f0 	ldmia.w	sp!, {r4, r5, r6, r7, r8, r9, sl, pc}
 8001368:	4631      	mov	r1, r6
 800136a:	4630      	mov	r0, r6
 800136c:	e70c      	b.n	8001188 <__udivmoddi4+0xa4>
 800136e:	468c      	mov	ip, r1
 8001370:	e6eb      	b.n	800114a <__udivmoddi4+0x66>
 8001372:	4610      	mov	r0, r2
 8001374:	e6ff      	b.n	8001176 <__udivmoddi4+0x92>
 8001376:	4543      	cmp	r3, r8
 8001378:	d2e6      	bcs.n	8001348 <__udivmoddi4+0x264>
 800137a:	ebb8 0e02 	subs.w	lr, r8, r2
 800137e:	eb69 050c 	sbc.w	r5, r9, ip
 8001382:	3801      	subs	r0, #1
 8001384:	e7e0      	b.n	8001348 <__udivmoddi4+0x264>
 8001386:	4628      	mov	r0, r5
 8001388:	e7d3      	b.n	8001332 <__udivmoddi4+0x24e>
 800138a:	4611      	mov	r1, r2
 800138c:	e78c      	b.n	80012a8 <__udivmoddi4+0x1c4>
 800138e:	4681      	mov	r9, r0
 8001390:	e7b9      	b.n	8001306 <__udivmoddi4+0x222>
 8001392:	4608      	mov	r0, r1
 8001394:	e773      	b.n	800127e <__udivmoddi4+0x19a>
 8001396:	4608      	mov	r0, r1
 8001398:	e749      	b.n	800122e <__udivmoddi4+0x14a>
 800139a:	f1ac 0c02 	sub.w	ip, ip, #2
 800139e:	443d      	add	r5, r7
 80013a0:	e713      	b.n	80011ca <__udivmoddi4+0xe6>
 80013a2:	3802      	subs	r0, #2
 80013a4:	443c      	add	r4, r7
 80013a6:	e724      	b.n	80011f2 <__udivmoddi4+0x10e>

080013a8 <__aeabi_idiv0>:
 80013a8:	4770      	bx	lr
 80013aa:	bf00      	nop
 80013ac:	0000      	movs	r0, r0
	...

080013b0 <processBattery>:
#include "radio.h"
#include "batt.h"
#include "config.h"

int processBattery(struct rscode_driver *rsDriver,ADC_HandleTypeDef* hadc)
{
 80013b0:	b590      	push	{r4, r7, lr}
 80013b2:	b09b      	sub	sp, #108	; 0x6c
 80013b4:	af00      	add	r7, sp, #0
 80013b6:	6078      	str	r0, [r7, #4]
 80013b8:	6039      	str	r1, [r7, #0]
	HAL_StatusTypeDef HAL_Status;
	int status   = 1;
 80013ba:	2301      	movs	r3, #1
 80013bc:	667b      	str	r3, [r7, #100]	; 0x64
	uint16_t len = 0;
 80013be:	2300      	movs	r3, #0
 80013c0:	f8a7 3062 	strh.w	r3, [r7, #98]	; 0x62

	struct HABPacketBattInfoDataType HABPacketBattInfoData;

	//2032 = 3v
	//1785 = 2.7
	memset(&HABPacketBattInfoData, '\0', sizeof(HABPacketBattInfoData));
 80013c4:	f107 0308 	add.w	r3, r7, #8
 80013c8:	2210      	movs	r2, #16
 80013ca:	2100      	movs	r1, #0
 80013cc:	4618      	mov	r0, r3
 80013ce:	f007 f8eb 	bl	80085a8 <memset>

	HAL_ADC_Start(hadc);
 80013d2:	6838      	ldr	r0, [r7, #0]
 80013d4:	f004 f94e 	bl	8005674 <HAL_ADC_Start>
	HAL_Status = HAL_ADC_PollForConversion(hadc,100);
 80013d8:	2164      	movs	r1, #100	; 0x64
 80013da:	6838      	ldr	r0, [r7, #0]
 80013dc:	f004 f9ea 	bl	80057b4 <HAL_ADC_PollForConversion>
 80013e0:	4603      	mov	r3, r0
 80013e2:	f887 3061 	strb.w	r3, [r7, #97]	; 0x61
	if(HAL_Status == HAL_OK)
 80013e6:	f897 3061 	ldrb.w	r3, [r7, #97]	; 0x61
 80013ea:	2b00      	cmp	r3, #0
 80013ec:	d14f      	bne.n	800148e <processBattery+0xde>
	{
	  adcVal = HAL_ADC_GetValue(hadc);
 80013ee:	6838      	ldr	r0, [r7, #0]
 80013f0:	f004 fae6 	bl	80059c0 <HAL_ADC_GetValue>
 80013f4:	65f8      	str	r0, [r7, #92]	; 0x5c
	  HAL_ADC_Stop(hadc);
 80013f6:	6838      	ldr	r0, [r7, #0]
 80013f8:	f004 f9b0 	bl	800575c <HAL_ADC_Stop>
	  adcValFloat = (float)adcVal / 4095 * 2 * 3.3 * 1.1;
 80013fc:	6df8      	ldr	r0, [r7, #92]	; 0x5c
 80013fe:	f7ff fbe3 	bl	8000bc8 <__aeabi_ui2f>
 8001402:	4603      	mov	r3, r0
 8001404:	4940      	ldr	r1, [pc, #256]	; (8001508 <processBattery+0x158>)
 8001406:	4618      	mov	r0, r3
 8001408:	f7ff fcea 	bl	8000de0 <__aeabi_fdiv>
 800140c:	4603      	mov	r3, r0
 800140e:	4619      	mov	r1, r3
 8001410:	4618      	mov	r0, r3
 8001412:	f7ff fb29 	bl	8000a68 <__addsf3>
 8001416:	4603      	mov	r3, r0
 8001418:	4618      	mov	r0, r3
 800141a:	f7ff f865 	bl	80004e8 <__aeabi_f2d>
 800141e:	a336      	add	r3, pc, #216	; (adr r3, 80014f8 <processBattery+0x148>)
 8001420:	e9d3 2300 	ldrd	r2, r3, [r3]
 8001424:	f7ff f8b8 	bl	8000598 <__aeabi_dmul>
 8001428:	4602      	mov	r2, r0
 800142a:	460b      	mov	r3, r1
 800142c:	4610      	mov	r0, r2
 800142e:	4619      	mov	r1, r3
 8001430:	a333      	add	r3, pc, #204	; (adr r3, 8001500 <processBattery+0x150>)
 8001432:	e9d3 2300 	ldrd	r2, r3, [r3]
 8001436:	f7ff f8af 	bl	8000598 <__aeabi_dmul>
 800143a:	4602      	mov	r2, r0
 800143c:	460b      	mov	r3, r1
 800143e:	4610      	mov	r0, r2
 8001440:	4619      	mov	r1, r3
 8001442:	f7ff fabb 	bl	80009bc <__aeabi_d2f>
 8001446:	4603      	mov	r3, r0
 8001448:	65bb      	str	r3, [r7, #88]	; 0x58
	  adcValFloat = adcValFloat - ADC_BAT_CAL;
 800144a:	4930      	ldr	r1, [pc, #192]	; (800150c <processBattery+0x15c>)
 800144c:	6db8      	ldr	r0, [r7, #88]	; 0x58
 800144e:	f7ff fb09 	bl	8000a64 <__aeabi_fsub>
 8001452:	4603      	mov	r3, r0
 8001454:	65bb      	str	r3, [r7, #88]	; 0x58
	  HABPacketBattInfoData.battInfoData = round(adcValFloat*10)/10;
 8001456:	492e      	ldr	r1, [pc, #184]	; (8001510 <processBattery+0x160>)
 8001458:	6db8      	ldr	r0, [r7, #88]	; 0x58
 800145a:	f7ff fc0d 	bl	8000c78 <__aeabi_fmul>
 800145e:	4603      	mov	r3, r0
 8001460:	4618      	mov	r0, r3
 8001462:	f7ff f841 	bl	80004e8 <__aeabi_f2d>
 8001466:	4602      	mov	r2, r0
 8001468:	460b      	mov	r3, r1
 800146a:	4610      	mov	r0, r2
 800146c:	4619      	mov	r1, r3
 800146e:	f007 f8b5 	bl	80085dc <round>
 8001472:	f04f 0200 	mov.w	r2, #0
 8001476:	4b27      	ldr	r3, [pc, #156]	; (8001514 <processBattery+0x164>)
 8001478:	f7ff f9b8 	bl	80007ec <__aeabi_ddiv>
 800147c:	4602      	mov	r2, r0
 800147e:	460b      	mov	r3, r1
 8001480:	4610      	mov	r0, r2
 8001482:	4619      	mov	r1, r3
 8001484:	f7ff fa9a 	bl	80009bc <__aeabi_d2f>
 8001488:	4603      	mov	r3, r0
 800148a:	f8c7 300a 	str.w	r3, [r7, #10]
	  //HABPacketBattInfoData.battInfoData = round(adcValTemp * 10000.0)/10000.0;
	}

	HABPacketBattInfoData.packetType  = BATT_INFO;
 800148e:	2388      	movs	r3, #136	; 0x88
 8001490:	813b      	strh	r3, [r7, #8]
	len = sizeof(HABPacketBattInfoData)-sizeof(HABPacketBattInfoData.crc16)-NPAR;
 8001492:	2306      	movs	r3, #6
 8001494:	f8a7 3062 	strh.w	r3, [r7, #98]	; 0x62
	HABPacketBattInfoData.crc16 = crc_16((unsigned char *)&HABPacketBattInfoData,len);
 8001498:	f8b7 2062 	ldrh.w	r2, [r7, #98]	; 0x62
 800149c:	f107 0308 	add.w	r3, r7, #8
 80014a0:	4611      	mov	r1, r2
 80014a2:	4618      	mov	r0, r3
 80014a4:	f001 fdcc 	bl	8003040 <crc_16>
 80014a8:	4603      	mov	r3, r0
 80014aa:	81fb      	strh	r3, [r7, #14]
	rscode_encode(rsDriver, (unsigned char *)&HABPacketBattInfoData, sizeof(HABPacketBattInfoData)-NPAR, (unsigned char *)&HABPacketBattInfoData);
 80014ac:	f107 0308 	add.w	r3, r7, #8
 80014b0:	f107 0108 	add.w	r1, r7, #8
 80014b4:	2208      	movs	r2, #8
 80014b6:	6878      	ldr	r0, [r7, #4]
 80014b8:	f002 f872 	bl	80035a0 <rscode_encode>
	memcpy(txBuf,&HABPacketBattInfoData,sizeof(HABPacketBattInfoData));
 80014bc:	f107 0418 	add.w	r4, r7, #24
 80014c0:	f107 0308 	add.w	r3, r7, #8
 80014c4:	cb0f      	ldmia	r3, {r0, r1, r2, r3}
 80014c6:	e884 000f 	stmia.w	r4, {r0, r1, r2, r3}
	HAL_Status =  radioTxData(txBuf,sizeof(HABPacketBattInfoData));
 80014ca:	f107 0318 	add.w	r3, r7, #24
 80014ce:	2110      	movs	r1, #16
 80014d0:	4618      	mov	r0, r3
 80014d2:	f003 fa99 	bl	8004a08 <radioTxData>
 80014d6:	4603      	mov	r3, r0
 80014d8:	f887 3061 	strb.w	r3, [r7, #97]	; 0x61
	HAL_Delay(PROTOCOL_DELAY);
 80014dc:	2064      	movs	r0, #100	; 0x64
 80014de:	f003 ffcd 	bl	800547c <HAL_Delay>
	if(HAL_Status != HAL_OK)
 80014e2:	f897 3061 	ldrb.w	r3, [r7, #97]	; 0x61
 80014e6:	2b00      	cmp	r3, #0
 80014e8:	d001      	beq.n	80014ee <processBattery+0x13e>
	{
	status = 0;
 80014ea:	2300      	movs	r3, #0
 80014ec:	667b      	str	r3, [r7, #100]	; 0x64
	}

	  return status;
 80014ee:	6e7b      	ldr	r3, [r7, #100]	; 0x64
}
 80014f0:	4618      	mov	r0, r3
 80014f2:	376c      	adds	r7, #108	; 0x6c
 80014f4:	46bd      	mov	sp, r7
 80014f6:	bd90      	pop	{r4, r7, pc}
 80014f8:	66666666 	.word	0x66666666
 80014fc:	400a6666 	.word	0x400a6666
 8001500:	9999999a 	.word	0x9999999a
 8001504:	3ff19999 	.word	0x3ff19999
 8001508:	457ff000 	.word	0x457ff000
 800150c:	3ef5c28f 	.word	0x3ef5c28f
 8001510:	41200000 	.word	0x41200000
 8001514:	40240000 	.word	0x40240000

08001518 <copy_poly>:
  int i;
  for (i = 0; i < MAXDEG; i++) dst[i] ^= src[i];
}

void copy_poly (__attribute__((unused)) struct rscode_driver * driver, int dst[], int src[]) 
{
 8001518:	b480      	push	{r7}
 800151a:	b087      	sub	sp, #28
 800151c:	af00      	add	r7, sp, #0
 800151e:	60f8      	str	r0, [r7, #12]
 8001520:	60b9      	str	r1, [r7, #8]
 8001522:	607a      	str	r2, [r7, #4]
  int i;
  for (i = 0; i < MAXDEG; i++) dst[i] = src[i];
 8001524:	2300      	movs	r3, #0
 8001526:	617b      	str	r3, [r7, #20]
 8001528:	e00c      	b.n	8001544 <copy_poly+0x2c>
 800152a:	697b      	ldr	r3, [r7, #20]
 800152c:	009b      	lsls	r3, r3, #2
 800152e:	687a      	ldr	r2, [r7, #4]
 8001530:	441a      	add	r2, r3
 8001532:	697b      	ldr	r3, [r7, #20]
 8001534:	009b      	lsls	r3, r3, #2
 8001536:	68b9      	ldr	r1, [r7, #8]
 8001538:	440b      	add	r3, r1
 800153a:	6812      	ldr	r2, [r2, #0]
 800153c:	601a      	str	r2, [r3, #0]
 800153e:	697b      	ldr	r3, [r7, #20]
 8001540:	3301      	adds	r3, #1
 8001542:	617b      	str	r3, [r7, #20]
 8001544:	697b      	ldr	r3, [r7, #20]
 8001546:	2b0f      	cmp	r3, #15
 8001548:	ddef      	ble.n	800152a <copy_poly+0x12>
}
 800154a:	bf00      	nop
 800154c:	bf00      	nop
 800154e:	371c      	adds	r7, #28
 8001550:	46bd      	mov	sp, r7
 8001552:	bc80      	pop	{r7}
 8001554:	4770      	bx	lr

08001556 <zero_poly>:
  for (i = 0; i < MAXDEG; i++) poly[i] = gmult(driver, k, poly[i]);
}


void zero_poly (__attribute__((unused)) struct rscode_driver * driver, int poly[]) 
{
 8001556:	b480      	push	{r7}
 8001558:	b085      	sub	sp, #20
 800155a:	af00      	add	r7, sp, #0
 800155c:	6078      	str	r0, [r7, #4]
 800155e:	6039      	str	r1, [r7, #0]
  int i;
  for (i = 0; i < MAXDEG; i++) poly[i] = 0;
 8001560:	2300      	movs	r3, #0
 8001562:	60fb      	str	r3, [r7, #12]
 8001564:	e008      	b.n	8001578 <zero_poly+0x22>
 8001566:	68fb      	ldr	r3, [r7, #12]
 8001568:	009b      	lsls	r3, r3, #2
 800156a:	683a      	ldr	r2, [r7, #0]
 800156c:	4413      	add	r3, r2
 800156e:	2200      	movs	r2, #0
 8001570:	601a      	str	r2, [r3, #0]
 8001572:	68fb      	ldr	r3, [r7, #12]
 8001574:	3301      	adds	r3, #1
 8001576:	60fb      	str	r3, [r7, #12]
 8001578:	68fb      	ldr	r3, [r7, #12]
 800157a:	2b0f      	cmp	r3, #15
 800157c:	ddf3      	ble.n	8001566 <zero_poly+0x10>
}
 800157e:	bf00      	nop
 8001580:	bf00      	nop
 8001582:	3714      	adds	r7, #20
 8001584:	46bd      	mov	sp, r7
 8001586:	bc80      	pop	{r7}
 8001588:	4770      	bx	lr

0800158a <mult_polys>:
}

/* polynomial multiplication */
void
mult_polys (struct rscode_driver * driver, int dst[], int p1[], int p2[])
{
 800158a:	b580      	push	{r7, lr}
 800158c:	b0a6      	sub	sp, #152	; 0x98
 800158e:	af00      	add	r7, sp, #0
 8001590:	60f8      	str	r0, [r7, #12]
 8001592:	60b9      	str	r1, [r7, #8]
 8001594:	607a      	str	r2, [r7, #4]
 8001596:	603b      	str	r3, [r7, #0]
  int i, j;
  int tmp1[MAXDEG*2];
  
  for (i=0; i < (MAXDEG*2); i++) dst[i] = 0;
 8001598:	2300      	movs	r3, #0
 800159a:	f8c7 3094 	str.w	r3, [r7, #148]	; 0x94
 800159e:	e00b      	b.n	80015b8 <mult_polys+0x2e>
 80015a0:	f8d7 3094 	ldr.w	r3, [r7, #148]	; 0x94
 80015a4:	009b      	lsls	r3, r3, #2
 80015a6:	68ba      	ldr	r2, [r7, #8]
 80015a8:	4413      	add	r3, r2
 80015aa:	2200      	movs	r2, #0
 80015ac:	601a      	str	r2, [r3, #0]
 80015ae:	f8d7 3094 	ldr.w	r3, [r7, #148]	; 0x94
 80015b2:	3301      	adds	r3, #1
 80015b4:	f8c7 3094 	str.w	r3, [r7, #148]	; 0x94
 80015b8:	f8d7 3094 	ldr.w	r3, [r7, #148]	; 0x94
 80015bc:	2b1f      	cmp	r3, #31
 80015be:	ddef      	ble.n	80015a0 <mult_polys+0x16>
  
  for (i = 0; i < MAXDEG; i++) {
 80015c0:	2300      	movs	r3, #0
 80015c2:	f8c7 3094 	str.w	r3, [r7, #148]	; 0x94
 80015c6:	e09c      	b.n	8001702 <mult_polys+0x178>
    for(j=MAXDEG; j<(MAXDEG*2); j++) tmp1[j]=0;
 80015c8:	2310      	movs	r3, #16
 80015ca:	f8c7 3090 	str.w	r3, [r7, #144]	; 0x90
 80015ce:	e00d      	b.n	80015ec <mult_polys+0x62>
 80015d0:	f8d7 3090 	ldr.w	r3, [r7, #144]	; 0x90
 80015d4:	009b      	lsls	r3, r3, #2
 80015d6:	f107 0298 	add.w	r2, r7, #152	; 0x98
 80015da:	4413      	add	r3, r2
 80015dc:	2200      	movs	r2, #0
 80015de:	f843 2c88 	str.w	r2, [r3, #-136]
 80015e2:	f8d7 3090 	ldr.w	r3, [r7, #144]	; 0x90
 80015e6:	3301      	adds	r3, #1
 80015e8:	f8c7 3090 	str.w	r3, [r7, #144]	; 0x90
 80015ec:	f8d7 3090 	ldr.w	r3, [r7, #144]	; 0x90
 80015f0:	2b1f      	cmp	r3, #31
 80015f2:	dded      	ble.n	80015d0 <mult_polys+0x46>
    
    /* scale tmp1 by p1[i] */
    for(j=0; j<MAXDEG; j++) tmp1[j]=gmult(driver, p2[j], p1[i]);
 80015f4:	2300      	movs	r3, #0
 80015f6:	f8c7 3090 	str.w	r3, [r7, #144]	; 0x90
 80015fa:	e01d      	b.n	8001638 <mult_polys+0xae>
 80015fc:	f8d7 3090 	ldr.w	r3, [r7, #144]	; 0x90
 8001600:	009b      	lsls	r3, r3, #2
 8001602:	683a      	ldr	r2, [r7, #0]
 8001604:	4413      	add	r3, r2
 8001606:	6819      	ldr	r1, [r3, #0]
 8001608:	f8d7 3094 	ldr.w	r3, [r7, #148]	; 0x94
 800160c:	009b      	lsls	r3, r3, #2
 800160e:	687a      	ldr	r2, [r7, #4]
 8001610:	4413      	add	r3, r2
 8001612:	681b      	ldr	r3, [r3, #0]
 8001614:	461a      	mov	r2, r3
 8001616:	68f8      	ldr	r0, [r7, #12]
 8001618:	f002 f871 	bl	80036fe <gmult>
 800161c:	4602      	mov	r2, r0
 800161e:	f8d7 3090 	ldr.w	r3, [r7, #144]	; 0x90
 8001622:	009b      	lsls	r3, r3, #2
 8001624:	f107 0198 	add.w	r1, r7, #152	; 0x98
 8001628:	440b      	add	r3, r1
 800162a:	f843 2c88 	str.w	r2, [r3, #-136]
 800162e:	f8d7 3090 	ldr.w	r3, [r7, #144]	; 0x90
 8001632:	3301      	adds	r3, #1
 8001634:	f8c7 3090 	str.w	r3, [r7, #144]	; 0x90
 8001638:	f8d7 3090 	ldr.w	r3, [r7, #144]	; 0x90
 800163c:	2b0f      	cmp	r3, #15
 800163e:	dddd      	ble.n	80015fc <mult_polys+0x72>
    /* and mult (shift) tmp1 right by i */
    for (j = (MAXDEG*2)-1; j >= i; j--) tmp1[j] = tmp1[j-i];
 8001640:	231f      	movs	r3, #31
 8001642:	f8c7 3090 	str.w	r3, [r7, #144]	; 0x90
 8001646:	e017      	b.n	8001678 <mult_polys+0xee>
 8001648:	f8d7 2090 	ldr.w	r2, [r7, #144]	; 0x90
 800164c:	f8d7 3094 	ldr.w	r3, [r7, #148]	; 0x94
 8001650:	1ad3      	subs	r3, r2, r3
 8001652:	009b      	lsls	r3, r3, #2
 8001654:	f107 0298 	add.w	r2, r7, #152	; 0x98
 8001658:	4413      	add	r3, r2
 800165a:	f853 2c88 	ldr.w	r2, [r3, #-136]
 800165e:	f8d7 3090 	ldr.w	r3, [r7, #144]	; 0x90
 8001662:	009b      	lsls	r3, r3, #2
 8001664:	f107 0198 	add.w	r1, r7, #152	; 0x98
 8001668:	440b      	add	r3, r1
 800166a:	f843 2c88 	str.w	r2, [r3, #-136]
 800166e:	f8d7 3090 	ldr.w	r3, [r7, #144]	; 0x90
 8001672:	3b01      	subs	r3, #1
 8001674:	f8c7 3090 	str.w	r3, [r7, #144]	; 0x90
 8001678:	f8d7 2090 	ldr.w	r2, [r7, #144]	; 0x90
 800167c:	f8d7 3094 	ldr.w	r3, [r7, #148]	; 0x94
 8001680:	429a      	cmp	r2, r3
 8001682:	dae1      	bge.n	8001648 <mult_polys+0xbe>
    for (j = 0; j < i; j++) tmp1[j] = 0;
 8001684:	2300      	movs	r3, #0
 8001686:	f8c7 3090 	str.w	r3, [r7, #144]	; 0x90
 800168a:	e00d      	b.n	80016a8 <mult_polys+0x11e>
 800168c:	f8d7 3090 	ldr.w	r3, [r7, #144]	; 0x90
 8001690:	009b      	lsls	r3, r3, #2
 8001692:	f107 0298 	add.w	r2, r7, #152	; 0x98
 8001696:	4413      	add	r3, r2
 8001698:	2200      	movs	r2, #0
 800169a:	f843 2c88 	str.w	r2, [r3, #-136]
 800169e:	f8d7 3090 	ldr.w	r3, [r7, #144]	; 0x90
 80016a2:	3301      	adds	r3, #1
 80016a4:	f8c7 3090 	str.w	r3, [r7, #144]	; 0x90
 80016a8:	f8d7 2090 	ldr.w	r2, [r7, #144]	; 0x90
 80016ac:	f8d7 3094 	ldr.w	r3, [r7, #148]	; 0x94
 80016b0:	429a      	cmp	r2, r3
 80016b2:	dbeb      	blt.n	800168c <mult_polys+0x102>
    
    /* add into partial product */
    for(j=0; j < (MAXDEG*2); j++) dst[j] ^= tmp1[j];
 80016b4:	2300      	movs	r3, #0
 80016b6:	f8c7 3090 	str.w	r3, [r7, #144]	; 0x90
 80016ba:	e019      	b.n	80016f0 <mult_polys+0x166>
 80016bc:	f8d7 3090 	ldr.w	r3, [r7, #144]	; 0x90
 80016c0:	009b      	lsls	r3, r3, #2
 80016c2:	68ba      	ldr	r2, [r7, #8]
 80016c4:	4413      	add	r3, r2
 80016c6:	6819      	ldr	r1, [r3, #0]
 80016c8:	f8d7 3090 	ldr.w	r3, [r7, #144]	; 0x90
 80016cc:	009b      	lsls	r3, r3, #2
 80016ce:	f107 0298 	add.w	r2, r7, #152	; 0x98
 80016d2:	4413      	add	r3, r2
 80016d4:	f853 2c88 	ldr.w	r2, [r3, #-136]
 80016d8:	f8d7 3090 	ldr.w	r3, [r7, #144]	; 0x90
 80016dc:	009b      	lsls	r3, r3, #2
 80016de:	68b8      	ldr	r0, [r7, #8]
 80016e0:	4403      	add	r3, r0
 80016e2:	404a      	eors	r2, r1
 80016e4:	601a      	str	r2, [r3, #0]
 80016e6:	f8d7 3090 	ldr.w	r3, [r7, #144]	; 0x90
 80016ea:	3301      	adds	r3, #1
 80016ec:	f8c7 3090 	str.w	r3, [r7, #144]	; 0x90
 80016f0:	f8d7 3090 	ldr.w	r3, [r7, #144]	; 0x90
 80016f4:	2b1f      	cmp	r3, #31
 80016f6:	dde1      	ble.n	80016bc <mult_polys+0x132>
  for (i = 0; i < MAXDEG; i++) {
 80016f8:	f8d7 3094 	ldr.w	r3, [r7, #148]	; 0x94
 80016fc:	3301      	adds	r3, #1
 80016fe:	f8c7 3094 	str.w	r3, [r7, #148]	; 0x94
 8001702:	f8d7 3094 	ldr.w	r3, [r7, #148]	; 0x94
 8001706:	2b0f      	cmp	r3, #15
 8001708:	f77f af5e 	ble.w	80015c8 <mult_polys+0x3e>
  }
}
 800170c:	bf00      	nop
 800170e:	bf00      	nop
 8001710:	3798      	adds	r7, #152	; 0x98
 8001712:	46bd      	mov	sp, r7
 8001714:	bd80      	pop	{r7, pc}

08001716 <setBit>:
static SPI_HandleTypeDef *hspi;
static struct SensorCalibrationType SensorCalibration;
static struct bme280SensorSettingsType  bme280SensorSettings;

uint8_t setBit(uint8_t n, int k)
{
 8001716:	b480      	push	{r7}
 8001718:	b083      	sub	sp, #12
 800171a:	af00      	add	r7, sp, #0
 800171c:	4603      	mov	r3, r0
 800171e:	6039      	str	r1, [r7, #0]
 8001720:	71fb      	strb	r3, [r7, #7]
    return (n | (1 << (k - 1)));
 8001722:	683b      	ldr	r3, [r7, #0]
 8001724:	3b01      	subs	r3, #1
 8001726:	2201      	movs	r2, #1
 8001728:	fa02 f303 	lsl.w	r3, r2, r3
 800172c:	b25a      	sxtb	r2, r3
 800172e:	f997 3007 	ldrsb.w	r3, [r7, #7]
 8001732:	4313      	orrs	r3, r2
 8001734:	b25b      	sxtb	r3, r3
 8001736:	b2db      	uxtb	r3, r3
}
 8001738:	4618      	mov	r0, r3
 800173a:	370c      	adds	r7, #12
 800173c:	46bd      	mov	sp, r7
 800173e:	bc80      	pop	{r7}
 8001740:	4770      	bx	lr

08001742 <clearBit>:

// Function to clear the kth bit of n
uint8_t clearBit(uint8_t n, int k)
{
 8001742:	b480      	push	{r7}
 8001744:	b083      	sub	sp, #12
 8001746:	af00      	add	r7, sp, #0
 8001748:	4603      	mov	r3, r0
 800174a:	6039      	str	r1, [r7, #0]
 800174c:	71fb      	strb	r3, [r7, #7]
    return (n & (~(1 << (k - 1))));
 800174e:	683b      	ldr	r3, [r7, #0]
 8001750:	3b01      	subs	r3, #1
 8001752:	2201      	movs	r2, #1
 8001754:	fa02 f303 	lsl.w	r3, r2, r3
 8001758:	b25b      	sxtb	r3, r3
 800175a:	43db      	mvns	r3, r3
 800175c:	b25a      	sxtb	r2, r3
 800175e:	f997 3007 	ldrsb.w	r3, [r7, #7]
 8001762:	4013      	ands	r3, r2
 8001764:	b25b      	sxtb	r3, r3
 8001766:	b2db      	uxtb	r3, r3
}
 8001768:	4618      	mov	r0, r3
 800176a:	370c      	adds	r7, #12
 800176c:	46bd      	mov	sp, r7
 800176e:	bc80      	pop	{r7}
 8001770:	4770      	bx	lr
	...

08001774 <bmeReadRegister>:

uint8_t bmeReadRegister(const uint8_t register_addr)
{
 8001774:	b580      	push	{r7, lr}
 8001776:	b084      	sub	sp, #16
 8001778:	af00      	add	r7, sp, #0
 800177a:	4603      	mov	r3, r0
 800177c:	71fb      	strb	r3, [r7, #7]
  HAL_StatusTypeDef HAL_Status;
  uint8_t val;
  uint8_t addr;

  HAL_GPIO_WritePin(PRESSURE_NSS_GPIO_Port, PRESSURE_NSS_Pin, GPIO_PIN_RESET);
 800177e:	2200      	movs	r2, #0
 8001780:	2104      	movs	r1, #4
 8001782:	4819      	ldr	r0, [pc, #100]	; (80017e8 <bmeReadRegister+0x74>)
 8001784:	f004 fd20 	bl	80061c8 <HAL_GPIO_WritePin>

  addr = setBit(register_addr,8);
 8001788:	79fb      	ldrb	r3, [r7, #7]
 800178a:	2108      	movs	r1, #8
 800178c:	4618      	mov	r0, r3
 800178e:	f7ff ffc2 	bl	8001716 <setBit>
 8001792:	4603      	mov	r3, r0
 8001794:	737b      	strb	r3, [r7, #13]

  HAL_Status = HAL_SPI_Transmit(hspi, (uint8_t *)&addr, 1, 1000);
 8001796:	4b15      	ldr	r3, [pc, #84]	; (80017ec <bmeReadRegister+0x78>)
 8001798:	6818      	ldr	r0, [r3, #0]
 800179a:	f107 010d 	add.w	r1, r7, #13
 800179e:	f44f 737a 	mov.w	r3, #1000	; 0x3e8
 80017a2:	2201      	movs	r2, #1
 80017a4:	f005 fad4 	bl	8006d50 <HAL_SPI_Transmit>
 80017a8:	4603      	mov	r3, r0
 80017aa:	73fb      	strb	r3, [r7, #15]
  HAL_Delay(1);
 80017ac:	2001      	movs	r0, #1
 80017ae:	f003 fe65 	bl	800547c <HAL_Delay>
  HAL_Status = HAL_SPI_Receive(hspi, &val, 1, 1000);
 80017b2:	4b0e      	ldr	r3, [pc, #56]	; (80017ec <bmeReadRegister+0x78>)
 80017b4:	6818      	ldr	r0, [r3, #0]
 80017b6:	f107 010e 	add.w	r1, r7, #14
 80017ba:	f44f 737a 	mov.w	r3, #1000	; 0x3e8
 80017be:	2201      	movs	r2, #1
 80017c0:	f005 fc02 	bl	8006fc8 <HAL_SPI_Receive>
 80017c4:	4603      	mov	r3, r0
 80017c6:	73fb      	strb	r3, [r7, #15]

  if(HAL_Status != HAL_OK)
 80017c8:	7bfb      	ldrb	r3, [r7, #15]
 80017ca:	2b00      	cmp	r3, #0
 80017cc:	d001      	beq.n	80017d2 <bmeReadRegister+0x5e>
  {
	  val = -1;
 80017ce:	23ff      	movs	r3, #255	; 0xff
 80017d0:	73bb      	strb	r3, [r7, #14]
  }

  HAL_GPIO_WritePin(PRESSURE_NSS_GPIO_Port, PRESSURE_NSS_Pin, GPIO_PIN_SET);
 80017d2:	2201      	movs	r2, #1
 80017d4:	2104      	movs	r1, #4
 80017d6:	4804      	ldr	r0, [pc, #16]	; (80017e8 <bmeReadRegister+0x74>)
 80017d8:	f004 fcf6 	bl	80061c8 <HAL_GPIO_WritePin>

  return val;
 80017dc:	7bbb      	ldrb	r3, [r7, #14]
}
 80017de:	4618      	mov	r0, r3
 80017e0:	3710      	adds	r7, #16
 80017e2:	46bd      	mov	sp, r7
 80017e4:	bd80      	pop	{r7, pc}
 80017e6:	bf00      	nop
 80017e8:	40010c00 	.word	0x40010c00
 80017ec:	2000005c 	.word	0x2000005c

080017f0 <bmeWriteRegister>:

uint8_t bmeWriteRegister(const uint8_t register_addr, uint8_t value)
{
 80017f0:	b580      	push	{r7, lr}
 80017f2:	b084      	sub	sp, #16
 80017f4:	af00      	add	r7, sp, #0
 80017f6:	4603      	mov	r3, r0
 80017f8:	460a      	mov	r2, r1
 80017fa:	71fb      	strb	r3, [r7, #7]
 80017fc:	4613      	mov	r3, r2
 80017fe:	71bb      	strb	r3, [r7, #6]
	  HAL_StatusTypeDef HAL_Status;
	  uint8_t addr;

	  HAL_GPIO_WritePin(PRESSURE_NSS_GPIO_Port, PRESSURE_NSS_Pin, GPIO_PIN_RESET);
 8001800:	2200      	movs	r2, #0
 8001802:	2104      	movs	r1, #4
 8001804:	4815      	ldr	r0, [pc, #84]	; (800185c <bmeWriteRegister+0x6c>)
 8001806:	f004 fcdf 	bl	80061c8 <HAL_GPIO_WritePin>

	  addr = clearBit(register_addr,8);
 800180a:	79fb      	ldrb	r3, [r7, #7]
 800180c:	2108      	movs	r1, #8
 800180e:	4618      	mov	r0, r3
 8001810:	f7ff ff97 	bl	8001742 <clearBit>
 8001814:	4603      	mov	r3, r0
 8001816:	73bb      	strb	r3, [r7, #14]

	  HAL_Status = HAL_SPI_Transmit(hspi, (uint8_t *)&addr, 1, 1000);
 8001818:	4b11      	ldr	r3, [pc, #68]	; (8001860 <bmeWriteRegister+0x70>)
 800181a:	6818      	ldr	r0, [r3, #0]
 800181c:	f107 010e 	add.w	r1, r7, #14
 8001820:	f44f 737a 	mov.w	r3, #1000	; 0x3e8
 8001824:	2201      	movs	r2, #1
 8001826:	f005 fa93 	bl	8006d50 <HAL_SPI_Transmit>
 800182a:	4603      	mov	r3, r0
 800182c:	73fb      	strb	r3, [r7, #15]
	  HAL_Delay(1);
 800182e:	2001      	movs	r0, #1
 8001830:	f003 fe24 	bl	800547c <HAL_Delay>
	  HAL_Status = HAL_SPI_Transmit(hspi, (uint8_t *)&value, 1, 1000);
 8001834:	4b0a      	ldr	r3, [pc, #40]	; (8001860 <bmeWriteRegister+0x70>)
 8001836:	6818      	ldr	r0, [r3, #0]
 8001838:	1db9      	adds	r1, r7, #6
 800183a:	f44f 737a 	mov.w	r3, #1000	; 0x3e8
 800183e:	2201      	movs	r2, #1
 8001840:	f005 fa86 	bl	8006d50 <HAL_SPI_Transmit>
 8001844:	4603      	mov	r3, r0
 8001846:	73fb      	strb	r3, [r7, #15]

	  HAL_GPIO_WritePin(PRESSURE_NSS_GPIO_Port, PRESSURE_NSS_Pin, GPIO_PIN_SET);
 8001848:	2201      	movs	r2, #1
 800184a:	2104      	movs	r1, #4
 800184c:	4803      	ldr	r0, [pc, #12]	; (800185c <bmeWriteRegister+0x6c>)
 800184e:	f004 fcbb 	bl	80061c8 <HAL_GPIO_WritePin>

	  return HAL_Status;
 8001852:	7bfb      	ldrb	r3, [r7, #15]
}
 8001854:	4618      	mov	r0, r3
 8001856:	3710      	adds	r7, #16
 8001858:	46bd      	mov	sp, r7
 800185a:	bd80      	pop	{r7, pc}
 800185c:	40010c00 	.word	0x40010c00
 8001860:	2000005c 	.word	0x2000005c

08001864 <bmeReadBurst>:

HAL_StatusTypeDef bmeReadBurst(const uint8_t register_addr, uint8_t *pData, int len)
{
 8001864:	b580      	push	{r7, lr}
 8001866:	b088      	sub	sp, #32
 8001868:	af00      	add	r7, sp, #0
 800186a:	4603      	mov	r3, r0
 800186c:	60b9      	str	r1, [r7, #8]
 800186e:	607a      	str	r2, [r7, #4]
 8001870:	73fb      	strb	r3, [r7, #15]
  HAL_StatusTypeDef HAL_Status;
  uint8_t addr;

  HAL_GPIO_WritePin(PRESSURE_NSS_GPIO_Port, PRESSURE_NSS_Pin, GPIO_PIN_RESET);
 8001872:	2200      	movs	r2, #0
 8001874:	2104      	movs	r1, #4
 8001876:	481d      	ldr	r0, [pc, #116]	; (80018ec <bmeReadBurst+0x88>)
 8001878:	f004 fca6 	bl	80061c8 <HAL_GPIO_WritePin>

  addr = setBit(register_addr,8);
 800187c:	7bfb      	ldrb	r3, [r7, #15]
 800187e:	2108      	movs	r1, #8
 8001880:	4618      	mov	r0, r3
 8001882:	f7ff ff48 	bl	8001716 <setBit>
 8001886:	4603      	mov	r3, r0
 8001888:	75fb      	strb	r3, [r7, #23]

  HAL_Status = HAL_SPI_Transmit(hspi, (uint8_t *)&addr, 1, 1000);
 800188a:	4b19      	ldr	r3, [pc, #100]	; (80018f0 <bmeReadBurst+0x8c>)
 800188c:	6818      	ldr	r0, [r3, #0]
 800188e:	f107 0117 	add.w	r1, r7, #23
 8001892:	f44f 737a 	mov.w	r3, #1000	; 0x3e8
 8001896:	2201      	movs	r2, #1
 8001898:	f005 fa5a 	bl	8006d50 <HAL_SPI_Transmit>
 800189c:	4603      	mov	r3, r0
 800189e:	77fb      	strb	r3, [r7, #31]
  HAL_Delay(1);
 80018a0:	2001      	movs	r0, #1
 80018a2:	f003 fdeb 	bl	800547c <HAL_Delay>
  for(int i = 0; i < len;i++)
 80018a6:	2300      	movs	r3, #0
 80018a8:	61bb      	str	r3, [r7, #24]
 80018aa:	e011      	b.n	80018d0 <bmeReadBurst+0x6c>
  {
	  HAL_Status = HAL_SPI_Receive(hspi,&pData[i], 1, 1000);
 80018ac:	4b10      	ldr	r3, [pc, #64]	; (80018f0 <bmeReadBurst+0x8c>)
 80018ae:	6818      	ldr	r0, [r3, #0]
 80018b0:	69bb      	ldr	r3, [r7, #24]
 80018b2:	68ba      	ldr	r2, [r7, #8]
 80018b4:	18d1      	adds	r1, r2, r3
 80018b6:	f44f 737a 	mov.w	r3, #1000	; 0x3e8
 80018ba:	2201      	movs	r2, #1
 80018bc:	f005 fb84 	bl	8006fc8 <HAL_SPI_Receive>
 80018c0:	4603      	mov	r3, r0
 80018c2:	77fb      	strb	r3, [r7, #31]
	  HAL_Delay(1);
 80018c4:	2001      	movs	r0, #1
 80018c6:	f003 fdd9 	bl	800547c <HAL_Delay>
  for(int i = 0; i < len;i++)
 80018ca:	69bb      	ldr	r3, [r7, #24]
 80018cc:	3301      	adds	r3, #1
 80018ce:	61bb      	str	r3, [r7, #24]
 80018d0:	69ba      	ldr	r2, [r7, #24]
 80018d2:	687b      	ldr	r3, [r7, #4]
 80018d4:	429a      	cmp	r2, r3
 80018d6:	dbe9      	blt.n	80018ac <bmeReadBurst+0x48>
  }

  HAL_GPIO_WritePin(PRESSURE_NSS_GPIO_Port, PRESSURE_NSS_Pin, GPIO_PIN_SET);
 80018d8:	2201      	movs	r2, #1
 80018da:	2104      	movs	r1, #4
 80018dc:	4803      	ldr	r0, [pc, #12]	; (80018ec <bmeReadBurst+0x88>)
 80018de:	f004 fc73 	bl	80061c8 <HAL_GPIO_WritePin>

  return HAL_Status;
 80018e2:	7ffb      	ldrb	r3, [r7, #31]
}
 80018e4:	4618      	mov	r0, r3
 80018e6:	3720      	adds	r7, #32
 80018e8:	46bd      	mov	sp, r7
 80018ea:	bd80      	pop	{r7, pc}
 80018ec:	40010c00 	.word	0x40010c00
 80018f0:	2000005c 	.word	0x2000005c

080018f4 <getCalibrationData>:

BME_StatusTypeDef getCalibrationData()
{
 80018f4:	b590      	push	{r4, r7, lr}
 80018f6:	b083      	sub	sp, #12
 80018f8:	af00      	add	r7, sp, #0
	BME_StatusTypeDef BME_Status = BME_OK;
 80018fa:	2300      	movs	r3, #0
 80018fc:	71fb      	strb	r3, [r7, #7]

	//Reading all compensation data, range 0x88:A1, 0xE1:E7
	SensorCalibration.dig_T1 = ((uint16_t)((bmeReadRegister(BME280_DIG_T1_MSB_REG) << 8) + bmeReadRegister(BME280_DIG_T1_LSB_REG)));
 80018fe:	2089      	movs	r0, #137	; 0x89
 8001900:	f7ff ff38 	bl	8001774 <bmeReadRegister>
 8001904:	4603      	mov	r3, r0
 8001906:	b29b      	uxth	r3, r3
 8001908:	021b      	lsls	r3, r3, #8
 800190a:	b29c      	uxth	r4, r3
 800190c:	2088      	movs	r0, #136	; 0x88
 800190e:	f7ff ff31 	bl	8001774 <bmeReadRegister>
 8001912:	4603      	mov	r3, r0
 8001914:	b29b      	uxth	r3, r3
 8001916:	4423      	add	r3, r4
 8001918:	b29a      	uxth	r2, r3
 800191a:	4b89      	ldr	r3, [pc, #548]	; (8001b40 <getCalibrationData+0x24c>)
 800191c:	801a      	strh	r2, [r3, #0]
	SensorCalibration.dig_T2 = ((int16_t)((bmeReadRegister(BME280_DIG_T2_MSB_REG) << 8) + bmeReadRegister(BME280_DIG_T2_LSB_REG)));
 800191e:	208b      	movs	r0, #139	; 0x8b
 8001920:	f7ff ff28 	bl	8001774 <bmeReadRegister>
 8001924:	4603      	mov	r3, r0
 8001926:	b29b      	uxth	r3, r3
 8001928:	021b      	lsls	r3, r3, #8
 800192a:	b29c      	uxth	r4, r3
 800192c:	208a      	movs	r0, #138	; 0x8a
 800192e:	f7ff ff21 	bl	8001774 <bmeReadRegister>
 8001932:	4603      	mov	r3, r0
 8001934:	b29b      	uxth	r3, r3
 8001936:	4423      	add	r3, r4
 8001938:	b29b      	uxth	r3, r3
 800193a:	b21a      	sxth	r2, r3
 800193c:	4b80      	ldr	r3, [pc, #512]	; (8001b40 <getCalibrationData+0x24c>)
 800193e:	805a      	strh	r2, [r3, #2]
	SensorCalibration.dig_T3 = ((int16_t)((bmeReadRegister(BME280_DIG_T3_MSB_REG) << 8) + bmeReadRegister(BME280_DIG_T3_LSB_REG)));
 8001940:	208d      	movs	r0, #141	; 0x8d
 8001942:	f7ff ff17 	bl	8001774 <bmeReadRegister>
 8001946:	4603      	mov	r3, r0
 8001948:	b29b      	uxth	r3, r3
 800194a:	021b      	lsls	r3, r3, #8
 800194c:	b29c      	uxth	r4, r3
 800194e:	208c      	movs	r0, #140	; 0x8c
 8001950:	f7ff ff10 	bl	8001774 <bmeReadRegister>
 8001954:	4603      	mov	r3, r0
 8001956:	b29b      	uxth	r3, r3
 8001958:	4423      	add	r3, r4
 800195a:	b29b      	uxth	r3, r3
 800195c:	b21a      	sxth	r2, r3
 800195e:	4b78      	ldr	r3, [pc, #480]	; (8001b40 <getCalibrationData+0x24c>)
 8001960:	809a      	strh	r2, [r3, #4]

	SensorCalibration.dig_P1 = ((uint16_t)((bmeReadRegister(BME280_DIG_P1_MSB_REG) << 8) + bmeReadRegister(BME280_DIG_P1_LSB_REG)));
 8001962:	208f      	movs	r0, #143	; 0x8f
 8001964:	f7ff ff06 	bl	8001774 <bmeReadRegister>
 8001968:	4603      	mov	r3, r0
 800196a:	b29b      	uxth	r3, r3
 800196c:	021b      	lsls	r3, r3, #8
 800196e:	b29c      	uxth	r4, r3
 8001970:	208e      	movs	r0, #142	; 0x8e
 8001972:	f7ff feff 	bl	8001774 <bmeReadRegister>
 8001976:	4603      	mov	r3, r0
 8001978:	b29b      	uxth	r3, r3
 800197a:	4423      	add	r3, r4
 800197c:	b29a      	uxth	r2, r3
 800197e:	4b70      	ldr	r3, [pc, #448]	; (8001b40 <getCalibrationData+0x24c>)
 8001980:	80da      	strh	r2, [r3, #6]
	SensorCalibration.dig_P2 = ((int16_t)((bmeReadRegister(BME280_DIG_P2_MSB_REG) << 8) + bmeReadRegister(BME280_DIG_P2_LSB_REG)));
 8001982:	2091      	movs	r0, #145	; 0x91
 8001984:	f7ff fef6 	bl	8001774 <bmeReadRegister>
 8001988:	4603      	mov	r3, r0
 800198a:	b29b      	uxth	r3, r3
 800198c:	021b      	lsls	r3, r3, #8
 800198e:	b29c      	uxth	r4, r3
 8001990:	2090      	movs	r0, #144	; 0x90
 8001992:	f7ff feef 	bl	8001774 <bmeReadRegister>
 8001996:	4603      	mov	r3, r0
 8001998:	b29b      	uxth	r3, r3
 800199a:	4423      	add	r3, r4
 800199c:	b29b      	uxth	r3, r3
 800199e:	b21a      	sxth	r2, r3
 80019a0:	4b67      	ldr	r3, [pc, #412]	; (8001b40 <getCalibrationData+0x24c>)
 80019a2:	811a      	strh	r2, [r3, #8]
	SensorCalibration.dig_P3 = ((int16_t)((bmeReadRegister(BME280_DIG_P3_MSB_REG) << 8) + bmeReadRegister(BME280_DIG_P3_LSB_REG)));
 80019a4:	2093      	movs	r0, #147	; 0x93
 80019a6:	f7ff fee5 	bl	8001774 <bmeReadRegister>
 80019aa:	4603      	mov	r3, r0
 80019ac:	b29b      	uxth	r3, r3
 80019ae:	021b      	lsls	r3, r3, #8
 80019b0:	b29c      	uxth	r4, r3
 80019b2:	2092      	movs	r0, #146	; 0x92
 80019b4:	f7ff fede 	bl	8001774 <bmeReadRegister>
 80019b8:	4603      	mov	r3, r0
 80019ba:	b29b      	uxth	r3, r3
 80019bc:	4423      	add	r3, r4
 80019be:	b29b      	uxth	r3, r3
 80019c0:	b21a      	sxth	r2, r3
 80019c2:	4b5f      	ldr	r3, [pc, #380]	; (8001b40 <getCalibrationData+0x24c>)
 80019c4:	815a      	strh	r2, [r3, #10]
	SensorCalibration.dig_P4 = ((int16_t)((bmeReadRegister(BME280_DIG_P4_MSB_REG) << 8) + bmeReadRegister(BME280_DIG_P4_LSB_REG)));
 80019c6:	2095      	movs	r0, #149	; 0x95
 80019c8:	f7ff fed4 	bl	8001774 <bmeReadRegister>
 80019cc:	4603      	mov	r3, r0
 80019ce:	b29b      	uxth	r3, r3
 80019d0:	021b      	lsls	r3, r3, #8
 80019d2:	b29c      	uxth	r4, r3
 80019d4:	2094      	movs	r0, #148	; 0x94
 80019d6:	f7ff fecd 	bl	8001774 <bmeReadRegister>
 80019da:	4603      	mov	r3, r0
 80019dc:	b29b      	uxth	r3, r3
 80019de:	4423      	add	r3, r4
 80019e0:	b29b      	uxth	r3, r3
 80019e2:	b21a      	sxth	r2, r3
 80019e4:	4b56      	ldr	r3, [pc, #344]	; (8001b40 <getCalibrationData+0x24c>)
 80019e6:	819a      	strh	r2, [r3, #12]
	SensorCalibration.dig_P5 = ((int16_t)((bmeReadRegister(BME280_DIG_P5_MSB_REG) << 8) + bmeReadRegister(BME280_DIG_P5_LSB_REG)));
 80019e8:	2097      	movs	r0, #151	; 0x97
 80019ea:	f7ff fec3 	bl	8001774 <bmeReadRegister>
 80019ee:	4603      	mov	r3, r0
 80019f0:	b29b      	uxth	r3, r3
 80019f2:	021b      	lsls	r3, r3, #8
 80019f4:	b29c      	uxth	r4, r3
 80019f6:	2096      	movs	r0, #150	; 0x96
 80019f8:	f7ff febc 	bl	8001774 <bmeReadRegister>
 80019fc:	4603      	mov	r3, r0
 80019fe:	b29b      	uxth	r3, r3
 8001a00:	4423      	add	r3, r4
 8001a02:	b29b      	uxth	r3, r3
 8001a04:	b21a      	sxth	r2, r3
 8001a06:	4b4e      	ldr	r3, [pc, #312]	; (8001b40 <getCalibrationData+0x24c>)
 8001a08:	81da      	strh	r2, [r3, #14]
	SensorCalibration.dig_P6 = ((int16_t)((bmeReadRegister(BME280_DIG_P6_MSB_REG) << 8) + bmeReadRegister(BME280_DIG_P6_LSB_REG)));
 8001a0a:	2099      	movs	r0, #153	; 0x99
 8001a0c:	f7ff feb2 	bl	8001774 <bmeReadRegister>
 8001a10:	4603      	mov	r3, r0
 8001a12:	b29b      	uxth	r3, r3
 8001a14:	021b      	lsls	r3, r3, #8
 8001a16:	b29c      	uxth	r4, r3
 8001a18:	2098      	movs	r0, #152	; 0x98
 8001a1a:	f7ff feab 	bl	8001774 <bmeReadRegister>
 8001a1e:	4603      	mov	r3, r0
 8001a20:	b29b      	uxth	r3, r3
 8001a22:	4423      	add	r3, r4
 8001a24:	b29b      	uxth	r3, r3
 8001a26:	b21a      	sxth	r2, r3
 8001a28:	4b45      	ldr	r3, [pc, #276]	; (8001b40 <getCalibrationData+0x24c>)
 8001a2a:	821a      	strh	r2, [r3, #16]
	SensorCalibration.dig_P7 = ((int16_t)((bmeReadRegister(BME280_DIG_P7_MSB_REG) << 8) + bmeReadRegister(BME280_DIG_P7_LSB_REG)));
 8001a2c:	209b      	movs	r0, #155	; 0x9b
 8001a2e:	f7ff fea1 	bl	8001774 <bmeReadRegister>
 8001a32:	4603      	mov	r3, r0
 8001a34:	b29b      	uxth	r3, r3
 8001a36:	021b      	lsls	r3, r3, #8
 8001a38:	b29c      	uxth	r4, r3
 8001a3a:	209a      	movs	r0, #154	; 0x9a
 8001a3c:	f7ff fe9a 	bl	8001774 <bmeReadRegister>
 8001a40:	4603      	mov	r3, r0
 8001a42:	b29b      	uxth	r3, r3
 8001a44:	4423      	add	r3, r4
 8001a46:	b29b      	uxth	r3, r3
 8001a48:	b21a      	sxth	r2, r3
 8001a4a:	4b3d      	ldr	r3, [pc, #244]	; (8001b40 <getCalibrationData+0x24c>)
 8001a4c:	825a      	strh	r2, [r3, #18]
	SensorCalibration.dig_P8 = ((int16_t)((bmeReadRegister(BME280_DIG_P8_MSB_REG) << 8) + bmeReadRegister(BME280_DIG_P8_LSB_REG)));
 8001a4e:	209d      	movs	r0, #157	; 0x9d
 8001a50:	f7ff fe90 	bl	8001774 <bmeReadRegister>
 8001a54:	4603      	mov	r3, r0
 8001a56:	b29b      	uxth	r3, r3
 8001a58:	021b      	lsls	r3, r3, #8
 8001a5a:	b29c      	uxth	r4, r3
 8001a5c:	209c      	movs	r0, #156	; 0x9c
 8001a5e:	f7ff fe89 	bl	8001774 <bmeReadRegister>
 8001a62:	4603      	mov	r3, r0
 8001a64:	b29b      	uxth	r3, r3
 8001a66:	4423      	add	r3, r4
 8001a68:	b29b      	uxth	r3, r3
 8001a6a:	b21a      	sxth	r2, r3
 8001a6c:	4b34      	ldr	r3, [pc, #208]	; (8001b40 <getCalibrationData+0x24c>)
 8001a6e:	829a      	strh	r2, [r3, #20]
	SensorCalibration.dig_P9 = ((int16_t)((bmeReadRegister(BME280_DIG_P9_MSB_REG) << 8) + bmeReadRegister(BME280_DIG_P9_LSB_REG)));
 8001a70:	209f      	movs	r0, #159	; 0x9f
 8001a72:	f7ff fe7f 	bl	8001774 <bmeReadRegister>
 8001a76:	4603      	mov	r3, r0
 8001a78:	b29b      	uxth	r3, r3
 8001a7a:	021b      	lsls	r3, r3, #8
 8001a7c:	b29c      	uxth	r4, r3
 8001a7e:	209e      	movs	r0, #158	; 0x9e
 8001a80:	f7ff fe78 	bl	8001774 <bmeReadRegister>
 8001a84:	4603      	mov	r3, r0
 8001a86:	b29b      	uxth	r3, r3
 8001a88:	4423      	add	r3, r4
 8001a8a:	b29b      	uxth	r3, r3
 8001a8c:	b21a      	sxth	r2, r3
 8001a8e:	4b2c      	ldr	r3, [pc, #176]	; (8001b40 <getCalibrationData+0x24c>)
 8001a90:	82da      	strh	r2, [r3, #22]

	SensorCalibration.dig_H1 = ((uint8_t)(bmeReadRegister(BME280_DIG_H1_REG)));
 8001a92:	20a1      	movs	r0, #161	; 0xa1
 8001a94:	f7ff fe6e 	bl	8001774 <bmeReadRegister>
 8001a98:	4603      	mov	r3, r0
 8001a9a:	461a      	mov	r2, r3
 8001a9c:	4b28      	ldr	r3, [pc, #160]	; (8001b40 <getCalibrationData+0x24c>)
 8001a9e:	761a      	strb	r2, [r3, #24]
	SensorCalibration.dig_H2 = ((int16_t)((bmeReadRegister(BME280_DIG_H2_MSB_REG) << 8) + bmeReadRegister(BME280_DIG_H2_LSB_REG)));
 8001aa0:	20e2      	movs	r0, #226	; 0xe2
 8001aa2:	f7ff fe67 	bl	8001774 <bmeReadRegister>
 8001aa6:	4603      	mov	r3, r0
 8001aa8:	b29b      	uxth	r3, r3
 8001aaa:	021b      	lsls	r3, r3, #8
 8001aac:	b29c      	uxth	r4, r3
 8001aae:	20e1      	movs	r0, #225	; 0xe1
 8001ab0:	f7ff fe60 	bl	8001774 <bmeReadRegister>
 8001ab4:	4603      	mov	r3, r0
 8001ab6:	b29b      	uxth	r3, r3
 8001ab8:	4423      	add	r3, r4
 8001aba:	b29b      	uxth	r3, r3
 8001abc:	b21a      	sxth	r2, r3
 8001abe:	4b20      	ldr	r3, [pc, #128]	; (8001b40 <getCalibrationData+0x24c>)
 8001ac0:	835a      	strh	r2, [r3, #26]
	SensorCalibration.dig_H3 = ((uint8_t)(bmeReadRegister(BME280_DIG_H3_REG)));
 8001ac2:	20e3      	movs	r0, #227	; 0xe3
 8001ac4:	f7ff fe56 	bl	8001774 <bmeReadRegister>
 8001ac8:	4603      	mov	r3, r0
 8001aca:	461a      	mov	r2, r3
 8001acc:	4b1c      	ldr	r3, [pc, #112]	; (8001b40 <getCalibrationData+0x24c>)
 8001ace:	771a      	strb	r2, [r3, #28]
	SensorCalibration.dig_H4 = ((int16_t)((bmeReadRegister(BME280_DIG_H4_MSB_REG) << 4) + (bmeReadRegister(BME280_DIG_H4_LSB_REG) & 0x0F)));
 8001ad0:	20e4      	movs	r0, #228	; 0xe4
 8001ad2:	f7ff fe4f 	bl	8001774 <bmeReadRegister>
 8001ad6:	4603      	mov	r3, r0
 8001ad8:	b29b      	uxth	r3, r3
 8001ada:	011b      	lsls	r3, r3, #4
 8001adc:	b29c      	uxth	r4, r3
 8001ade:	20e5      	movs	r0, #229	; 0xe5
 8001ae0:	f7ff fe48 	bl	8001774 <bmeReadRegister>
 8001ae4:	4603      	mov	r3, r0
 8001ae6:	b29b      	uxth	r3, r3
 8001ae8:	f003 030f 	and.w	r3, r3, #15
 8001aec:	b29b      	uxth	r3, r3
 8001aee:	4423      	add	r3, r4
 8001af0:	b29b      	uxth	r3, r3
 8001af2:	b21a      	sxth	r2, r3
 8001af4:	4b12      	ldr	r3, [pc, #72]	; (8001b40 <getCalibrationData+0x24c>)
 8001af6:	83da      	strh	r2, [r3, #30]
	SensorCalibration.dig_H5 = ((int16_t)((bmeReadRegister(BME280_DIG_H5_MSB_REG) << 4) + ((bmeReadRegister(BME280_DIG_H4_LSB_REG) >> 4) & 0x0F)));
 8001af8:	20e6      	movs	r0, #230	; 0xe6
 8001afa:	f7ff fe3b 	bl	8001774 <bmeReadRegister>
 8001afe:	4603      	mov	r3, r0
 8001b00:	b29b      	uxth	r3, r3
 8001b02:	011b      	lsls	r3, r3, #4
 8001b04:	b29c      	uxth	r4, r3
 8001b06:	20e5      	movs	r0, #229	; 0xe5
 8001b08:	f7ff fe34 	bl	8001774 <bmeReadRegister>
 8001b0c:	4603      	mov	r3, r0
 8001b0e:	091b      	lsrs	r3, r3, #4
 8001b10:	b2db      	uxtb	r3, r3
 8001b12:	b29b      	uxth	r3, r3
 8001b14:	f003 030f 	and.w	r3, r3, #15
 8001b18:	b29b      	uxth	r3, r3
 8001b1a:	4423      	add	r3, r4
 8001b1c:	b29b      	uxth	r3, r3
 8001b1e:	b21a      	sxth	r2, r3
 8001b20:	4b07      	ldr	r3, [pc, #28]	; (8001b40 <getCalibrationData+0x24c>)
 8001b22:	841a      	strh	r2, [r3, #32]
	SensorCalibration.dig_H6 = ((int8_t)bmeReadRegister(BME280_DIG_H6_REG));
 8001b24:	20e7      	movs	r0, #231	; 0xe7
 8001b26:	f7ff fe25 	bl	8001774 <bmeReadRegister>
 8001b2a:	4603      	mov	r3, r0
 8001b2c:	b25a      	sxtb	r2, r3
 8001b2e:	4b04      	ldr	r3, [pc, #16]	; (8001b40 <getCalibrationData+0x24c>)
 8001b30:	f883 2022 	strb.w	r2, [r3, #34]	; 0x22

	return BME_Status;
 8001b34:	79fb      	ldrb	r3, [r7, #7]
}
 8001b36:	4618      	mov	r0, r3
 8001b38:	370c      	adds	r7, #12
 8001b3a:	46bd      	mov	sp, r7
 8001b3c:	bd90      	pop	{r4, r7, pc}
 8001b3e:	bf00      	nop
 8001b40:	20000060 	.word	0x20000060

08001b44 <setStandbyTime>:

BME_StatusTypeDef setStandbyTime(uint8_t timeSetting)
{
 8001b44:	b580      	push	{r7, lr}
 8001b46:	b084      	sub	sp, #16
 8001b48:	af00      	add	r7, sp, #0
 8001b4a:	4603      	mov	r3, r0
 8001b4c:	71fb      	strb	r3, [r7, #7]
	BME_StatusTypeDef BME_Status = BME_OK;
 8001b4e:	2300      	movs	r3, #0
 8001b50:	73fb      	strb	r3, [r7, #15]

	if(timeSetting > 0b111) timeSetting = 0; //Error check. Default to 0.5ms
 8001b52:	79fb      	ldrb	r3, [r7, #7]
 8001b54:	2b07      	cmp	r3, #7
 8001b56:	d901      	bls.n	8001b5c <setStandbyTime+0x18>
 8001b58:	2300      	movs	r3, #0
 8001b5a:	71fb      	strb	r3, [r7, #7]

	uint8_t controlData = bmeReadRegister(BME280_CONFIG_REG);
 8001b5c:	20f5      	movs	r0, #245	; 0xf5
 8001b5e:	f7ff fe09 	bl	8001774 <bmeReadRegister>
 8001b62:	4603      	mov	r3, r0
 8001b64:	73bb      	strb	r3, [r7, #14]
	controlData &= ~( (1<<7) | (1<<6) | (1<<5) ); //Clear the 7/6/5 bits
 8001b66:	7bbb      	ldrb	r3, [r7, #14]
 8001b68:	f003 031f 	and.w	r3, r3, #31
 8001b6c:	73bb      	strb	r3, [r7, #14]
	controlData |= (timeSetting << 5); //Align with bits 7/6/5
 8001b6e:	79fb      	ldrb	r3, [r7, #7]
 8001b70:	015b      	lsls	r3, r3, #5
 8001b72:	b25a      	sxtb	r2, r3
 8001b74:	f997 300e 	ldrsb.w	r3, [r7, #14]
 8001b78:	4313      	orrs	r3, r2
 8001b7a:	b25b      	sxtb	r3, r3
 8001b7c:	73bb      	strb	r3, [r7, #14]
	bmeWriteRegister(BME280_CONFIG_REG, controlData);
 8001b7e:	7bbb      	ldrb	r3, [r7, #14]
 8001b80:	4619      	mov	r1, r3
 8001b82:	20f5      	movs	r0, #245	; 0xf5
 8001b84:	f7ff fe34 	bl	80017f0 <bmeWriteRegister>

	return BME_Status;
 8001b88:	7bfb      	ldrb	r3, [r7, #15]
}
 8001b8a:	4618      	mov	r0, r3
 8001b8c:	3710      	adds	r7, #16
 8001b8e:	46bd      	mov	sp, r7
 8001b90:	bd80      	pop	{r7, pc}

08001b92 <setFilter>:

BME_StatusTypeDef setFilter(uint8_t filterSetting)
{
 8001b92:	b580      	push	{r7, lr}
 8001b94:	b084      	sub	sp, #16
 8001b96:	af00      	add	r7, sp, #0
 8001b98:	4603      	mov	r3, r0
 8001b9a:	71fb      	strb	r3, [r7, #7]
	BME_StatusTypeDef BME_Status = BME_OK;
 8001b9c:	2300      	movs	r3, #0
 8001b9e:	73fb      	strb	r3, [r7, #15]

	if(filterSetting > 0b111) filterSetting = 0; //Error check. Default to filter off
 8001ba0:	79fb      	ldrb	r3, [r7, #7]
 8001ba2:	2b07      	cmp	r3, #7
 8001ba4:	d901      	bls.n	8001baa <setFilter+0x18>
 8001ba6:	2300      	movs	r3, #0
 8001ba8:	71fb      	strb	r3, [r7, #7]

	uint8_t controlData = bmeReadRegister(BME280_CONFIG_REG);
 8001baa:	20f5      	movs	r0, #245	; 0xf5
 8001bac:	f7ff fde2 	bl	8001774 <bmeReadRegister>
 8001bb0:	4603      	mov	r3, r0
 8001bb2:	73bb      	strb	r3, [r7, #14]
	controlData &= ~( (1<<4) | (1<<3) | (1<<2) ); //Clear the 4/3/2 bits
 8001bb4:	7bbb      	ldrb	r3, [r7, #14]
 8001bb6:	f023 031c 	bic.w	r3, r3, #28
 8001bba:	73bb      	strb	r3, [r7, #14]
	controlData |= (filterSetting << 2); //Align with bits 4/3/2
 8001bbc:	79fb      	ldrb	r3, [r7, #7]
 8001bbe:	009b      	lsls	r3, r3, #2
 8001bc0:	b25a      	sxtb	r2, r3
 8001bc2:	f997 300e 	ldrsb.w	r3, [r7, #14]
 8001bc6:	4313      	orrs	r3, r2
 8001bc8:	b25b      	sxtb	r3, r3
 8001bca:	73bb      	strb	r3, [r7, #14]
	bmeWriteRegister(BME280_CONFIG_REG, controlData);
 8001bcc:	7bbb      	ldrb	r3, [r7, #14]
 8001bce:	4619      	mov	r1, r3
 8001bd0:	20f5      	movs	r0, #245	; 0xf5
 8001bd2:	f7ff fe0d 	bl	80017f0 <bmeWriteRegister>

	return BME_Status;
 8001bd6:	7bfb      	ldrb	r3, [r7, #15]
}
 8001bd8:	4618      	mov	r0, r3
 8001bda:	3710      	adds	r7, #16
 8001bdc:	46bd      	mov	sp, r7
 8001bde:	bd80      	pop	{r7, pc}

08001be0 <checkSampleValue>:

uint8_t checkSampleValue(uint8_t userValue)
{
 8001be0:	b480      	push	{r7}
 8001be2:	b083      	sub	sp, #12
 8001be4:	af00      	add	r7, sp, #0
 8001be6:	4603      	mov	r3, r0
 8001be8:	71fb      	strb	r3, [r7, #7]
	switch(userValue)
 8001bea:	79fb      	ldrb	r3, [r7, #7]
 8001bec:	2b10      	cmp	r3, #16
 8001bee:	d831      	bhi.n	8001c54 <checkSampleValue+0x74>
 8001bf0:	a201      	add	r2, pc, #4	; (adr r2, 8001bf8 <checkSampleValue+0x18>)
 8001bf2:	f852 f023 	ldr.w	pc, [r2, r3, lsl #2]
 8001bf6:	bf00      	nop
 8001bf8:	08001c3d 	.word	0x08001c3d
 8001bfc:	08001c41 	.word	0x08001c41
 8001c00:	08001c45 	.word	0x08001c45
 8001c04:	08001c55 	.word	0x08001c55
 8001c08:	08001c49 	.word	0x08001c49
 8001c0c:	08001c55 	.word	0x08001c55
 8001c10:	08001c55 	.word	0x08001c55
 8001c14:	08001c55 	.word	0x08001c55
 8001c18:	08001c4d 	.word	0x08001c4d
 8001c1c:	08001c55 	.word	0x08001c55
 8001c20:	08001c55 	.word	0x08001c55
 8001c24:	08001c55 	.word	0x08001c55
 8001c28:	08001c55 	.word	0x08001c55
 8001c2c:	08001c55 	.word	0x08001c55
 8001c30:	08001c55 	.word	0x08001c55
 8001c34:	08001c55 	.word	0x08001c55
 8001c38:	08001c51 	.word	0x08001c51
	{
		case(0):
			return 0;
 8001c3c:	2300      	movs	r3, #0
 8001c3e:	e00a      	b.n	8001c56 <checkSampleValue+0x76>
			break; //Valid
		case(1):
			return 1;
 8001c40:	2301      	movs	r3, #1
 8001c42:	e008      	b.n	8001c56 <checkSampleValue+0x76>
			break; //Valid
		case(2):
			return 2;
 8001c44:	2302      	movs	r3, #2
 8001c46:	e006      	b.n	8001c56 <checkSampleValue+0x76>
			break; //Valid
		case(4):
			return 3;
 8001c48:	2303      	movs	r3, #3
 8001c4a:	e004      	b.n	8001c56 <checkSampleValue+0x76>
			break; //Valid
		case(8):
			return 4;
 8001c4c:	2304      	movs	r3, #4
 8001c4e:	e002      	b.n	8001c56 <checkSampleValue+0x76>
			break; //Valid
		case(16):
			return 5;
 8001c50:	2305      	movs	r3, #5
 8001c52:	e000      	b.n	8001c56 <checkSampleValue+0x76>
			break; //Valid
		default:
			return 1; //Default to 1x
 8001c54:	2301      	movs	r3, #1
			break; //Good
	}
}
 8001c56:	4618      	mov	r0, r3
 8001c58:	370c      	adds	r7, #12
 8001c5a:	46bd      	mov	sp, r7
 8001c5c:	bc80      	pop	{r7}
 8001c5e:	4770      	bx	lr

08001c60 <getMode>:

uint8_t getMode()
{
 8001c60:	b580      	push	{r7, lr}
 8001c62:	b082      	sub	sp, #8
 8001c64:	af00      	add	r7, sp, #0
	uint8_t controlData = bmeReadRegister(BME280_CTRL_MEAS_REG);
 8001c66:	20f4      	movs	r0, #244	; 0xf4
 8001c68:	f7ff fd84 	bl	8001774 <bmeReadRegister>
 8001c6c:	4603      	mov	r3, r0
 8001c6e:	71fb      	strb	r3, [r7, #7]
	return(controlData & 0b00000011); //Clear bits 7 through 2
 8001c70:	79fb      	ldrb	r3, [r7, #7]
 8001c72:	f003 0303 	and.w	r3, r3, #3
 8001c76:	b2db      	uxtb	r3, r3
}
 8001c78:	4618      	mov	r0, r3
 8001c7a:	3708      	adds	r7, #8
 8001c7c:	46bd      	mov	sp, r7
 8001c7e:	bd80      	pop	{r7, pc}

08001c80 <setMode>:

BME_StatusTypeDef setMode(uint8_t mode)
{
 8001c80:	b580      	push	{r7, lr}
 8001c82:	b084      	sub	sp, #16
 8001c84:	af00      	add	r7, sp, #0
 8001c86:	4603      	mov	r3, r0
 8001c88:	71fb      	strb	r3, [r7, #7]
	BME_StatusTypeDef BME_Status = BME_OK;
 8001c8a:	2300      	movs	r3, #0
 8001c8c:	73fb      	strb	r3, [r7, #15]

	if(mode > 0b11) mode = 0; //Error check. Default to sleep mode
 8001c8e:	79fb      	ldrb	r3, [r7, #7]
 8001c90:	2b03      	cmp	r3, #3
 8001c92:	d901      	bls.n	8001c98 <setMode+0x18>
 8001c94:	2300      	movs	r3, #0
 8001c96:	71fb      	strb	r3, [r7, #7]

	uint8_t controlData = bmeReadRegister(BME280_CTRL_MEAS_REG);
 8001c98:	20f4      	movs	r0, #244	; 0xf4
 8001c9a:	f7ff fd6b 	bl	8001774 <bmeReadRegister>
 8001c9e:	4603      	mov	r3, r0
 8001ca0:	73bb      	strb	r3, [r7, #14]
	controlData &= ~( (1<<1) | (1<<0) ); //Clear the mode[1:0] bits
 8001ca2:	7bbb      	ldrb	r3, [r7, #14]
 8001ca4:	f023 0303 	bic.w	r3, r3, #3
 8001ca8:	73bb      	strb	r3, [r7, #14]
	controlData |= mode; //Set
 8001caa:	7bba      	ldrb	r2, [r7, #14]
 8001cac:	79fb      	ldrb	r3, [r7, #7]
 8001cae:	4313      	orrs	r3, r2
 8001cb0:	73bb      	strb	r3, [r7, #14]
	bmeWriteRegister(BME280_CTRL_MEAS_REG, controlData);
 8001cb2:	7bbb      	ldrb	r3, [r7, #14]
 8001cb4:	4619      	mov	r1, r3
 8001cb6:	20f4      	movs	r0, #244	; 0xf4
 8001cb8:	f7ff fd9a 	bl	80017f0 <bmeWriteRegister>
	return BME_Status;
 8001cbc:	7bfb      	ldrb	r3, [r7, #15]
}
 8001cbe:	4618      	mov	r0, r3
 8001cc0:	3710      	adds	r7, #16
 8001cc2:	46bd      	mov	sp, r7
 8001cc4:	bd80      	pop	{r7, pc}

08001cc6 <setTempOverSample>:

BME_StatusTypeDef setTempOverSample(uint8_t overSampleAmount)
{
 8001cc6:	b580      	push	{r7, lr}
 8001cc8:	b084      	sub	sp, #16
 8001cca:	af00      	add	r7, sp, #0
 8001ccc:	4603      	mov	r3, r0
 8001cce:	71fb      	strb	r3, [r7, #7]
	BME_StatusTypeDef BME_Status = BME_OK;
 8001cd0:	2300      	movs	r3, #0
 8001cd2:	73fb      	strb	r3, [r7, #15]

	overSampleAmount = checkSampleValue(overSampleAmount); //Error check
 8001cd4:	79fb      	ldrb	r3, [r7, #7]
 8001cd6:	4618      	mov	r0, r3
 8001cd8:	f7ff ff82 	bl	8001be0 <checkSampleValue>
 8001cdc:	4603      	mov	r3, r0
 8001cde:	71fb      	strb	r3, [r7, #7]

	uint8_t originalMode = getMode(); //Get the current mode so we can go back to it at the end
 8001ce0:	f7ff ffbe 	bl	8001c60 <getMode>
 8001ce4:	4603      	mov	r3, r0
 8001ce6:	73bb      	strb	r3, [r7, #14]

	setMode(MODE_SLEEP); //Config will only be writeable in sleep mode, so first go to sleep mode
 8001ce8:	2000      	movs	r0, #0
 8001cea:	f7ff ffc9 	bl	8001c80 <setMode>

	//Set the osrs_t bits (7, 6, 5) to overSampleAmount
	uint8_t controlData = bmeReadRegister(BME280_CTRL_MEAS_REG);
 8001cee:	20f4      	movs	r0, #244	; 0xf4
 8001cf0:	f7ff fd40 	bl	8001774 <bmeReadRegister>
 8001cf4:	4603      	mov	r3, r0
 8001cf6:	737b      	strb	r3, [r7, #13]
	controlData &= ~( (1<<7) | (1<<6) | (1<<5) ); //Clear bits 765
 8001cf8:	7b7b      	ldrb	r3, [r7, #13]
 8001cfa:	f003 031f 	and.w	r3, r3, #31
 8001cfe:	737b      	strb	r3, [r7, #13]
	controlData |= overSampleAmount << 5; //Align overSampleAmount to bits 7/6/5
 8001d00:	79fb      	ldrb	r3, [r7, #7]
 8001d02:	015b      	lsls	r3, r3, #5
 8001d04:	b25a      	sxtb	r2, r3
 8001d06:	f997 300d 	ldrsb.w	r3, [r7, #13]
 8001d0a:	4313      	orrs	r3, r2
 8001d0c:	b25b      	sxtb	r3, r3
 8001d0e:	737b      	strb	r3, [r7, #13]
	bmeWriteRegister(BME280_CTRL_MEAS_REG, controlData);
 8001d10:	7b7b      	ldrb	r3, [r7, #13]
 8001d12:	4619      	mov	r1, r3
 8001d14:	20f4      	movs	r0, #244	; 0xf4
 8001d16:	f7ff fd6b 	bl	80017f0 <bmeWriteRegister>

	setMode(originalMode); //Return to the original user's choice
 8001d1a:	7bbb      	ldrb	r3, [r7, #14]
 8001d1c:	4618      	mov	r0, r3
 8001d1e:	f7ff ffaf 	bl	8001c80 <setMode>

	return BME_Status;
 8001d22:	7bfb      	ldrb	r3, [r7, #15]
}
 8001d24:	4618      	mov	r0, r3
 8001d26:	3710      	adds	r7, #16
 8001d28:	46bd      	mov	sp, r7
 8001d2a:	bd80      	pop	{r7, pc}

08001d2c <setPressureOverSample>:

BME_StatusTypeDef setPressureOverSample(uint8_t overSampleAmount)
{
 8001d2c:	b580      	push	{r7, lr}
 8001d2e:	b084      	sub	sp, #16
 8001d30:	af00      	add	r7, sp, #0
 8001d32:	4603      	mov	r3, r0
 8001d34:	71fb      	strb	r3, [r7, #7]
	BME_StatusTypeDef BME_Status = BME_OK;
 8001d36:	2300      	movs	r3, #0
 8001d38:	73fb      	strb	r3, [r7, #15]

	overSampleAmount = checkSampleValue(overSampleAmount); //Error check
 8001d3a:	79fb      	ldrb	r3, [r7, #7]
 8001d3c:	4618      	mov	r0, r3
 8001d3e:	f7ff ff4f 	bl	8001be0 <checkSampleValue>
 8001d42:	4603      	mov	r3, r0
 8001d44:	71fb      	strb	r3, [r7, #7]

	uint8_t originalMode = getMode(); //Get the current mode so we can go back to it at the end
 8001d46:	f7ff ff8b 	bl	8001c60 <getMode>
 8001d4a:	4603      	mov	r3, r0
 8001d4c:	73bb      	strb	r3, [r7, #14]

	setMode(MODE_SLEEP); //Config will only be writeable in sleep mode, so first go to sleep mode
 8001d4e:	2000      	movs	r0, #0
 8001d50:	f7ff ff96 	bl	8001c80 <setMode>

	//Set the osrs_p bits (4, 3, 2) to overSampleAmount
	uint8_t controlData = bmeReadRegister(BME280_CTRL_MEAS_REG);
 8001d54:	20f4      	movs	r0, #244	; 0xf4
 8001d56:	f7ff fd0d 	bl	8001774 <bmeReadRegister>
 8001d5a:	4603      	mov	r3, r0
 8001d5c:	737b      	strb	r3, [r7, #13]
	controlData &= ~( (1<<4) | (1<<3) | (1<<2) ); //Clear bits 432
 8001d5e:	7b7b      	ldrb	r3, [r7, #13]
 8001d60:	f023 031c 	bic.w	r3, r3, #28
 8001d64:	737b      	strb	r3, [r7, #13]
	controlData |= overSampleAmount << 2; //Align overSampleAmount to bits 4/3/2
 8001d66:	79fb      	ldrb	r3, [r7, #7]
 8001d68:	009b      	lsls	r3, r3, #2
 8001d6a:	b25a      	sxtb	r2, r3
 8001d6c:	f997 300d 	ldrsb.w	r3, [r7, #13]
 8001d70:	4313      	orrs	r3, r2
 8001d72:	b25b      	sxtb	r3, r3
 8001d74:	737b      	strb	r3, [r7, #13]
	bmeWriteRegister(BME280_CTRL_MEAS_REG, controlData);
 8001d76:	7b7b      	ldrb	r3, [r7, #13]
 8001d78:	4619      	mov	r1, r3
 8001d7a:	20f4      	movs	r0, #244	; 0xf4
 8001d7c:	f7ff fd38 	bl	80017f0 <bmeWriteRegister>

	setMode(originalMode); //Return to the original user's choice
 8001d80:	7bbb      	ldrb	r3, [r7, #14]
 8001d82:	4618      	mov	r0, r3
 8001d84:	f7ff ff7c 	bl	8001c80 <setMode>


	return BME_Status;
 8001d88:	7bfb      	ldrb	r3, [r7, #15]
}
 8001d8a:	4618      	mov	r0, r3
 8001d8c:	3710      	adds	r7, #16
 8001d8e:	46bd      	mov	sp, r7
 8001d90:	bd80      	pop	{r7, pc}

08001d92 <setHumidityOverSample>:

BME_StatusTypeDef setHumidityOverSample(uint8_t overSampleAmount)
{
 8001d92:	b580      	push	{r7, lr}
 8001d94:	b084      	sub	sp, #16
 8001d96:	af00      	add	r7, sp, #0
 8001d98:	4603      	mov	r3, r0
 8001d9a:	71fb      	strb	r3, [r7, #7]
	BME_StatusTypeDef BME_Status = BME_OK;
 8001d9c:	2300      	movs	r3, #0
 8001d9e:	73fb      	strb	r3, [r7, #15]

	overSampleAmount = checkSampleValue(overSampleAmount); //Error check
 8001da0:	79fb      	ldrb	r3, [r7, #7]
 8001da2:	4618      	mov	r0, r3
 8001da4:	f7ff ff1c 	bl	8001be0 <checkSampleValue>
 8001da8:	4603      	mov	r3, r0
 8001daa:	71fb      	strb	r3, [r7, #7]

	uint8_t originalMode = getMode(); //Get the current mode so we can go back to it at the end
 8001dac:	f7ff ff58 	bl	8001c60 <getMode>
 8001db0:	4603      	mov	r3, r0
 8001db2:	73bb      	strb	r3, [r7, #14]

	setMode(MODE_SLEEP); //Config will only be writeable in sleep mode, so first go to sleep mode
 8001db4:	2000      	movs	r0, #0
 8001db6:	f7ff ff63 	bl	8001c80 <setMode>

	//Set the osrs_h bits (2, 1, 0) to overSampleAmount
	uint8_t controlData = bmeReadRegister(BME280_CTRL_HUMIDITY_REG);
 8001dba:	20f2      	movs	r0, #242	; 0xf2
 8001dbc:	f7ff fcda 	bl	8001774 <bmeReadRegister>
 8001dc0:	4603      	mov	r3, r0
 8001dc2:	737b      	strb	r3, [r7, #13]
	controlData &= ~( (1<<2) | (1<<1) | (1<<0) ); //Clear bits 2/1/0
 8001dc4:	7b7b      	ldrb	r3, [r7, #13]
 8001dc6:	f023 0307 	bic.w	r3, r3, #7
 8001dca:	737b      	strb	r3, [r7, #13]
	controlData |= overSampleAmount << 0; //Align overSampleAmount to bits 2/1/0
 8001dcc:	7b7a      	ldrb	r2, [r7, #13]
 8001dce:	79fb      	ldrb	r3, [r7, #7]
 8001dd0:	4313      	orrs	r3, r2
 8001dd2:	737b      	strb	r3, [r7, #13]
	bmeWriteRegister(BME280_CTRL_HUMIDITY_REG, controlData);
 8001dd4:	7b7b      	ldrb	r3, [r7, #13]
 8001dd6:	4619      	mov	r1, r3
 8001dd8:	20f2      	movs	r0, #242	; 0xf2
 8001dda:	f7ff fd09 	bl	80017f0 <bmeWriteRegister>

	setMode(originalMode); //Return to the original user's choice
 8001dde:	7bbb      	ldrb	r3, [r7, #14]
 8001de0:	4618      	mov	r0, r3
 8001de2:	f7ff ff4d 	bl	8001c80 <setMode>

	return BME_Status;
 8001de6:	7bfb      	ldrb	r3, [r7, #15]
}
 8001de8:	4618      	mov	r0, r3
 8001dea:	3710      	adds	r7, #16
 8001dec:	46bd      	mov	sp, r7
 8001dee:	bd80      	pop	{r7, pc}

08001df0 <readTempFromBurst>:

float readTempFromBurst(uint8_t buffer[])
{
 8001df0:	b580      	push	{r7, lr}
 8001df2:	b08a      	sub	sp, #40	; 0x28
 8001df4:	af00      	add	r7, sp, #0
 8001df6:	6078      	str	r0, [r7, #4]
	int32_t adc_T = ((uint32_t)buffer[3] << 12) | ((uint32_t)buffer[4] << 4) | ((buffer[5] >> 4) & 0x0F);
 8001df8:	687b      	ldr	r3, [r7, #4]
 8001dfa:	3303      	adds	r3, #3
 8001dfc:	781b      	ldrb	r3, [r3, #0]
 8001dfe:	031a      	lsls	r2, r3, #12
 8001e00:	687b      	ldr	r3, [r7, #4]
 8001e02:	3304      	adds	r3, #4
 8001e04:	781b      	ldrb	r3, [r3, #0]
 8001e06:	011b      	lsls	r3, r3, #4
 8001e08:	431a      	orrs	r2, r3
 8001e0a:	687b      	ldr	r3, [r7, #4]
 8001e0c:	3305      	adds	r3, #5
 8001e0e:	781b      	ldrb	r3, [r3, #0]
 8001e10:	091b      	lsrs	r3, r3, #4
 8001e12:	b2db      	uxtb	r3, r3
 8001e14:	f003 030f 	and.w	r3, r3, #15
 8001e18:	4313      	orrs	r3, r2
 8001e1a:	627b      	str	r3, [r7, #36]	; 0x24
	int32_t t_fine;

	//By datasheet, calibrate
	int64_t var1, var2;

	var1 = ((((adc_T>>3) - ((int32_t)SensorCalibration.dig_T1<<1))) * ((int32_t)SensorCalibration.dig_T2)) >> 11;
 8001e1c:	6a7b      	ldr	r3, [r7, #36]	; 0x24
 8001e1e:	10da      	asrs	r2, r3, #3
 8001e20:	4b24      	ldr	r3, [pc, #144]	; (8001eb4 <readTempFromBurst+0xc4>)
 8001e22:	881b      	ldrh	r3, [r3, #0]
 8001e24:	005b      	lsls	r3, r3, #1
 8001e26:	1ad3      	subs	r3, r2, r3
 8001e28:	4a22      	ldr	r2, [pc, #136]	; (8001eb4 <readTempFromBurst+0xc4>)
 8001e2a:	f9b2 2002 	ldrsh.w	r2, [r2, #2]
 8001e2e:	fb02 f303 	mul.w	r3, r2, r3
 8001e32:	12db      	asrs	r3, r3, #11
 8001e34:	461a      	mov	r2, r3
 8001e36:	ea4f 73e2 	mov.w	r3, r2, asr #31
 8001e3a:	e9c7 2306 	strd	r2, r3, [r7, #24]
	var2 = (((((adc_T>>4) - ((int32_t)SensorCalibration.dig_T1)) * ((adc_T>>4) - ((int32_t)SensorCalibration.dig_T1))) >> 12) *
 8001e3e:	6a7b      	ldr	r3, [r7, #36]	; 0x24
 8001e40:	111b      	asrs	r3, r3, #4
 8001e42:	4a1c      	ldr	r2, [pc, #112]	; (8001eb4 <readTempFromBurst+0xc4>)
 8001e44:	8812      	ldrh	r2, [r2, #0]
 8001e46:	1a9b      	subs	r3, r3, r2
 8001e48:	6a7a      	ldr	r2, [r7, #36]	; 0x24
 8001e4a:	1112      	asrs	r2, r2, #4
 8001e4c:	4919      	ldr	r1, [pc, #100]	; (8001eb4 <readTempFromBurst+0xc4>)
 8001e4e:	8809      	ldrh	r1, [r1, #0]
 8001e50:	1a52      	subs	r2, r2, r1
 8001e52:	fb02 f303 	mul.w	r3, r2, r3
 8001e56:	131b      	asrs	r3, r3, #12
	((int32_t)SensorCalibration.dig_T3)) >> 14;
 8001e58:	4a16      	ldr	r2, [pc, #88]	; (8001eb4 <readTempFromBurst+0xc4>)
 8001e5a:	f9b2 2004 	ldrsh.w	r2, [r2, #4]
	var2 = (((((adc_T>>4) - ((int32_t)SensorCalibration.dig_T1)) * ((adc_T>>4) - ((int32_t)SensorCalibration.dig_T1))) >> 12) *
 8001e5e:	fb02 f303 	mul.w	r3, r2, r3
	((int32_t)SensorCalibration.dig_T3)) >> 14;
 8001e62:	139b      	asrs	r3, r3, #14
	var2 = (((((adc_T>>4) - ((int32_t)SensorCalibration.dig_T1)) * ((adc_T>>4) - ((int32_t)SensorCalibration.dig_T1))) >> 12) *
 8001e64:	461a      	mov	r2, r3
 8001e66:	ea4f 73e2 	mov.w	r3, r2, asr #31
 8001e6a:	e9c7 2304 	strd	r2, r3, [r7, #16]
	t_fine = var1 + var2;
 8001e6e:	69ba      	ldr	r2, [r7, #24]
 8001e70:	693b      	ldr	r3, [r7, #16]
 8001e72:	4413      	add	r3, r2
 8001e74:	60fb      	str	r3, [r7, #12]
	float output = (t_fine * 5 + 128) >> 8;
 8001e76:	68fa      	ldr	r2, [r7, #12]
 8001e78:	4613      	mov	r3, r2
 8001e7a:	009b      	lsls	r3, r3, #2
 8001e7c:	4413      	add	r3, r2
 8001e7e:	3380      	adds	r3, #128	; 0x80
 8001e80:	121b      	asrs	r3, r3, #8
 8001e82:	4618      	mov	r0, r3
 8001e84:	f7fe fea4 	bl	8000bd0 <__aeabi_i2f>
 8001e88:	4603      	mov	r3, r0
 8001e8a:	60bb      	str	r3, [r7, #8]

	output = output / 100 + bme280SensorSettings.tempCorrection;
 8001e8c:	490a      	ldr	r1, [pc, #40]	; (8001eb8 <readTempFromBurst+0xc8>)
 8001e8e:	68b8      	ldr	r0, [r7, #8]
 8001e90:	f7fe ffa6 	bl	8000de0 <__aeabi_fdiv>
 8001e94:	4603      	mov	r3, r0
 8001e96:	461a      	mov	r2, r3
 8001e98:	4b08      	ldr	r3, [pc, #32]	; (8001ebc <readTempFromBurst+0xcc>)
 8001e9a:	689b      	ldr	r3, [r3, #8]
 8001e9c:	4619      	mov	r1, r3
 8001e9e:	4610      	mov	r0, r2
 8001ea0:	f7fe fde2 	bl	8000a68 <__addsf3>
 8001ea4:	4603      	mov	r3, r0
 8001ea6:	60bb      	str	r3, [r7, #8]

 	return output;
 8001ea8:	68bb      	ldr	r3, [r7, #8]
}
 8001eaa:	4618      	mov	r0, r3
 8001eac:	3728      	adds	r7, #40	; 0x28
 8001eae:	46bd      	mov	sp, r7
 8001eb0:	bd80      	pop	{r7, pc}
 8001eb2:	bf00      	nop
 8001eb4:	20000060 	.word	0x20000060
 8001eb8:	42c80000 	.word	0x42c80000
 8001ebc:	20000084 	.word	0x20000084

08001ec0 <readTempFFromBurst>:

BME_StatusTypeDef readTempFFromBurst(uint8_t buffer[], struct bme280SensorMeasurementsType *measurements)
{
 8001ec0:	b580      	push	{r7, lr}
 8001ec2:	b084      	sub	sp, #16
 8001ec4:	af00      	add	r7, sp, #0
 8001ec6:	6078      	str	r0, [r7, #4]
 8001ec8:	6039      	str	r1, [r7, #0]
	BME_StatusTypeDef BME_Status = BME_OK;
 8001eca:	2300      	movs	r3, #0
 8001ecc:	73fb      	strb	r3, [r7, #15]

	float output = readTempFromBurst(buffer);
 8001ece:	6878      	ldr	r0, [r7, #4]
 8001ed0:	f7ff ff8e 	bl	8001df0 <readTempFromBurst>
 8001ed4:	60b8      	str	r0, [r7, #8]
	output = (output * 9) / 5 + 32;
 8001ed6:	490c      	ldr	r1, [pc, #48]	; (8001f08 <readTempFFromBurst+0x48>)
 8001ed8:	68b8      	ldr	r0, [r7, #8]
 8001eda:	f7fe fecd 	bl	8000c78 <__aeabi_fmul>
 8001ede:	4603      	mov	r3, r0
 8001ee0:	490a      	ldr	r1, [pc, #40]	; (8001f0c <readTempFFromBurst+0x4c>)
 8001ee2:	4618      	mov	r0, r3
 8001ee4:	f7fe ff7c 	bl	8000de0 <__aeabi_fdiv>
 8001ee8:	4603      	mov	r3, r0
 8001eea:	f04f 4184 	mov.w	r1, #1107296256	; 0x42000000
 8001eee:	4618      	mov	r0, r3
 8001ef0:	f7fe fdba 	bl	8000a68 <__addsf3>
 8001ef4:	4603      	mov	r3, r0
 8001ef6:	60bb      	str	r3, [r7, #8]

	measurements->temperature = output;
 8001ef8:	683b      	ldr	r3, [r7, #0]
 8001efa:	68ba      	ldr	r2, [r7, #8]
 8001efc:	601a      	str	r2, [r3, #0]

	return BME_Status;
 8001efe:	7bfb      	ldrb	r3, [r7, #15]
}
 8001f00:	4618      	mov	r0, r3
 8001f02:	3710      	adds	r7, #16
 8001f04:	46bd      	mov	sp, r7
 8001f06:	bd80      	pop	{r7, pc}
 8001f08:	41100000 	.word	0x41100000
 8001f0c:	40a00000 	.word	0x40a00000

08001f10 <readTempCFromBurst>:

BME_StatusTypeDef readTempCFromBurst(uint8_t buffer[], struct bme280SensorMeasurementsType *measurements)
{
 8001f10:	b580      	push	{r7, lr}
 8001f12:	b084      	sub	sp, #16
 8001f14:	af00      	add	r7, sp, #0
 8001f16:	6078      	str	r0, [r7, #4]
 8001f18:	6039      	str	r1, [r7, #0]
	BME_StatusTypeDef BME_Status = BME_OK;
 8001f1a:	2300      	movs	r3, #0
 8001f1c:	73fb      	strb	r3, [r7, #15]

	measurements->temperature = readTempFromBurst(buffer);
 8001f1e:	6878      	ldr	r0, [r7, #4]
 8001f20:	f7ff ff66 	bl	8001df0 <readTempFromBurst>
 8001f24:	4602      	mov	r2, r0
 8001f26:	683b      	ldr	r3, [r7, #0]
 8001f28:	601a      	str	r2, [r3, #0]

	return BME_Status;
 8001f2a:	7bfb      	ldrb	r3, [r7, #15]
}
 8001f2c:	4618      	mov	r0, r3
 8001f2e:	3710      	adds	r7, #16
 8001f30:	46bd      	mov	sp, r7
 8001f32:	bd80      	pop	{r7, pc}

08001f34 <readFloatPressureFromBurst>:

BME_StatusTypeDef readFloatPressureFromBurst(uint8_t buffer[], struct bme280SensorMeasurementsType *measurements)
{
 8001f34:	e92d 4fb0 	stmdb	sp!, {r4, r5, r7, r8, r9, sl, fp, lr}
 8001f38:	b09e      	sub	sp, #120	; 0x78
 8001f3a:	af00      	add	r7, sp, #0
 8001f3c:	64f8      	str	r0, [r7, #76]	; 0x4c
 8001f3e:	64b9      	str	r1, [r7, #72]	; 0x48

	BME_StatusTypeDef BME_Status = BME_OK;
 8001f40:	2300      	movs	r3, #0
 8001f42:	f887 3077 	strb.w	r3, [r7, #119]	; 0x77
	int32_t t_fine = 0;
 8001f46:	2300      	movs	r3, #0
 8001f48:	673b      	str	r3, [r7, #112]	; 0x70

	// Set pressure in Pa as unsigned 32 bit integer in Q24.8 format (24 integer bits and 8 fractional bits).
	// Output value of 24674867 represents 24674867/256 = 96386.2 Pa = 963.862 hPa

	int32_t adc_P = ((uint32_t)buffer[0] << 12) | ((uint32_t)buffer[1] << 4) | ((buffer[2] >> 4) & 0x0F);
 8001f4a:	6cfb      	ldr	r3, [r7, #76]	; 0x4c
 8001f4c:	781b      	ldrb	r3, [r3, #0]
 8001f4e:	031a      	lsls	r2, r3, #12
 8001f50:	6cfb      	ldr	r3, [r7, #76]	; 0x4c
 8001f52:	3301      	adds	r3, #1
 8001f54:	781b      	ldrb	r3, [r3, #0]
 8001f56:	011b      	lsls	r3, r3, #4
 8001f58:	431a      	orrs	r2, r3
 8001f5a:	6cfb      	ldr	r3, [r7, #76]	; 0x4c
 8001f5c:	3302      	adds	r3, #2
 8001f5e:	781b      	ldrb	r3, [r3, #0]
 8001f60:	091b      	lsrs	r3, r3, #4
 8001f62:	b2db      	uxtb	r3, r3
 8001f64:	f003 030f 	and.w	r3, r3, #15
 8001f68:	4313      	orrs	r3, r2
 8001f6a:	66fb      	str	r3, [r7, #108]	; 0x6c

	int64_t var1, var2, p_acc;
	var1 = ((int64_t)t_fine) - 128000;
 8001f6c:	6f3b      	ldr	r3, [r7, #112]	; 0x70
 8001f6e:	461a      	mov	r2, r3
 8001f70:	ea4f 73e2 	mov.w	r3, r2, asr #31
 8001f74:	f5b2 34fa 	subs.w	r4, r2, #128000	; 0x1f400
 8001f78:	f143 35ff 	adc.w	r5, r3, #4294967295
 8001f7c:	e9c7 4518 	strd	r4, r5, [r7, #96]	; 0x60
	var2 = var1 * var1 * (int64_t)SensorCalibration.dig_P6;
 8001f80:	6e7a      	ldr	r2, [r7, #100]	; 0x64
 8001f82:	6e3b      	ldr	r3, [r7, #96]	; 0x60
 8001f84:	fb03 f102 	mul.w	r1, r3, r2
 8001f88:	6e7a      	ldr	r2, [r7, #100]	; 0x64
 8001f8a:	6e3b      	ldr	r3, [r7, #96]	; 0x60
 8001f8c:	fb03 f302 	mul.w	r3, r3, r2
 8001f90:	18ca      	adds	r2, r1, r3
 8001f92:	6e3b      	ldr	r3, [r7, #96]	; 0x60
 8001f94:	fba3 4503 	umull	r4, r5, r3, r3
 8001f98:	1953      	adds	r3, r2, r5
 8001f9a:	461d      	mov	r5, r3
 8001f9c:	4b60      	ldr	r3, [pc, #384]	; (8002120 <readFloatPressureFromBurst+0x1ec>)
 8001f9e:	f9b3 3010 	ldrsh.w	r3, [r3, #16]
 8001fa2:	b21a      	sxth	r2, r3
 8001fa4:	ea4f 73e2 	mov.w	r3, r2, asr #31
 8001fa8:	fb02 f005 	mul.w	r0, r2, r5
 8001fac:	fb04 f103 	mul.w	r1, r4, r3
 8001fb0:	4401      	add	r1, r0
 8001fb2:	fba4 2302 	umull	r2, r3, r4, r2
 8001fb6:	4419      	add	r1, r3
 8001fb8:	460b      	mov	r3, r1
 8001fba:	e9c7 2316 	strd	r2, r3, [r7, #88]	; 0x58
 8001fbe:	e9c7 2316 	strd	r2, r3, [r7, #88]	; 0x58
	var2 = var2 + ((var1 * (int64_t)SensorCalibration.dig_P5)<<17);
 8001fc2:	4b57      	ldr	r3, [pc, #348]	; (8002120 <readFloatPressureFromBurst+0x1ec>)
 8001fc4:	f9b3 300e 	ldrsh.w	r3, [r3, #14]
 8001fc8:	b21a      	sxth	r2, r3
 8001fca:	ea4f 73e2 	mov.w	r3, r2, asr #31
 8001fce:	6e39      	ldr	r1, [r7, #96]	; 0x60
 8001fd0:	fb03 f001 	mul.w	r0, r3, r1
 8001fd4:	6e79      	ldr	r1, [r7, #100]	; 0x64
 8001fd6:	fb02 f101 	mul.w	r1, r2, r1
 8001fda:	4408      	add	r0, r1
 8001fdc:	6e39      	ldr	r1, [r7, #96]	; 0x60
 8001fde:	fba1 2302 	umull	r2, r3, r1, r2
 8001fe2:	18c1      	adds	r1, r0, r3
 8001fe4:	460b      	mov	r3, r1
 8001fe6:	f04f 0000 	mov.w	r0, #0
 8001fea:	f04f 0100 	mov.w	r1, #0
 8001fee:	0459      	lsls	r1, r3, #17
 8001ff0:	ea41 31d2 	orr.w	r1, r1, r2, lsr #15
 8001ff4:	0450      	lsls	r0, r2, #17
 8001ff6:	e9d7 2316 	ldrd	r2, r3, [r7, #88]	; 0x58
 8001ffa:	eb12 0800 	adds.w	r8, r2, r0
 8001ffe:	eb43 0901 	adc.w	r9, r3, r1
 8002002:	e9c7 8916 	strd	r8, r9, [r7, #88]	; 0x58
	var2 = var2 + (((int64_t)SensorCalibration.dig_P4)<<35);
 8002006:	4b46      	ldr	r3, [pc, #280]	; (8002120 <readFloatPressureFromBurst+0x1ec>)
 8002008:	f9b3 300c 	ldrsh.w	r3, [r3, #12]
 800200c:	b21a      	sxth	r2, r3
 800200e:	ea4f 73e2 	mov.w	r3, r2, asr #31
 8002012:	f04f 0000 	mov.w	r0, #0
 8002016:	f04f 0100 	mov.w	r1, #0
 800201a:	00d1      	lsls	r1, r2, #3
 800201c:	2000      	movs	r0, #0
 800201e:	e9d7 2316 	ldrd	r2, r3, [r7, #88]	; 0x58
 8002022:	1814      	adds	r4, r2, r0
 8002024:	61bc      	str	r4, [r7, #24]
 8002026:	414b      	adcs	r3, r1
 8002028:	61fb      	str	r3, [r7, #28]
 800202a:	e9d7 3406 	ldrd	r3, r4, [r7, #24]
 800202e:	e9c7 3416 	strd	r3, r4, [r7, #88]	; 0x58
	var1 = ((var1 * var1 * (int64_t)SensorCalibration.dig_P3)>>8) + ((var1 * (int64_t)SensorCalibration.dig_P2)<<12);
 8002032:	6e7a      	ldr	r2, [r7, #100]	; 0x64
 8002034:	6e3b      	ldr	r3, [r7, #96]	; 0x60
 8002036:	fb03 f102 	mul.w	r1, r3, r2
 800203a:	6e7a      	ldr	r2, [r7, #100]	; 0x64
 800203c:	6e3b      	ldr	r3, [r7, #96]	; 0x60
 800203e:	fb03 f302 	mul.w	r3, r3, r2
 8002042:	18ca      	adds	r2, r1, r3
 8002044:	6e3b      	ldr	r3, [r7, #96]	; 0x60
 8002046:	fba3 4503 	umull	r4, r5, r3, r3
 800204a:	1953      	adds	r3, r2, r5
 800204c:	461d      	mov	r5, r3
 800204e:	4b34      	ldr	r3, [pc, #208]	; (8002120 <readFloatPressureFromBurst+0x1ec>)
 8002050:	f9b3 300a 	ldrsh.w	r3, [r3, #10]
 8002054:	b21a      	sxth	r2, r3
 8002056:	ea4f 73e2 	mov.w	r3, r2, asr #31
 800205a:	fb02 f005 	mul.w	r0, r2, r5
 800205e:	fb04 f103 	mul.w	r1, r4, r3
 8002062:	4401      	add	r1, r0
 8002064:	fba4 2302 	umull	r2, r3, r4, r2
 8002068:	4419      	add	r1, r3
 800206a:	460b      	mov	r3, r1
 800206c:	f04f 0800 	mov.w	r8, #0
 8002070:	f04f 0900 	mov.w	r9, #0
 8002074:	ea4f 2812 	mov.w	r8, r2, lsr #8
 8002078:	ea48 6803 	orr.w	r8, r8, r3, lsl #24
 800207c:	ea4f 2923 	mov.w	r9, r3, asr #8
 8002080:	4b27      	ldr	r3, [pc, #156]	; (8002120 <readFloatPressureFromBurst+0x1ec>)
 8002082:	f9b3 3008 	ldrsh.w	r3, [r3, #8]
 8002086:	b21a      	sxth	r2, r3
 8002088:	ea4f 73e2 	mov.w	r3, r2, asr #31
 800208c:	6e39      	ldr	r1, [r7, #96]	; 0x60
 800208e:	fb03 f001 	mul.w	r0, r3, r1
 8002092:	6e79      	ldr	r1, [r7, #100]	; 0x64
 8002094:	fb02 f101 	mul.w	r1, r2, r1
 8002098:	1844      	adds	r4, r0, r1
 800209a:	6e39      	ldr	r1, [r7, #96]	; 0x60
 800209c:	fba1 0102 	umull	r0, r1, r1, r2
 80020a0:	1863      	adds	r3, r4, r1
 80020a2:	4619      	mov	r1, r3
 80020a4:	f04f 0200 	mov.w	r2, #0
 80020a8:	f04f 0300 	mov.w	r3, #0
 80020ac:	030b      	lsls	r3, r1, #12
 80020ae:	ea43 5310 	orr.w	r3, r3, r0, lsr #20
 80020b2:	0302      	lsls	r2, r0, #12
 80020b4:	eb18 0102 	adds.w	r1, r8, r2
 80020b8:	6139      	str	r1, [r7, #16]
 80020ba:	eb49 0303 	adc.w	r3, r9, r3
 80020be:	617b      	str	r3, [r7, #20]
 80020c0:	e9d7 3404 	ldrd	r3, r4, [r7, #16]
 80020c4:	e9c7 3418 	strd	r3, r4, [r7, #96]	; 0x60
	var1 = (((((int64_t)1)<<47)+var1))*((int64_t)SensorCalibration.dig_P1)>>33;
 80020c8:	e9d7 2318 	ldrd	r2, r3, [r7, #96]	; 0x60
 80020cc:	1c11      	adds	r1, r2, #0
 80020ce:	6439      	str	r1, [r7, #64]	; 0x40
 80020d0:	f543 4300 	adc.w	r3, r3, #32768	; 0x8000
 80020d4:	647b      	str	r3, [r7, #68]	; 0x44
 80020d6:	4b12      	ldr	r3, [pc, #72]	; (8002120 <readFloatPressureFromBurst+0x1ec>)
 80020d8:	88db      	ldrh	r3, [r3, #6]
 80020da:	b29a      	uxth	r2, r3
 80020dc:	f04f 0300 	mov.w	r3, #0
 80020e0:	e9d7 4510 	ldrd	r4, r5, [r7, #64]	; 0x40
 80020e4:	4629      	mov	r1, r5
 80020e6:	fb02 f001 	mul.w	r0, r2, r1
 80020ea:	4621      	mov	r1, r4
 80020ec:	fb01 f103 	mul.w	r1, r1, r3
 80020f0:	4401      	add	r1, r0
 80020f2:	4620      	mov	r0, r4
 80020f4:	fba0 2302 	umull	r2, r3, r0, r2
 80020f8:	4419      	add	r1, r3
 80020fa:	460b      	mov	r3, r1
 80020fc:	f04f 0000 	mov.w	r0, #0
 8002100:	f04f 0100 	mov.w	r1, #0
 8002104:	1058      	asrs	r0, r3, #1
 8002106:	17d9      	asrs	r1, r3, #31
 8002108:	e9c7 0118 	strd	r0, r1, [r7, #96]	; 0x60
	if (var1 == 0)
 800210c:	e9d7 2318 	ldrd	r2, r3, [r7, #96]	; 0x60
 8002110:	4313      	orrs	r3, r2
 8002112:	d107      	bne.n	8002124 <readFloatPressureFromBurst+0x1f0>
	{
		measurements->pressure = 0; // avoid exception caused by division by zero
 8002114:	6cbb      	ldr	r3, [r7, #72]	; 0x48
 8002116:	f04f 0200 	mov.w	r2, #0
 800211a:	605a      	str	r2, [r3, #4]
 800211c:	e0f1      	b.n	8002302 <readFloatPressureFromBurst+0x3ce>
 800211e:	bf00      	nop
 8002120:	20000060 	.word	0x20000060
	}
	else
	{
		p_acc = 1048576 - adc_P;
 8002124:	6efb      	ldr	r3, [r7, #108]	; 0x6c
 8002126:	f5c3 1380 	rsb	r3, r3, #1048576	; 0x100000
 800212a:	461a      	mov	r2, r3
 800212c:	ea4f 73e2 	mov.w	r3, r2, asr #31
 8002130:	e9c7 2314 	strd	r2, r3, [r7, #80]	; 0x50
		p_acc = (((p_acc<<31) - var2)*3125)/var1;
 8002134:	6d3b      	ldr	r3, [r7, #80]	; 0x50
 8002136:	105b      	asrs	r3, r3, #1
 8002138:	63fb      	str	r3, [r7, #60]	; 0x3c
 800213a:	6d3b      	ldr	r3, [r7, #80]	; 0x50
 800213c:	07db      	lsls	r3, r3, #31
 800213e:	63bb      	str	r3, [r7, #56]	; 0x38
 8002140:	e9d7 2316 	ldrd	r2, r3, [r7, #88]	; 0x58
 8002144:	e9d7 450e 	ldrd	r4, r5, [r7, #56]	; 0x38
 8002148:	4621      	mov	r1, r4
 800214a:	ebb1 0a02 	subs.w	sl, r1, r2
 800214e:	4629      	mov	r1, r5
 8002150:	eb61 0b03 	sbc.w	fp, r1, r3
 8002154:	4652      	mov	r2, sl
 8002156:	465b      	mov	r3, fp
 8002158:	1891      	adds	r1, r2, r2
 800215a:	60b9      	str	r1, [r7, #8]
 800215c:	415b      	adcs	r3, r3
 800215e:	60fb      	str	r3, [r7, #12]
 8002160:	e9d7 2302 	ldrd	r2, r3, [r7, #8]
 8002164:	eb12 020a 	adds.w	r2, r2, sl
 8002168:	eb43 030b 	adc.w	r3, r3, fp
 800216c:	f04f 0000 	mov.w	r0, #0
 8002170:	f04f 0100 	mov.w	r1, #0
 8002174:	0199      	lsls	r1, r3, #6
 8002176:	ea41 6192 	orr.w	r1, r1, r2, lsr #26
 800217a:	0190      	lsls	r0, r2, #6
 800217c:	1812      	adds	r2, r2, r0
 800217e:	eb41 0303 	adc.w	r3, r1, r3
 8002182:	f04f 0000 	mov.w	r0, #0
 8002186:	f04f 0100 	mov.w	r1, #0
 800218a:	0099      	lsls	r1, r3, #2
 800218c:	ea41 7192 	orr.w	r1, r1, r2, lsr #30
 8002190:	0090      	lsls	r0, r2, #2
 8002192:	4602      	mov	r2, r0
 8002194:	460b      	mov	r3, r1
 8002196:	eb12 020a 	adds.w	r2, r2, sl
 800219a:	eb43 030b 	adc.w	r3, r3, fp
 800219e:	f04f 0000 	mov.w	r0, #0
 80021a2:	f04f 0100 	mov.w	r1, #0
 80021a6:	0099      	lsls	r1, r3, #2
 80021a8:	ea41 7192 	orr.w	r1, r1, r2, lsr #30
 80021ac:	0090      	lsls	r0, r2, #2
 80021ae:	4602      	mov	r2, r0
 80021b0:	460b      	mov	r3, r1
 80021b2:	eb12 010a 	adds.w	r1, r2, sl
 80021b6:	6339      	str	r1, [r7, #48]	; 0x30
 80021b8:	eb43 030b 	adc.w	r3, r3, fp
 80021bc:	637b      	str	r3, [r7, #52]	; 0x34
 80021be:	e9d7 2318 	ldrd	r2, r3, [r7, #96]	; 0x60
 80021c2:	e9d7 010c 	ldrd	r0, r1, [r7, #48]	; 0x30
 80021c6:	f7fe ff3d 	bl	8001044 <__aeabi_ldivmod>
 80021ca:	4602      	mov	r2, r0
 80021cc:	460b      	mov	r3, r1
 80021ce:	e9c7 2314 	strd	r2, r3, [r7, #80]	; 0x50
		var1 = (((int64_t)SensorCalibration.dig_P9) * (p_acc>>13) * (p_acc>>13)) >> 25;
 80021d2:	4b4f      	ldr	r3, [pc, #316]	; (8002310 <readFloatPressureFromBurst+0x3dc>)
 80021d4:	f9b3 3016 	ldrsh.w	r3, [r3, #22]
 80021d8:	b218      	sxth	r0, r3
 80021da:	ea4f 71e0 	mov.w	r1, r0, asr #31
 80021de:	e9d7 4514 	ldrd	r4, r5, [r7, #80]	; 0x50
 80021e2:	f04f 0200 	mov.w	r2, #0
 80021e6:	f04f 0300 	mov.w	r3, #0
 80021ea:	0b62      	lsrs	r2, r4, #13
 80021ec:	ea42 42c5 	orr.w	r2, r2, r5, lsl #19
 80021f0:	136b      	asrs	r3, r5, #13
 80021f2:	fb02 f501 	mul.w	r5, r2, r1
 80021f6:	fb00 f403 	mul.w	r4, r0, r3
 80021fa:	442c      	add	r4, r5
 80021fc:	fba0 0102 	umull	r0, r1, r0, r2
 8002200:	1863      	adds	r3, r4, r1
 8002202:	4619      	mov	r1, r3
 8002204:	e9d7 4514 	ldrd	r4, r5, [r7, #80]	; 0x50
 8002208:	f04f 0200 	mov.w	r2, #0
 800220c:	f04f 0300 	mov.w	r3, #0
 8002210:	0b62      	lsrs	r2, r4, #13
 8002212:	ea42 42c5 	orr.w	r2, r2, r5, lsl #19
 8002216:	136b      	asrs	r3, r5, #13
 8002218:	fb02 f501 	mul.w	r5, r2, r1
 800221c:	fb00 f403 	mul.w	r4, r0, r3
 8002220:	442c      	add	r4, r5
 8002222:	fba0 0102 	umull	r0, r1, r0, r2
 8002226:	1863      	adds	r3, r4, r1
 8002228:	4619      	mov	r1, r3
 800222a:	f04f 0200 	mov.w	r2, #0
 800222e:	f04f 0300 	mov.w	r3, #0
 8002232:	0e42      	lsrs	r2, r0, #25
 8002234:	ea42 12c1 	orr.w	r2, r2, r1, lsl #7
 8002238:	164b      	asrs	r3, r1, #25
 800223a:	e9c7 2318 	strd	r2, r3, [r7, #96]	; 0x60
		var2 = (((int64_t)SensorCalibration.dig_P8) * p_acc) >> 19;
 800223e:	4b34      	ldr	r3, [pc, #208]	; (8002310 <readFloatPressureFromBurst+0x3dc>)
 8002240:	f9b3 3014 	ldrsh.w	r3, [r3, #20]
 8002244:	b21a      	sxth	r2, r3
 8002246:	ea4f 73e2 	mov.w	r3, r2, asr #31
 800224a:	6d39      	ldr	r1, [r7, #80]	; 0x50
 800224c:	fb03 f001 	mul.w	r0, r3, r1
 8002250:	6d79      	ldr	r1, [r7, #84]	; 0x54
 8002252:	fb02 f101 	mul.w	r1, r2, r1
 8002256:	1844      	adds	r4, r0, r1
 8002258:	6d39      	ldr	r1, [r7, #80]	; 0x50
 800225a:	fba1 0102 	umull	r0, r1, r1, r2
 800225e:	1863      	adds	r3, r4, r1
 8002260:	4619      	mov	r1, r3
 8002262:	f04f 0200 	mov.w	r2, #0
 8002266:	f04f 0300 	mov.w	r3, #0
 800226a:	0cc2      	lsrs	r2, r0, #19
 800226c:	ea42 3241 	orr.w	r2, r2, r1, lsl #13
 8002270:	14cb      	asrs	r3, r1, #19
 8002272:	e9c7 2316 	strd	r2, r3, [r7, #88]	; 0x58
		p_acc = ((p_acc + var1 + var2) >> 8) + (((int64_t)SensorCalibration.dig_P7)<<4);
 8002276:	e9d7 0114 	ldrd	r0, r1, [r7, #80]	; 0x50
 800227a:	e9d7 2318 	ldrd	r2, r3, [r7, #96]	; 0x60
 800227e:	1884      	adds	r4, r0, r2
 8002280:	62bc      	str	r4, [r7, #40]	; 0x28
 8002282:	eb41 0303 	adc.w	r3, r1, r3
 8002286:	62fb      	str	r3, [r7, #44]	; 0x2c
 8002288:	e9d7 2316 	ldrd	r2, r3, [r7, #88]	; 0x58
 800228c:	e9d7 450a 	ldrd	r4, r5, [r7, #40]	; 0x28
 8002290:	4621      	mov	r1, r4
 8002292:	1889      	adds	r1, r1, r2
 8002294:	6239      	str	r1, [r7, #32]
 8002296:	4629      	mov	r1, r5
 8002298:	eb43 0101 	adc.w	r1, r3, r1
 800229c:	6279      	str	r1, [r7, #36]	; 0x24
 800229e:	f04f 0000 	mov.w	r0, #0
 80022a2:	f04f 0100 	mov.w	r1, #0
 80022a6:	e9d7 4508 	ldrd	r4, r5, [r7, #32]
 80022aa:	4623      	mov	r3, r4
 80022ac:	0a18      	lsrs	r0, r3, #8
 80022ae:	462b      	mov	r3, r5
 80022b0:	ea40 6003 	orr.w	r0, r0, r3, lsl #24
 80022b4:	462b      	mov	r3, r5
 80022b6:	1219      	asrs	r1, r3, #8
 80022b8:	4b15      	ldr	r3, [pc, #84]	; (8002310 <readFloatPressureFromBurst+0x3dc>)
 80022ba:	f9b3 3012 	ldrsh.w	r3, [r3, #18]
 80022be:	b21c      	sxth	r4, r3
 80022c0:	ea4f 75e4 	mov.w	r5, r4, asr #31
 80022c4:	f04f 0200 	mov.w	r2, #0
 80022c8:	f04f 0300 	mov.w	r3, #0
 80022cc:	012b      	lsls	r3, r5, #4
 80022ce:	ea43 7314 	orr.w	r3, r3, r4, lsr #28
 80022d2:	0122      	lsls	r2, r4, #4
 80022d4:	1884      	adds	r4, r0, r2
 80022d6:	603c      	str	r4, [r7, #0]
 80022d8:	eb41 0303 	adc.w	r3, r1, r3
 80022dc:	607b      	str	r3, [r7, #4]
 80022de:	e9d7 3400 	ldrd	r3, r4, [r7]
 80022e2:	e9c7 3414 	strd	r3, r4, [r7, #80]	; 0x50

		measurements->pressure = (float)p_acc / 256.0;
 80022e6:	e9d7 0114 	ldrd	r0, r1, [r7, #80]	; 0x50
 80022ea:	f7fe fc87 	bl	8000bfc <__aeabi_l2f>
 80022ee:	4603      	mov	r3, r0
 80022f0:	f04f 4187 	mov.w	r1, #1132462080	; 0x43800000
 80022f4:	4618      	mov	r0, r3
 80022f6:	f7fe fd73 	bl	8000de0 <__aeabi_fdiv>
 80022fa:	4603      	mov	r3, r0
 80022fc:	461a      	mov	r2, r3
 80022fe:	6cbb      	ldr	r3, [r7, #72]	; 0x48
 8002300:	605a      	str	r2, [r3, #4]
	}

	return BME_Status;
 8002302:	f897 3077 	ldrb.w	r3, [r7, #119]	; 0x77
}
 8002306:	4618      	mov	r0, r3
 8002308:	3778      	adds	r7, #120	; 0x78
 800230a:	46bd      	mov	sp, r7
 800230c:	e8bd 8fb0 	ldmia.w	sp!, {r4, r5, r7, r8, r9, sl, fp, pc}
 8002310:	20000060 	.word	0x20000060

08002314 <readFloatHumidityFromBurst>:

BME_StatusTypeDef readFloatHumidityFromBurst(uint8_t buffer[], struct bme280SensorMeasurementsType *measurements)
{
 8002314:	b580      	push	{r7, lr}
 8002316:	b086      	sub	sp, #24
 8002318:	af00      	add	r7, sp, #0
 800231a:	6078      	str	r0, [r7, #4]
 800231c:	6039      	str	r1, [r7, #0]
	BME_StatusTypeDef BME_Status = BME_OK;
 800231e:	2300      	movs	r3, #0
 8002320:	75fb      	strb	r3, [r7, #23]
	int32_t t_fine = 0;
 8002322:	2300      	movs	r3, #0
 8002324:	613b      	str	r3, [r7, #16]

	// Set humidity in %RH as unsigned 32 bit integer in Q22. 10 format (22 integer and 10 fractional bits).
	// Output value of 47445 represents 47445/1024 = 46. 333 %RH
	int32_t adc_H = ((uint32_t)buffer[6] << 8) | ((uint32_t)buffer[7]);
 8002326:	687b      	ldr	r3, [r7, #4]
 8002328:	3306      	adds	r3, #6
 800232a:	781b      	ldrb	r3, [r3, #0]
 800232c:	021b      	lsls	r3, r3, #8
 800232e:	687a      	ldr	r2, [r7, #4]
 8002330:	3207      	adds	r2, #7
 8002332:	7812      	ldrb	r2, [r2, #0]
 8002334:	4313      	orrs	r3, r2
 8002336:	60fb      	str	r3, [r7, #12]

	int32_t var1;
	var1 = (t_fine - ((int32_t)76800));
 8002338:	693b      	ldr	r3, [r7, #16]
 800233a:	f5a3 3396 	sub.w	r3, r3, #76800	; 0x12c00
 800233e:	60bb      	str	r3, [r7, #8]
	var1 = (((((adc_H << 14) - (((int32_t)SensorCalibration.dig_H4) << 20) - (((int32_t)SensorCalibration.dig_H5) * var1)) +
 8002340:	68fb      	ldr	r3, [r7, #12]
 8002342:	039a      	lsls	r2, r3, #14
 8002344:	4b2f      	ldr	r3, [pc, #188]	; (8002404 <readFloatHumidityFromBurst+0xf0>)
 8002346:	f9b3 301e 	ldrsh.w	r3, [r3, #30]
 800234a:	051b      	lsls	r3, r3, #20
 800234c:	1ad2      	subs	r2, r2, r3
 800234e:	4b2d      	ldr	r3, [pc, #180]	; (8002404 <readFloatHumidityFromBurst+0xf0>)
 8002350:	f9b3 3020 	ldrsh.w	r3, [r3, #32]
 8002354:	4619      	mov	r1, r3
 8002356:	68bb      	ldr	r3, [r7, #8]
 8002358:	fb03 f301 	mul.w	r3, r3, r1
 800235c:	1ad3      	subs	r3, r2, r3
 800235e:	f503 4380 	add.w	r3, r3, #16384	; 0x4000
	((int32_t)16384)) >> 15) * (((((((var1 * ((int32_t)SensorCalibration.dig_H6)) >> 10) * (((var1 * ((int32_t)SensorCalibration.dig_H3)) >> 11) + ((int32_t)32768))) >> 10) + ((int32_t)2097152)) *
 8002362:	13db      	asrs	r3, r3, #15
 8002364:	4a27      	ldr	r2, [pc, #156]	; (8002404 <readFloatHumidityFromBurst+0xf0>)
 8002366:	f992 2022 	ldrsb.w	r2, [r2, #34]	; 0x22
 800236a:	4611      	mov	r1, r2
 800236c:	68ba      	ldr	r2, [r7, #8]
 800236e:	fb02 f201 	mul.w	r2, r2, r1
 8002372:	1292      	asrs	r2, r2, #10
 8002374:	4923      	ldr	r1, [pc, #140]	; (8002404 <readFloatHumidityFromBurst+0xf0>)
 8002376:	7f09      	ldrb	r1, [r1, #28]
 8002378:	4608      	mov	r0, r1
 800237a:	68b9      	ldr	r1, [r7, #8]
 800237c:	fb01 f100 	mul.w	r1, r1, r0
 8002380:	12c9      	asrs	r1, r1, #11
 8002382:	f501 4100 	add.w	r1, r1, #32768	; 0x8000
 8002386:	fb01 f202 	mul.w	r2, r1, r2
 800238a:	1292      	asrs	r2, r2, #10
 800238c:	f502 1200 	add.w	r2, r2, #2097152	; 0x200000
	((int32_t)SensorCalibration.dig_H2) + 8192) >> 14));
 8002390:	491c      	ldr	r1, [pc, #112]	; (8002404 <readFloatHumidityFromBurst+0xf0>)
 8002392:	f9b1 101a 	ldrsh.w	r1, [r1, #26]
	((int32_t)16384)) >> 15) * (((((((var1 * ((int32_t)SensorCalibration.dig_H6)) >> 10) * (((var1 * ((int32_t)SensorCalibration.dig_H3)) >> 11) + ((int32_t)32768))) >> 10) + ((int32_t)2097152)) *
 8002396:	fb01 f202 	mul.w	r2, r1, r2
	((int32_t)SensorCalibration.dig_H2) + 8192) >> 14));
 800239a:	f502 5200 	add.w	r2, r2, #8192	; 0x2000
 800239e:	1392      	asrs	r2, r2, #14
	var1 = (((((adc_H << 14) - (((int32_t)SensorCalibration.dig_H4) << 20) - (((int32_t)SensorCalibration.dig_H5) * var1)) +
 80023a0:	fb02 f303 	mul.w	r3, r2, r3
 80023a4:	60bb      	str	r3, [r7, #8]
	var1 = (var1 - (((((var1 >> 15) * (var1 >> 15)) >> 7) * ((int32_t)SensorCalibration.dig_H1)) >> 4));
 80023a6:	68bb      	ldr	r3, [r7, #8]
 80023a8:	13db      	asrs	r3, r3, #15
 80023aa:	68ba      	ldr	r2, [r7, #8]
 80023ac:	13d2      	asrs	r2, r2, #15
 80023ae:	fb02 f303 	mul.w	r3, r2, r3
 80023b2:	11db      	asrs	r3, r3, #7
 80023b4:	4a13      	ldr	r2, [pc, #76]	; (8002404 <readFloatHumidityFromBurst+0xf0>)
 80023b6:	7e12      	ldrb	r2, [r2, #24]
 80023b8:	fb02 f303 	mul.w	r3, r2, r3
 80023bc:	111b      	asrs	r3, r3, #4
 80023be:	68ba      	ldr	r2, [r7, #8]
 80023c0:	1ad3      	subs	r3, r2, r3
 80023c2:	60bb      	str	r3, [r7, #8]
	var1 = (var1 < 0 ? 0 : var1);
 80023c4:	68bb      	ldr	r3, [r7, #8]
 80023c6:	ea23 73e3 	bic.w	r3, r3, r3, asr #31
 80023ca:	60bb      	str	r3, [r7, #8]
	var1 = (var1 > 419430400 ? 419430400 : var1);
 80023cc:	68bb      	ldr	r3, [r7, #8]
 80023ce:	f1b3 5fc8 	cmp.w	r3, #419430400	; 0x19000000
 80023d2:	bfa8      	it	ge
 80023d4:	f04f 53c8 	movge.w	r3, #419430400	; 0x19000000
 80023d8:	60bb      	str	r3, [r7, #8]

	measurements->humidity = (float)(var1>>12) / 1024.0;
 80023da:	68bb      	ldr	r3, [r7, #8]
 80023dc:	131b      	asrs	r3, r3, #12
 80023de:	4618      	mov	r0, r3
 80023e0:	f7fe fbf6 	bl	8000bd0 <__aeabi_i2f>
 80023e4:	4603      	mov	r3, r0
 80023e6:	f04f 4189 	mov.w	r1, #1149239296	; 0x44800000
 80023ea:	4618      	mov	r0, r3
 80023ec:	f7fe fcf8 	bl	8000de0 <__aeabi_fdiv>
 80023f0:	4603      	mov	r3, r0
 80023f2:	461a      	mov	r2, r3
 80023f4:	683b      	ldr	r3, [r7, #0]
 80023f6:	609a      	str	r2, [r3, #8]

	return BME_Status;
 80023f8:	7dfb      	ldrb	r3, [r7, #23]
}
 80023fa:	4618      	mov	r0, r3
 80023fc:	3718      	adds	r7, #24
 80023fe:	46bd      	mov	sp, r7
 8002400:	bd80      	pop	{r7, pc}
 8002402:	bf00      	nop
 8002404:	20000060 	.word	0x20000060

08002408 <isMeasuring>:

uint8_t isMeasuring(void)
{
 8002408:	b580      	push	{r7, lr}
 800240a:	b082      	sub	sp, #8
 800240c:	af00      	add	r7, sp, #0
	uint8_t rtn = 1;
 800240e:	2301      	movs	r3, #1
 8002410:	71fb      	strb	r3, [r7, #7]

	uint8_t stat = bmeReadRegister(BME280_STAT_REG);
 8002412:	20f3      	movs	r0, #243	; 0xf3
 8002414:	f7ff f9ae 	bl	8001774 <bmeReadRegister>
 8002418:	4603      	mov	r3, r0
 800241a:	71bb      	strb	r3, [r7, #6]
	if( (stat & (1<<3)) == 0)
 800241c:	79bb      	ldrb	r3, [r7, #6]
 800241e:	f003 0308 	and.w	r3, r3, #8
 8002422:	2b00      	cmp	r3, #0
 8002424:	d101      	bne.n	800242a <isMeasuring+0x22>
	{
		rtn = 0;
 8002426:	2300      	movs	r3, #0
 8002428:	71fb      	strb	r3, [r7, #7]
	}
	return rtn;
 800242a:	79fb      	ldrb	r3, [r7, #7]
}
 800242c:	4618      	mov	r0, r3
 800242e:	3708      	adds	r7, #8
 8002430:	46bd      	mov	sp, r7
 8002432:	bd80      	pop	{r7, pc}

08002434 <readAllMeasurements>:

BME_StatusTypeDef readAllMeasurements(struct bme280SensorMeasurementsType *measurements, uint8_t tempScale)
{
 8002434:	b580      	push	{r7, lr}
 8002436:	b088      	sub	sp, #32
 8002438:	af00      	add	r7, sp, #0
 800243a:	6078      	str	r0, [r7, #4]
 800243c:	460b      	mov	r3, r1
 800243e:	70fb      	strb	r3, [r7, #3]

	BME_StatusTypeDef BME_Status = BME_OK;
 8002440:	2300      	movs	r3, #0
 8002442:	77fb      	strb	r3, [r7, #31]
	HAL_StatusTypeDef HAL_Status;
	int measureCount = 0;
 8002444:	2300      	movs	r3, #0
 8002446:	61bb      	str	r3, [r7, #24]

	uint8_t dataBurst[8];

	while(isMeasuring() != 0)
 8002448:	e006      	b.n	8002458 <readAllMeasurements+0x24>
	{
		measureCount++;
 800244a:	69bb      	ldr	r3, [r7, #24]
 800244c:	3301      	adds	r3, #1
 800244e:	61bb      	str	r3, [r7, #24]
		if(measureCount > 1000)
 8002450:	69bb      	ldr	r3, [r7, #24]
 8002452:	f5b3 7f7a 	cmp.w	r3, #1000	; 0x3e8
 8002456:	dc05      	bgt.n	8002464 <readAllMeasurements+0x30>
	while(isMeasuring() != 0)
 8002458:	f7ff ffd6 	bl	8002408 <isMeasuring>
 800245c:	4603      	mov	r3, r0
 800245e:	2b00      	cmp	r3, #0
 8002460:	d1f3      	bne.n	800244a <readAllMeasurements+0x16>
 8002462:	e000      	b.n	8002466 <readAllMeasurements+0x32>
		{
			break;
 8002464:	bf00      	nop
		}
	}

	HAL_Status =  bmeReadBurst(BME280_MEASUREMENTS_REG, dataBurst, sizeof(dataBurst));
 8002466:	f107 030c 	add.w	r3, r7, #12
 800246a:	2208      	movs	r2, #8
 800246c:	4619      	mov	r1, r3
 800246e:	20f7      	movs	r0, #247	; 0xf7
 8002470:	f7ff f9f8 	bl	8001864 <bmeReadBurst>
 8002474:	4603      	mov	r3, r0
 8002476:	75fb      	strb	r3, [r7, #23]
	if(HAL_Status == HAL_OK)
 8002478:	7dfb      	ldrb	r3, [r7, #23]
 800247a:	2b00      	cmp	r3, #0
 800247c:	d11c      	bne.n	80024b8 <readAllMeasurements+0x84>
	{
		if(tempScale == CELSIUS_SCALE)
 800247e:	78fb      	ldrb	r3, [r7, #3]
 8002480:	2b00      	cmp	r3, #0
 8002482:	d106      	bne.n	8002492 <readAllMeasurements+0x5e>
		{
			readTempCFromBurst(dataBurst, measurements);
 8002484:	f107 030c 	add.w	r3, r7, #12
 8002488:	6879      	ldr	r1, [r7, #4]
 800248a:	4618      	mov	r0, r3
 800248c:	f7ff fd40 	bl	8001f10 <readTempCFromBurst>
 8002490:	e005      	b.n	800249e <readAllMeasurements+0x6a>
		}
		else
		{
			readTempFFromBurst(dataBurst, measurements);
 8002492:	f107 030c 	add.w	r3, r7, #12
 8002496:	6879      	ldr	r1, [r7, #4]
 8002498:	4618      	mov	r0, r3
 800249a:	f7ff fd11 	bl	8001ec0 <readTempFFromBurst>
		}

		readFloatPressureFromBurst(dataBurst, measurements);
 800249e:	f107 030c 	add.w	r3, r7, #12
 80024a2:	6879      	ldr	r1, [r7, #4]
 80024a4:	4618      	mov	r0, r3
 80024a6:	f7ff fd45 	bl	8001f34 <readFloatPressureFromBurst>
		readFloatHumidityFromBurst(dataBurst, measurements);
 80024aa:	f107 030c 	add.w	r3, r7, #12
 80024ae:	6879      	ldr	r1, [r7, #4]
 80024b0:	4618      	mov	r0, r3
 80024b2:	f7ff ff2f 	bl	8002314 <readFloatHumidityFromBurst>
 80024b6:	e001      	b.n	80024bc <readAllMeasurements+0x88>
	}
	else
	{
		BME_Status = BME_ERROR;
 80024b8:	2301      	movs	r3, #1
 80024ba:	77fb      	strb	r3, [r7, #31]
	}

	return BME_Status;
 80024bc:	7ffb      	ldrb	r3, [r7, #31]
}
 80024be:	4618      	mov	r0, r3
 80024c0:	3720      	adds	r7, #32
 80024c2:	46bd      	mov	sp, r7
 80024c4:	bd80      	pop	{r7, pc}
	...

080024c8 <bme280_init>:

BME_StatusTypeDef bme280_init(SPI_HandleTypeDef *hspiParam)
{
 80024c8:	b580      	push	{r7, lr}
 80024ca:	b084      	sub	sp, #16
 80024cc:	af00      	add	r7, sp, #0
 80024ce:	6078      	str	r0, [r7, #4]
	BME_StatusTypeDef BME_Status = BME_OK;
 80024d0:	2300      	movs	r3, #0
 80024d2:	73fb      	strb	r3, [r7, #15]
	hspi = hspiParam;
 80024d4:	4a2b      	ldr	r2, [pc, #172]	; (8002584 <bme280_init+0xbc>)
 80024d6:	687b      	ldr	r3, [r7, #4]
 80024d8:	6013      	str	r3, [r2, #0]
	uint8_t chipID;

	bme280SensorSettings.runMode = MODE_NORMAL; //Normal/Run
 80024da:	4b2b      	ldr	r3, [pc, #172]	; (8002588 <bme280_init+0xc0>)
 80024dc:	2203      	movs	r2, #3
 80024de:	701a      	strb	r2, [r3, #0]
	bme280SensorSettings.tStandby = 0; //0.5ms
 80024e0:	4b29      	ldr	r3, [pc, #164]	; (8002588 <bme280_init+0xc0>)
 80024e2:	2200      	movs	r2, #0
 80024e4:	705a      	strb	r2, [r3, #1]
	bme280SensorSettings.filter = 0; //Filter off
 80024e6:	4b28      	ldr	r3, [pc, #160]	; (8002588 <bme280_init+0xc0>)
 80024e8:	2200      	movs	r2, #0
 80024ea:	709a      	strb	r2, [r3, #2]
	bme280SensorSettings.tempOverSample  = 1;
 80024ec:	4b26      	ldr	r3, [pc, #152]	; (8002588 <bme280_init+0xc0>)
 80024ee:	2201      	movs	r2, #1
 80024f0:	70da      	strb	r2, [r3, #3]
	bme280SensorSettings.pressOverSample = 1;
 80024f2:	4b25      	ldr	r3, [pc, #148]	; (8002588 <bme280_init+0xc0>)
 80024f4:	2201      	movs	r2, #1
 80024f6:	711a      	strb	r2, [r3, #4]
	bme280SensorSettings.humidOverSample = 1;
 80024f8:	4b23      	ldr	r3, [pc, #140]	; (8002588 <bme280_init+0xc0>)
 80024fa:	2201      	movs	r2, #1
 80024fc:	715a      	strb	r2, [r3, #5]
	bme280SensorSettings.tempCorrection = 0.f; // correction of temperature - added to the result
 80024fe:	4b22      	ldr	r3, [pc, #136]	; (8002588 <bme280_init+0xc0>)
 8002500:	f04f 0200 	mov.w	r2, #0
 8002504:	609a      	str	r2, [r3, #8]


	chipID = bmeReadRegister(BME280_CHIP_ID_REG);
 8002506:	20d0      	movs	r0, #208	; 0xd0
 8002508:	f7ff f934 	bl	8001774 <bmeReadRegister>
 800250c:	4603      	mov	r3, r0
 800250e:	73bb      	strb	r3, [r7, #14]
	if(chipID !=BME280_CHIP_ID )
 8002510:	7bbb      	ldrb	r3, [r7, #14]
 8002512:	2b60      	cmp	r3, #96	; 0x60
 8002514:	d002      	beq.n	800251c <bme280_init+0x54>
	{
		BME_Status = BME_ERROR;
 8002516:	2301      	movs	r3, #1
 8002518:	73fb      	strb	r3, [r7, #15]
 800251a:	e02e      	b.n	800257a <bme280_init+0xb2>
	}
	else
	{
		setMode(MODE_SLEEP);
 800251c:	2000      	movs	r0, #0
 800251e:	f7ff fbaf 	bl	8001c80 <setMode>
		BME_Status = getCalibrationData();
 8002522:	f7ff f9e7 	bl	80018f4 <getCalibrationData>
 8002526:	4603      	mov	r3, r0
 8002528:	73fb      	strb	r3, [r7, #15]
		BME_Status = setStandbyTime(bme280SensorSettings.tStandby);
 800252a:	4b17      	ldr	r3, [pc, #92]	; (8002588 <bme280_init+0xc0>)
 800252c:	785b      	ldrb	r3, [r3, #1]
 800252e:	4618      	mov	r0, r3
 8002530:	f7ff fb08 	bl	8001b44 <setStandbyTime>
 8002534:	4603      	mov	r3, r0
 8002536:	73fb      	strb	r3, [r7, #15]
		BME_Status = setFilter(bme280SensorSettings.filter);
 8002538:	4b13      	ldr	r3, [pc, #76]	; (8002588 <bme280_init+0xc0>)
 800253a:	789b      	ldrb	r3, [r3, #2]
 800253c:	4618      	mov	r0, r3
 800253e:	f7ff fb28 	bl	8001b92 <setFilter>
 8002542:	4603      	mov	r3, r0
 8002544:	73fb      	strb	r3, [r7, #15]
		BME_Status = setPressureOverSample(bme280SensorSettings.pressOverSample);
 8002546:	4b10      	ldr	r3, [pc, #64]	; (8002588 <bme280_init+0xc0>)
 8002548:	791b      	ldrb	r3, [r3, #4]
 800254a:	4618      	mov	r0, r3
 800254c:	f7ff fbee 	bl	8001d2c <setPressureOverSample>
 8002550:	4603      	mov	r3, r0
 8002552:	73fb      	strb	r3, [r7, #15]
		BME_Status = setHumidityOverSample(bme280SensorSettings.humidOverSample);
 8002554:	4b0c      	ldr	r3, [pc, #48]	; (8002588 <bme280_init+0xc0>)
 8002556:	795b      	ldrb	r3, [r3, #5]
 8002558:	4618      	mov	r0, r3
 800255a:	f7ff fc1a 	bl	8001d92 <setHumidityOverSample>
 800255e:	4603      	mov	r3, r0
 8002560:	73fb      	strb	r3, [r7, #15]
		BME_Status = setTempOverSample(bme280SensorSettings.tempOverSample);
 8002562:	4b09      	ldr	r3, [pc, #36]	; (8002588 <bme280_init+0xc0>)
 8002564:	78db      	ldrb	r3, [r3, #3]
 8002566:	4618      	mov	r0, r3
 8002568:	f7ff fbad 	bl	8001cc6 <setTempOverSample>
 800256c:	4603      	mov	r3, r0
 800256e:	73fb      	strb	r3, [r7, #15]
		setMode(bme280SensorSettings.runMode);
 8002570:	4b05      	ldr	r3, [pc, #20]	; (8002588 <bme280_init+0xc0>)
 8002572:	781b      	ldrb	r3, [r3, #0]
 8002574:	4618      	mov	r0, r3
 8002576:	f7ff fb83 	bl	8001c80 <setMode>
	}

	return BME_Status;
 800257a:	7bfb      	ldrb	r3, [r7, #15]
}
 800257c:	4618      	mov	r0, r3
 800257e:	3710      	adds	r7, #16
 8002580:	46bd      	mov	sp, r7
 8002582:	bd80      	pop	{r7, pc}
 8002584:	2000005c 	.word	0x2000005c
 8002588:	20000084 	.word	0x20000084

0800258c <processCallSign>:
#include "radio.h"
#include "cw.h"
#include "callSign.h"

int processCallSign(struct rscode_driver *rsDriver)
{
 800258c:	b5b0      	push	{r4, r5, r7, lr}
 800258e:	b09c      	sub	sp, #112	; 0x70
 8002590:	af00      	add	r7, sp, #0
 8002592:	6078      	str	r0, [r7, #4]
	HAL_StatusTypeDef HAL_Status;
	int status   = 1;
 8002594:	2301      	movs	r3, #1
 8002596:	66fb      	str	r3, [r7, #108]	; 0x6c
	uint16_t len = 0;
 8002598:	2300      	movs	r3, #0
 800259a:	f8a7 306a 	strh.w	r3, [r7, #106]	; 0x6a

	uint8_t txBuf[MTU_SIZE];
	struct HABPacketCallSignDataType HABPacketCallSignData;

	memset(&HABPacketCallSignData, '\0', sizeof(HABPacketCallSignData));
 800259e:	f107 030c 	add.w	r3, r7, #12
 80025a2:	2219      	movs	r2, #25
 80025a4:	2100      	movs	r1, #0
 80025a6:	4618      	mov	r0, r3
 80025a8:	f005 fffe 	bl	80085a8 <memset>
	HABPacketCallSignData.packetType      = CW_ID;
 80025ac:	2344      	movs	r3, #68	; 0x44
 80025ae:	81bb      	strh	r3, [r7, #12]
	HABPacketCallSignData.callSignDataLen = strlen(CALL_SIGN);
 80025b0:	2305      	movs	r3, #5
 80025b2:	73bb      	strb	r3, [r7, #14]
	memcpy(HABPacketCallSignData.callSignData,CALL_SIGN,HABPacketCallSignData.callSignDataLen);
 80025b4:	7bbb      	ldrb	r3, [r7, #14]
 80025b6:	461a      	mov	r2, r3
 80025b8:	f107 030c 	add.w	r3, r7, #12
 80025bc:	3303      	adds	r3, #3
 80025be:	4930      	ldr	r1, [pc, #192]	; (8002680 <processCallSign+0xf4>)
 80025c0:	4618      	mov	r0, r3
 80025c2:	f005 ffe3 	bl	800858c <memcpy>
	len = sizeof(HABPacketCallSignData)-sizeof(HABPacketCallSignData.crc16)-NPAR;
 80025c6:	230f      	movs	r3, #15
 80025c8:	f8a7 306a 	strh.w	r3, [r7, #106]	; 0x6a
	HABPacketCallSignData.crc16 = crc_16((unsigned char *)&HABPacketCallSignData,len);
 80025cc:	f8b7 206a 	ldrh.w	r2, [r7, #106]	; 0x6a
 80025d0:	f107 030c 	add.w	r3, r7, #12
 80025d4:	4611      	mov	r1, r2
 80025d6:	4618      	mov	r0, r3
 80025d8:	f000 fd32 	bl	8003040 <crc_16>
 80025dc:	4603      	mov	r3, r0
 80025de:	f8a7 301b 	strh.w	r3, [r7, #27]
	rscode_encode(rsDriver, (unsigned char *)&HABPacketCallSignData, sizeof(HABPacketCallSignData)-NPAR, (unsigned char *)&HABPacketCallSignData);
 80025e2:	f107 030c 	add.w	r3, r7, #12
 80025e6:	f107 010c 	add.w	r1, r7, #12
 80025ea:	2211      	movs	r2, #17
 80025ec:	6878      	ldr	r0, [r7, #4]
 80025ee:	f000 ffd7 	bl	80035a0 <rscode_encode>
	memcpy(txBuf,&HABPacketCallSignData,sizeof(HABPacketCallSignData));
 80025f2:	f107 0428 	add.w	r4, r7, #40	; 0x28
 80025f6:	f107 050c 	add.w	r5, r7, #12
 80025fa:	cd0f      	ldmia	r5!, {r0, r1, r2, r3}
 80025fc:	c40f      	stmia	r4!, {r0, r1, r2, r3}
 80025fe:	e895 0007 	ldmia.w	r5, {r0, r1, r2}
 8002602:	c403      	stmia	r4!, {r0, r1}
 8002604:	7022      	strb	r2, [r4, #0]
	HAL_Status =  radioTxData(txBuf,sizeof(HABPacketCallSignData));
 8002606:	f107 0328 	add.w	r3, r7, #40	; 0x28
 800260a:	2119      	movs	r1, #25
 800260c:	4618      	mov	r0, r3
 800260e:	f002 f9fb 	bl	8004a08 <radioTxData>
 8002612:	4603      	mov	r3, r0
 8002614:	f887 3069 	strb.w	r3, [r7, #105]	; 0x69
	if(HAL_Status != HAL_OK)
 8002618:	f897 3069 	ldrb.w	r3, [r7, #105]	; 0x69
 800261c:	2b00      	cmp	r3, #0
 800261e:	d001      	beq.n	8002624 <processCallSign+0x98>
	{
	  status = 0;
 8002620:	2300      	movs	r3, #0
 8002622:	66fb      	str	r3, [r7, #108]	; 0x6c
	}
	HAL_Status = setCW();
 8002624:	f002 f812 	bl	800464c <setCW>
 8002628:	4603      	mov	r3, r0
 800262a:	f887 3069 	strb.w	r3, [r7, #105]	; 0x69
	if(HAL_Status != HAL_OK)
 800262e:	f897 3069 	ldrb.w	r3, [r7, #105]	; 0x69
 8002632:	2b00      	cmp	r3, #0
 8002634:	d001      	beq.n	800263a <processCallSign+0xae>
	{
	  status = 0;
 8002636:	2300      	movs	r3, #0
 8002638:	66fb      	str	r3, [r7, #108]	; 0x6c
	}
	sendCallCW(CALL_SIGN,strlen(CALL_SIGN));
 800263a:	2105      	movs	r1, #5
 800263c:	4810      	ldr	r0, [pc, #64]	; (8002680 <processCallSign+0xf4>)
 800263e:	f000 ff7f 	bl	8003540 <sendCallCW>
	HAL_Delay(300);
 8002642:	f44f 7096 	mov.w	r0, #300	; 0x12c
 8002646:	f002 ff19 	bl	800547c <HAL_Delay>
	HAL_Status = setPreamble();
 800264a:	f002 f81b 	bl	8004684 <setPreamble>
 800264e:	4603      	mov	r3, r0
 8002650:	f887 3069 	strb.w	r3, [r7, #105]	; 0x69
	if(HAL_Status != HAL_OK)
 8002654:	f897 3069 	ldrb.w	r3, [r7, #105]	; 0x69
 8002658:	2b00      	cmp	r3, #0
 800265a:	d001      	beq.n	8002660 <processCallSign+0xd4>
	{
	  status = 0;
 800265c:	2300      	movs	r3, #0
 800265e:	66fb      	str	r3, [r7, #108]	; 0x6c
	}
	HAL_Status = setGFSK();
 8002660:	f002 f802 	bl	8004668 <setGFSK>
 8002664:	4603      	mov	r3, r0
 8002666:	f887 3069 	strb.w	r3, [r7, #105]	; 0x69
	if(HAL_Status != HAL_OK)
 800266a:	f897 3069 	ldrb.w	r3, [r7, #105]	; 0x69
 800266e:	2b00      	cmp	r3, #0
 8002670:	d001      	beq.n	8002676 <processCallSign+0xea>
	{
	  status = 0;
 8002672:	2300      	movs	r3, #0
 8002674:	66fb      	str	r3, [r7, #108]	; 0x6c
	}
	return status;
 8002676:	6efb      	ldr	r3, [r7, #108]	; 0x6c
}
 8002678:	4618      	mov	r0, r3
 800267a:	3770      	adds	r7, #112	; 0x70
 800267c:	46bd      	mov	sp, r7
 800267e:	bdb0      	pop	{r4, r5, r7, pc}
 8002680:	08008684 	.word	0x08008684

08002684 <resetCam>:
 0x00,//xh
 0x00 //xl
};

CAM_StatusTypeDef resetCam(UART_HandleTypeDef *huart)
{
 8002684:	b580      	push	{r7, lr}
 8002686:	b08c      	sub	sp, #48	; 0x30
 8002688:	af02      	add	r7, sp, #8
 800268a:	6078      	str	r0, [r7, #4]
	HAL_StatusTypeDef HAL_Status;
	CAM_StatusTypeDef camStatus  = CAM_OK;
 800268c:	2300      	movs	r3, #0
 800268e:	f887 3027 	strb.w	r3, [r7, #39]	; 0x27

	uint8_t resetCmd[] = { 0x56, 0x00, 0x26, 0x00 };
 8002692:	4b23      	ldr	r3, [pc, #140]	; (8002720 <resetCam+0x9c>)
 8002694:	61bb      	str	r3, [r7, #24]
	uint8_t expectedRsp[] = {0x76, 0x00, 0x26, 0x00 };
 8002696:	4b23      	ldr	r3, [pc, #140]	; (8002724 <resetCam+0xa0>)
 8002698:	617b      	str	r3, [r7, #20]
	uint8_t rspBuf[4];
	uint16_t received;

	HAL_Status = HAL_UART_Transmit(huart,resetCmd,sizeof(resetCmd),1000);
 800269a:	f107 0118 	add.w	r1, r7, #24
 800269e:	f44f 737a 	mov.w	r3, #1000	; 0x3e8
 80026a2:	2204      	movs	r2, #4
 80026a4:	6878      	ldr	r0, [r7, #4]
 80026a6:	f005 fcb0 	bl	800800a <HAL_UART_Transmit>
 80026aa:	4603      	mov	r3, r0
 80026ac:	77fb      	strb	r3, [r7, #31]
	if(HAL_Status != HAL_OK)
 80026ae:	7ffb      	ldrb	r3, [r7, #31]
 80026b0:	2b00      	cmp	r3, #0
 80026b2:	d003      	beq.n	80026bc <resetCam+0x38>
	{
		camStatus = CAM_FAIL;
 80026b4:	2301      	movs	r3, #1
 80026b6:	f887 3027 	strb.w	r3, [r7, #39]	; 0x27
 80026ba:	e02b      	b.n	8002714 <resetCam+0x90>
	}
	else
	{
	  HAL_Status = HAL_UARTEx_ReceiveToIdle(huart, rspBuf, sizeof(rspBuf), &received, 3000);
 80026bc:	f107 030e 	add.w	r3, r7, #14
 80026c0:	f107 0110 	add.w	r1, r7, #16
 80026c4:	f640 32b8 	movw	r2, #3000	; 0xbb8
 80026c8:	9200      	str	r2, [sp, #0]
 80026ca:	2204      	movs	r2, #4
 80026cc:	6878      	ldr	r0, [r7, #4]
 80026ce:	f005 fd2e 	bl	800812e <HAL_UARTEx_ReceiveToIdle>
 80026d2:	4603      	mov	r3, r0
 80026d4:	77fb      	strb	r3, [r7, #31]
	  if(received != sizeof(rspBuf))
 80026d6:	89fb      	ldrh	r3, [r7, #14]
 80026d8:	2b04      	cmp	r3, #4
 80026da:	d003      	beq.n	80026e4 <resetCam+0x60>
	  {
		  camStatus = CAM_FAIL;
 80026dc:	2301      	movs	r3, #1
 80026de:	f887 3027 	strb.w	r3, [r7, #39]	; 0x27
 80026e2:	e017      	b.n	8002714 <resetCam+0x90>
	  }
	  else
	  {
		  for(int i=0;i<sizeof(rspBuf);i++)
 80026e4:	2300      	movs	r3, #0
 80026e6:	623b      	str	r3, [r7, #32]
 80026e8:	e011      	b.n	800270e <resetCam+0x8a>
		  {
			  if(rspBuf[i] != expectedRsp[i])
 80026ea:	f107 0210 	add.w	r2, r7, #16
 80026ee:	6a3b      	ldr	r3, [r7, #32]
 80026f0:	4413      	add	r3, r2
 80026f2:	781a      	ldrb	r2, [r3, #0]
 80026f4:	f107 0114 	add.w	r1, r7, #20
 80026f8:	6a3b      	ldr	r3, [r7, #32]
 80026fa:	440b      	add	r3, r1
 80026fc:	781b      	ldrb	r3, [r3, #0]
 80026fe:	429a      	cmp	r2, r3
 8002700:	d002      	beq.n	8002708 <resetCam+0x84>
			  {
				  camStatus = CAM_FAIL;
 8002702:	2301      	movs	r3, #1
 8002704:	f887 3027 	strb.w	r3, [r7, #39]	; 0x27
		  for(int i=0;i<sizeof(rspBuf);i++)
 8002708:	6a3b      	ldr	r3, [r7, #32]
 800270a:	3301      	adds	r3, #1
 800270c:	623b      	str	r3, [r7, #32]
 800270e:	6a3b      	ldr	r3, [r7, #32]
 8002710:	2b03      	cmp	r3, #3
 8002712:	d9ea      	bls.n	80026ea <resetCam+0x66>
			  }
		  }
	  }
	}

  return camStatus;
 8002714:	f897 3027 	ldrb.w	r3, [r7, #39]	; 0x27
}
 8002718:	4618      	mov	r0, r3
 800271a:	3728      	adds	r7, #40	; 0x28
 800271c:	46bd      	mov	sp, r7
 800271e:	bd80      	pop	{r7, pc}
 8002720:	00260056 	.word	0x00260056
 8002724:	00260076 	.word	0x00260076

08002728 <stopTakingPicture>:

  return camStatus;
}

CAM_StatusTypeDef stopTakingPicture(UART_HandleTypeDef *huart)
{
 8002728:	b580      	push	{r7, lr}
 800272a:	b08e      	sub	sp, #56	; 0x38
 800272c:	af02      	add	r7, sp, #8
 800272e:	6078      	str	r0, [r7, #4]

	CAM_StatusTypeDef camStatus  = CAM_OK;
 8002730:	2300      	movs	r3, #0
 8002732:	f887 302f 	strb.w	r3, [r7, #47]	; 0x2f

	HAL_StatusTypeDef HAL_Status;

	uint8_t stopTakingPictureCmd[] = { 0x56, 0x00, 0x36, 0x01, 0x03 };
 8002736:	4a2c      	ldr	r2, [pc, #176]	; (80027e8 <stopTakingPicture+0xc0>)
 8002738:	f107 0320 	add.w	r3, r7, #32
 800273c:	e892 0003 	ldmia.w	r2, {r0, r1}
 8002740:	6018      	str	r0, [r3, #0]
 8002742:	3304      	adds	r3, #4
 8002744:	7019      	strb	r1, [r3, #0]
	uint8_t expectedRsp[] = {0x76, 0x00, 0x36, 0x00, 0x00 };
 8002746:	4a29      	ldr	r2, [pc, #164]	; (80027ec <stopTakingPicture+0xc4>)
 8002748:	f107 0318 	add.w	r3, r7, #24
 800274c:	e892 0003 	ldmia.w	r2, {r0, r1}
 8002750:	6018      	str	r0, [r3, #0]
 8002752:	3304      	adds	r3, #4
 8002754:	7019      	strb	r1, [r3, #0]
	uint8_t rspBuf[5];
	uint16_t received;

	totReveived     = 0;
 8002756:	4b26      	ldr	r3, [pc, #152]	; (80027f0 <stopTakingPicture+0xc8>)
 8002758:	2200      	movs	r2, #0
 800275a:	601a      	str	r2, [r3, #0]

	HAL_Status = HAL_UART_Transmit(huart,stopTakingPictureCmd,sizeof(stopTakingPictureCmd),1000);
 800275c:	f107 0120 	add.w	r1, r7, #32
 8002760:	f44f 737a 	mov.w	r3, #1000	; 0x3e8
 8002764:	2205      	movs	r2, #5
 8002766:	6878      	ldr	r0, [r7, #4]
 8002768:	f005 fc4f 	bl	800800a <HAL_UART_Transmit>
 800276c:	4603      	mov	r3, r0
 800276e:	f887 3027 	strb.w	r3, [r7, #39]	; 0x27
	if(HAL_Status != HAL_OK)
 8002772:	f897 3027 	ldrb.w	r3, [r7, #39]	; 0x27
 8002776:	2b00      	cmp	r3, #0
 8002778:	d003      	beq.n	8002782 <stopTakingPicture+0x5a>
	{
		camStatus = CAM_FAIL;
 800277a:	2301      	movs	r3, #1
 800277c:	f887 302f 	strb.w	r3, [r7, #47]	; 0x2f
 8002780:	e02c      	b.n	80027dc <stopTakingPicture+0xb4>
	}
	else
	{
	  HAL_Status = HAL_UARTEx_ReceiveToIdle(huart, rspBuf, sizeof(rspBuf), &received, 3000);
 8002782:	f107 030e 	add.w	r3, r7, #14
 8002786:	f107 0110 	add.w	r1, r7, #16
 800278a:	f640 32b8 	movw	r2, #3000	; 0xbb8
 800278e:	9200      	str	r2, [sp, #0]
 8002790:	2205      	movs	r2, #5
 8002792:	6878      	ldr	r0, [r7, #4]
 8002794:	f005 fccb 	bl	800812e <HAL_UARTEx_ReceiveToIdle>
 8002798:	4603      	mov	r3, r0
 800279a:	f887 3027 	strb.w	r3, [r7, #39]	; 0x27
	  if(received != sizeof(rspBuf))
 800279e:	89fb      	ldrh	r3, [r7, #14]
 80027a0:	2b05      	cmp	r3, #5
 80027a2:	d003      	beq.n	80027ac <stopTakingPicture+0x84>
	  {
		camStatus = CAM_FAIL;
 80027a4:	2301      	movs	r3, #1
 80027a6:	f887 302f 	strb.w	r3, [r7, #47]	; 0x2f
 80027aa:	e017      	b.n	80027dc <stopTakingPicture+0xb4>
	  }
	  else
	  {
		  for(int i=0;i<sizeof(rspBuf);i++)
 80027ac:	2300      	movs	r3, #0
 80027ae:	62bb      	str	r3, [r7, #40]	; 0x28
 80027b0:	e011      	b.n	80027d6 <stopTakingPicture+0xae>
		  {
			  if(rspBuf[i] != expectedRsp[i])
 80027b2:	f107 0210 	add.w	r2, r7, #16
 80027b6:	6abb      	ldr	r3, [r7, #40]	; 0x28
 80027b8:	4413      	add	r3, r2
 80027ba:	781a      	ldrb	r2, [r3, #0]
 80027bc:	f107 0118 	add.w	r1, r7, #24
 80027c0:	6abb      	ldr	r3, [r7, #40]	; 0x28
 80027c2:	440b      	add	r3, r1
 80027c4:	781b      	ldrb	r3, [r3, #0]
 80027c6:	429a      	cmp	r2, r3
 80027c8:	d002      	beq.n	80027d0 <stopTakingPicture+0xa8>
			  {
				camStatus = CAM_FAIL;
 80027ca:	2301      	movs	r3, #1
 80027cc:	f887 302f 	strb.w	r3, [r7, #47]	; 0x2f
		  for(int i=0;i<sizeof(rspBuf);i++)
 80027d0:	6abb      	ldr	r3, [r7, #40]	; 0x28
 80027d2:	3301      	adds	r3, #1
 80027d4:	62bb      	str	r3, [r7, #40]	; 0x28
 80027d6:	6abb      	ldr	r3, [r7, #40]	; 0x28
 80027d8:	2b04      	cmp	r3, #4
 80027da:	d9ea      	bls.n	80027b2 <stopTakingPicture+0x8a>
			  }
		  }
	  }
	}

  return camStatus;
 80027dc:	f897 302f 	ldrb.w	r3, [r7, #47]	; 0x2f
}
 80027e0:	4618      	mov	r0, r3
 80027e2:	3730      	adds	r7, #48	; 0x30
 80027e4:	46bd      	mov	sp, r7
 80027e6:	bd80      	pop	{r7, pc}
 80027e8:	0800869c 	.word	0x0800869c
 80027ec:	08008694 	.word	0x08008694
 80027f0:	20000090 	.word	0x20000090

080027f4 <setPhotoSize>:

CAM_StatusTypeDef setPhotoSize(UART_HandleTypeDef *huart)
{
 80027f4:	b580      	push	{r7, lr}
 80027f6:	b08e      	sub	sp, #56	; 0x38
 80027f8:	af02      	add	r7, sp, #8
 80027fa:	6078      	str	r0, [r7, #4]
	CAM_StatusTypeDef camStatus  = CAM_OK;
 80027fc:	2300      	movs	r3, #0
 80027fe:	f887 302f 	strb.w	r3, [r7, #47]	; 0x2f
	HAL_StatusTypeDef HAL_Status;

	uint8_t setPhotoSizeCmd[] = { 0x56, 0x00, 0x31, 0x05, 0x04, 0x01, 0x00, 0x19, 0x00 };
 8002802:	4a2a      	ldr	r2, [pc, #168]	; (80028ac <setPhotoSize+0xb8>)
 8002804:	f107 031c 	add.w	r3, r7, #28
 8002808:	ca07      	ldmia	r2, {r0, r1, r2}
 800280a:	c303      	stmia	r3!, {r0, r1}
 800280c:	701a      	strb	r2, [r3, #0]
	uint8_t expectedRsp[] = {0x76, 0x00, 0x31, 0x00, 0x00 };
 800280e:	4a28      	ldr	r2, [pc, #160]	; (80028b0 <setPhotoSize+0xbc>)
 8002810:	f107 0314 	add.w	r3, r7, #20
 8002814:	e892 0003 	ldmia.w	r2, {r0, r1}
 8002818:	6018      	str	r0, [r3, #0]
 800281a:	3304      	adds	r3, #4
 800281c:	7019      	strb	r1, [r3, #0]
	uint8_t rspBuf[5];
	uint16_t received;

	HAL_Status = HAL_UART_Transmit(huart,setPhotoSizeCmd,sizeof(setPhotoSizeCmd),1000);
 800281e:	f107 011c 	add.w	r1, r7, #28
 8002822:	f44f 737a 	mov.w	r3, #1000	; 0x3e8
 8002826:	2209      	movs	r2, #9
 8002828:	6878      	ldr	r0, [r7, #4]
 800282a:	f005 fbee 	bl	800800a <HAL_UART_Transmit>
 800282e:	4603      	mov	r3, r0
 8002830:	f887 3027 	strb.w	r3, [r7, #39]	; 0x27
	if(HAL_Status != HAL_OK)
 8002834:	f897 3027 	ldrb.w	r3, [r7, #39]	; 0x27
 8002838:	2b00      	cmp	r3, #0
 800283a:	d003      	beq.n	8002844 <setPhotoSize+0x50>
	{
		camStatus = CAM_FAIL;
 800283c:	2301      	movs	r3, #1
 800283e:	f887 302f 	strb.w	r3, [r7, #47]	; 0x2f
 8002842:	e02c      	b.n	800289e <setPhotoSize+0xaa>
	}
	else
	{
	  HAL_Status = HAL_UARTEx_ReceiveToIdle(huart, rspBuf, sizeof(rspBuf), &received, 3000);
 8002844:	f107 030a 	add.w	r3, r7, #10
 8002848:	f107 010c 	add.w	r1, r7, #12
 800284c:	f640 32b8 	movw	r2, #3000	; 0xbb8
 8002850:	9200      	str	r2, [sp, #0]
 8002852:	2205      	movs	r2, #5
 8002854:	6878      	ldr	r0, [r7, #4]
 8002856:	f005 fc6a 	bl	800812e <HAL_UARTEx_ReceiveToIdle>
 800285a:	4603      	mov	r3, r0
 800285c:	f887 3027 	strb.w	r3, [r7, #39]	; 0x27
	  if(received != sizeof(rspBuf))
 8002860:	897b      	ldrh	r3, [r7, #10]
 8002862:	2b05      	cmp	r3, #5
 8002864:	d003      	beq.n	800286e <setPhotoSize+0x7a>
	  {
		camStatus = CAM_FAIL;
 8002866:	2301      	movs	r3, #1
 8002868:	f887 302f 	strb.w	r3, [r7, #47]	; 0x2f
 800286c:	e017      	b.n	800289e <setPhotoSize+0xaa>
	  }
	  else
	  {
		  for(int i=0;i<sizeof(rspBuf);i++)
 800286e:	2300      	movs	r3, #0
 8002870:	62bb      	str	r3, [r7, #40]	; 0x28
 8002872:	e011      	b.n	8002898 <setPhotoSize+0xa4>
		  {
			  if(rspBuf[i] != expectedRsp[i])
 8002874:	f107 020c 	add.w	r2, r7, #12
 8002878:	6abb      	ldr	r3, [r7, #40]	; 0x28
 800287a:	4413      	add	r3, r2
 800287c:	781a      	ldrb	r2, [r3, #0]
 800287e:	f107 0114 	add.w	r1, r7, #20
 8002882:	6abb      	ldr	r3, [r7, #40]	; 0x28
 8002884:	440b      	add	r3, r1
 8002886:	781b      	ldrb	r3, [r3, #0]
 8002888:	429a      	cmp	r2, r3
 800288a:	d002      	beq.n	8002892 <setPhotoSize+0x9e>
			  {
				camStatus = CAM_FAIL;
 800288c:	2301      	movs	r3, #1
 800288e:	f887 302f 	strb.w	r3, [r7, #47]	; 0x2f
		  for(int i=0;i<sizeof(rspBuf);i++)
 8002892:	6abb      	ldr	r3, [r7, #40]	; 0x28
 8002894:	3301      	adds	r3, #1
 8002896:	62bb      	str	r3, [r7, #40]	; 0x28
 8002898:	6abb      	ldr	r3, [r7, #40]	; 0x28
 800289a:	2b04      	cmp	r3, #4
 800289c:	d9ea      	bls.n	8002874 <setPhotoSize+0x80>
			  }
		  }
	  }
	}

	return camStatus;
 800289e:	f897 302f 	ldrb.w	r3, [r7, #47]	; 0x2f
}
 80028a2:	4618      	mov	r0, r3
 80028a4:	3730      	adds	r7, #48	; 0x30
 80028a6:	46bd      	mov	sp, r7
 80028a8:	bd80      	pop	{r7, pc}
 80028aa:	bf00      	nop
 80028ac:	080086a4 	.word	0x080086a4
 80028b0:	080086b0 	.word	0x080086b0

080028b4 <setCompression>:


CAM_StatusTypeDef setCompression(UART_HandleTypeDef *huart)
{
 80028b4:	b580      	push	{r7, lr}
 80028b6:	b08e      	sub	sp, #56	; 0x38
 80028b8:	af02      	add	r7, sp, #8
 80028ba:	6078      	str	r0, [r7, #4]
	CAM_StatusTypeDef camStatus  = CAM_OK;
 80028bc:	2300      	movs	r3, #0
 80028be:	f887 302f 	strb.w	r3, [r7, #47]	; 0x2f
	HAL_StatusTypeDef HAL_Status;

	uint8_t setCompressionCmd[] = { 0x56, 0x00, 0x31, 0x05, 0x01, 0x01, 0x12, 0x04, 0x36 };
 80028c2:	4a2a      	ldr	r2, [pc, #168]	; (800296c <setCompression+0xb8>)
 80028c4:	f107 031c 	add.w	r3, r7, #28
 80028c8:	ca07      	ldmia	r2, {r0, r1, r2}
 80028ca:	c303      	stmia	r3!, {r0, r1}
 80028cc:	701a      	strb	r2, [r3, #0]
	uint8_t expectedRsp[] = {0x76, 0x00, 0x31, 0x00, 0x00 };
 80028ce:	4a28      	ldr	r2, [pc, #160]	; (8002970 <setCompression+0xbc>)
 80028d0:	f107 0314 	add.w	r3, r7, #20
 80028d4:	e892 0003 	ldmia.w	r2, {r0, r1}
 80028d8:	6018      	str	r0, [r3, #0]
 80028da:	3304      	adds	r3, #4
 80028dc:	7019      	strb	r1, [r3, #0]
	uint8_t rspBuf[5];
	uint16_t received;

	HAL_Status = HAL_UART_Transmit(huart,setCompressionCmd,sizeof(setCompressionCmd),1000);
 80028de:	f107 011c 	add.w	r1, r7, #28
 80028e2:	f44f 737a 	mov.w	r3, #1000	; 0x3e8
 80028e6:	2209      	movs	r2, #9
 80028e8:	6878      	ldr	r0, [r7, #4]
 80028ea:	f005 fb8e 	bl	800800a <HAL_UART_Transmit>
 80028ee:	4603      	mov	r3, r0
 80028f0:	f887 3027 	strb.w	r3, [r7, #39]	; 0x27
	if(HAL_Status != HAL_OK)
 80028f4:	f897 3027 	ldrb.w	r3, [r7, #39]	; 0x27
 80028f8:	2b00      	cmp	r3, #0
 80028fa:	d003      	beq.n	8002904 <setCompression+0x50>
	{
		camStatus = CAM_FAIL;
 80028fc:	2301      	movs	r3, #1
 80028fe:	f887 302f 	strb.w	r3, [r7, #47]	; 0x2f
 8002902:	e02c      	b.n	800295e <setCompression+0xaa>
	}
	else
	{
	  HAL_Status = HAL_UARTEx_ReceiveToIdle(huart, rspBuf, sizeof(rspBuf), &received, 3000);
 8002904:	f107 030a 	add.w	r3, r7, #10
 8002908:	f107 010c 	add.w	r1, r7, #12
 800290c:	f640 32b8 	movw	r2, #3000	; 0xbb8
 8002910:	9200      	str	r2, [sp, #0]
 8002912:	2205      	movs	r2, #5
 8002914:	6878      	ldr	r0, [r7, #4]
 8002916:	f005 fc0a 	bl	800812e <HAL_UARTEx_ReceiveToIdle>
 800291a:	4603      	mov	r3, r0
 800291c:	f887 3027 	strb.w	r3, [r7, #39]	; 0x27
	  if(received != sizeof(rspBuf))
 8002920:	897b      	ldrh	r3, [r7, #10]
 8002922:	2b05      	cmp	r3, #5
 8002924:	d003      	beq.n	800292e <setCompression+0x7a>
	  {
		camStatus = CAM_FAIL;
 8002926:	2301      	movs	r3, #1
 8002928:	f887 302f 	strb.w	r3, [r7, #47]	; 0x2f
 800292c:	e017      	b.n	800295e <setCompression+0xaa>
	  }
	  else
	  {
		  for(int i=0;i<sizeof(rspBuf);i++)
 800292e:	2300      	movs	r3, #0
 8002930:	62bb      	str	r3, [r7, #40]	; 0x28
 8002932:	e011      	b.n	8002958 <setCompression+0xa4>
		  {
			  if(rspBuf[i] != expectedRsp[i])
 8002934:	f107 020c 	add.w	r2, r7, #12
 8002938:	6abb      	ldr	r3, [r7, #40]	; 0x28
 800293a:	4413      	add	r3, r2
 800293c:	781a      	ldrb	r2, [r3, #0]
 800293e:	f107 0114 	add.w	r1, r7, #20
 8002942:	6abb      	ldr	r3, [r7, #40]	; 0x28
 8002944:	440b      	add	r3, r1
 8002946:	781b      	ldrb	r3, [r3, #0]
 8002948:	429a      	cmp	r2, r3
 800294a:	d002      	beq.n	8002952 <setCompression+0x9e>
			  {
				camStatus = CAM_FAIL;
 800294c:	2301      	movs	r3, #1
 800294e:	f887 302f 	strb.w	r3, [r7, #47]	; 0x2f
		  for(int i=0;i<sizeof(rspBuf);i++)
 8002952:	6abb      	ldr	r3, [r7, #40]	; 0x28
 8002954:	3301      	adds	r3, #1
 8002956:	62bb      	str	r3, [r7, #40]	; 0x28
 8002958:	6abb      	ldr	r3, [r7, #40]	; 0x28
 800295a:	2b04      	cmp	r3, #4
 800295c:	d9ea      	bls.n	8002934 <setCompression+0x80>
			  }
		  }
	  }
	}

	return camStatus;
 800295e:	f897 302f 	ldrb.w	r3, [r7, #47]	; 0x2f
}
 8002962:	4618      	mov	r0, r3
 8002964:	3730      	adds	r7, #48	; 0x30
 8002966:	46bd      	mov	sp, r7
 8002968:	bd80      	pop	{r7, pc}
 800296a:	bf00      	nop
 800296c:	080086b8 	.word	0x080086b8
 8002970:	080086b0 	.word	0x080086b0

08002974 <getLenOfPhoto>:

CAM_StatusTypeDef getLenOfPhoto(UART_HandleTypeDef *huart, uint16_t *len)
{
 8002974:	b580      	push	{r7, lr}
 8002976:	b090      	sub	sp, #64	; 0x40
 8002978:	af02      	add	r7, sp, #8
 800297a:	6078      	str	r0, [r7, #4]
 800297c:	6039      	str	r1, [r7, #0]
	CAM_StatusTypeDef camStatus  = CAM_OK;
 800297e:	2300      	movs	r3, #0
 8002980:	f887 3037 	strb.w	r3, [r7, #55]	; 0x37
	HAL_StatusTypeDef HAL_Status;

	uint16_t rtnLen;

	uint8_t getLenOfPhotoCmd[] = { 0x56, 0x00, 0x34, 0x01, 0x00};
 8002984:	4a3e      	ldr	r2, [pc, #248]	; (8002a80 <getLenOfPhoto+0x10c>)
 8002986:	f107 0324 	add.w	r3, r7, #36	; 0x24
 800298a:	e892 0003 	ldmia.w	r2, {r0, r1}
 800298e:	6018      	str	r0, [r3, #0]
 8002990:	3304      	adds	r3, #4
 8002992:	7019      	strb	r1, [r3, #0]
	uint8_t expectedRsp[] = {0x76, 0x00, 0x34, 0x00, 0x04, 0x00, 0x00};
 8002994:	4a3b      	ldr	r2, [pc, #236]	; (8002a84 <getLenOfPhoto+0x110>)
 8002996:	f107 031c 	add.w	r3, r7, #28
 800299a:	e892 0003 	ldmia.w	r2, {r0, r1}
 800299e:	6018      	str	r0, [r3, #0]
 80029a0:	3304      	adds	r3, #4
 80029a2:	8019      	strh	r1, [r3, #0]
 80029a4:	3302      	adds	r3, #2
 80029a6:	0c0a      	lsrs	r2, r1, #16
 80029a8:	701a      	strb	r2, [r3, #0]
	uint8_t rspBuf[9];
	uint16_t received;

	HAL_Status = HAL_UART_Transmit(huart,getLenOfPhotoCmd,sizeof(getLenOfPhotoCmd),1000);
 80029aa:	f107 0124 	add.w	r1, r7, #36	; 0x24
 80029ae:	f44f 737a 	mov.w	r3, #1000	; 0x3e8
 80029b2:	2205      	movs	r2, #5
 80029b4:	6878      	ldr	r0, [r7, #4]
 80029b6:	f005 fb28 	bl	800800a <HAL_UART_Transmit>
 80029ba:	4603      	mov	r3, r0
 80029bc:	f887 302f 	strb.w	r3, [r7, #47]	; 0x2f
	if(HAL_Status != HAL_OK)
 80029c0:	f897 302f 	ldrb.w	r3, [r7, #47]	; 0x2f
 80029c4:	2b00      	cmp	r3, #0
 80029c6:	d003      	beq.n	80029d0 <getLenOfPhoto+0x5c>
	{
		camStatus = CAM_FAIL;
 80029c8:	2301      	movs	r3, #1
 80029ca:	f887 3037 	strb.w	r3, [r7, #55]	; 0x37
 80029ce:	e051      	b.n	8002a74 <getLenOfPhoto+0x100>
	}
	else
	{
	  HAL_Status = HAL_UARTEx_ReceiveToIdle(huart, rspBuf, sizeof(rspBuf), &received, 3000);
 80029d0:	f107 030e 	add.w	r3, r7, #14
 80029d4:	f107 0110 	add.w	r1, r7, #16
 80029d8:	f640 32b8 	movw	r2, #3000	; 0xbb8
 80029dc:	9200      	str	r2, [sp, #0]
 80029de:	2209      	movs	r2, #9
 80029e0:	6878      	ldr	r0, [r7, #4]
 80029e2:	f005 fba4 	bl	800812e <HAL_UARTEx_ReceiveToIdle>
 80029e6:	4603      	mov	r3, r0
 80029e8:	f887 302f 	strb.w	r3, [r7, #47]	; 0x2f
	  if(received != sizeof(rspBuf))
 80029ec:	89fb      	ldrh	r3, [r7, #14]
 80029ee:	2b09      	cmp	r3, #9
 80029f0:	d003      	beq.n	80029fa <getLenOfPhoto+0x86>
	  {
		 camStatus = CAM_FAIL;
 80029f2:	2301      	movs	r3, #1
 80029f4:	f887 3037 	strb.w	r3, [r7, #55]	; 0x37
 80029f8:	e03c      	b.n	8002a74 <getLenOfPhoto+0x100>
	  }
	  else
	  {
		  for(int i=0;i<sizeof(rspBuf)-2;i++)
 80029fa:	2300      	movs	r3, #0
 80029fc:	633b      	str	r3, [r7, #48]	; 0x30
 80029fe:	e011      	b.n	8002a24 <getLenOfPhoto+0xb0>
		  {
			  if(rspBuf[i] != expectedRsp[i])
 8002a00:	f107 0210 	add.w	r2, r7, #16
 8002a04:	6b3b      	ldr	r3, [r7, #48]	; 0x30
 8002a06:	4413      	add	r3, r2
 8002a08:	781a      	ldrb	r2, [r3, #0]
 8002a0a:	f107 011c 	add.w	r1, r7, #28
 8002a0e:	6b3b      	ldr	r3, [r7, #48]	; 0x30
 8002a10:	440b      	add	r3, r1
 8002a12:	781b      	ldrb	r3, [r3, #0]
 8002a14:	429a      	cmp	r2, r3
 8002a16:	d002      	beq.n	8002a1e <getLenOfPhoto+0xaa>
			  {
				 camStatus = CAM_FAIL;
 8002a18:	2301      	movs	r3, #1
 8002a1a:	f887 3037 	strb.w	r3, [r7, #55]	; 0x37
		  for(int i=0;i<sizeof(rspBuf)-2;i++)
 8002a1e:	6b3b      	ldr	r3, [r7, #48]	; 0x30
 8002a20:	3301      	adds	r3, #1
 8002a22:	633b      	str	r3, [r7, #48]	; 0x30
 8002a24:	6b3b      	ldr	r3, [r7, #48]	; 0x30
 8002a26:	2b06      	cmp	r3, #6
 8002a28:	d9ea      	bls.n	8002a00 <getLenOfPhoto+0x8c>
			  }
		  }

		  if(camStatus == CAM_OK)
 8002a2a:	f897 3037 	ldrb.w	r3, [r7, #55]	; 0x37
 8002a2e:	2b00      	cmp	r3, #0
 8002a30:	d120      	bne.n	8002a74 <getLenOfPhoto+0x100>
		  {
			  rtnLen = (uint16_t)(rspBuf[sizeof(rspBuf)-2] << 8 | rspBuf[sizeof(rspBuf)-1]);
 8002a32:	7dfb      	ldrb	r3, [r7, #23]
 8002a34:	021b      	lsls	r3, r3, #8
 8002a36:	b21a      	sxth	r2, r3
 8002a38:	7e3b      	ldrb	r3, [r7, #24]
 8002a3a:	b21b      	sxth	r3, r3
 8002a3c:	4313      	orrs	r3, r2
 8002a3e:	b21b      	sxth	r3, r3
 8002a40:	85bb      	strh	r3, [r7, #44]	; 0x2c
			  *len = rtnLen;
 8002a42:	683b      	ldr	r3, [r7, #0]
 8002a44:	8dba      	ldrh	r2, [r7, #44]	; 0x2c
 8002a46:	801a      	strh	r2, [r3, #0]
			  lenFromCam = rtnLen;
 8002a48:	8dbb      	ldrh	r3, [r7, #44]	; 0x2c
 8002a4a:	4a0f      	ldr	r2, [pc, #60]	; (8002a88 <getLenOfPhoto+0x114>)
 8002a4c:	6013      	str	r3, [r2, #0]
			  if( (rtnLen % IMG_BUF_DATA_SIZE) != 0 )
 8002a4e:	8dba      	ldrh	r2, [r7, #44]	; 0x2c
 8002a50:	08d3      	lsrs	r3, r2, #3
 8002a52:	490e      	ldr	r1, [pc, #56]	; (8002a8c <getLenOfPhoto+0x118>)
 8002a54:	fba1 3103 	umull	r3, r1, r1, r3
 8002a58:	460b      	mov	r3, r1
 8002a5a:	00db      	lsls	r3, r3, #3
 8002a5c:	1a5b      	subs	r3, r3, r1
 8002a5e:	00db      	lsls	r3, r3, #3
 8002a60:	1ad3      	subs	r3, r2, r3
 8002a62:	b29b      	uxth	r3, r3
 8002a64:	2b00      	cmp	r3, #0
 8002a66:	d005      	beq.n	8002a74 <getLenOfPhoto+0x100>
			  {
				  camStatus = CAM_FAIL;
 8002a68:	2301      	movs	r3, #1
 8002a6a:	f887 3037 	strb.w	r3, [r7, #55]	; 0x37
					HAL_Delay(100);
 8002a6e:	2064      	movs	r0, #100	; 0x64
 8002a70:	f002 fd04 	bl	800547c <HAL_Delay>
			  }
		  }
	  }
	}

	return camStatus;
 8002a74:	f897 3037 	ldrb.w	r3, [r7, #55]	; 0x37
}
 8002a78:	4618      	mov	r0, r3
 8002a7a:	3738      	adds	r7, #56	; 0x38
 8002a7c:	46bd      	mov	sp, r7
 8002a7e:	bd80      	pop	{r7, pc}
 8002a80:	080086c4 	.word	0x080086c4
 8002a84:	080086cc 	.word	0x080086cc
 8002a88:	20000094 	.word	0x20000094
 8002a8c:	24924925 	.word	0x24924925

08002a90 <takePhoto>:

CAM_StatusTypeDef takePhoto(UART_HandleTypeDef *huart)
{
 8002a90:	b580      	push	{r7, lr}
 8002a92:	b08e      	sub	sp, #56	; 0x38
 8002a94:	af02      	add	r7, sp, #8
 8002a96:	6078      	str	r0, [r7, #4]
	CAM_StatusTypeDef camStatus  = CAM_OK;
 8002a98:	2300      	movs	r3, #0
 8002a9a:	f887 302f 	strb.w	r3, [r7, #47]	; 0x2f
	HAL_StatusTypeDef HAL_Status;

	uint8_t takePhotoCmd[] = { 0x56, 0x00, 0x36, 0x01, 0x00 };
 8002a9e:	4a2b      	ldr	r2, [pc, #172]	; (8002b4c <takePhoto+0xbc>)
 8002aa0:	f107 0320 	add.w	r3, r7, #32
 8002aa4:	e892 0003 	ldmia.w	r2, {r0, r1}
 8002aa8:	6018      	str	r0, [r3, #0]
 8002aaa:	3304      	adds	r3, #4
 8002aac:	7019      	strb	r1, [r3, #0]
	uint8_t expectedRsp[] = {0x76, 0x00, 0x36, 0x00, 0x00 };
 8002aae:	4a28      	ldr	r2, [pc, #160]	; (8002b50 <takePhoto+0xc0>)
 8002ab0:	f107 0318 	add.w	r3, r7, #24
 8002ab4:	e892 0003 	ldmia.w	r2, {r0, r1}
 8002ab8:	6018      	str	r0, [r3, #0]
 8002aba:	3304      	adds	r3, #4
 8002abc:	7019      	strb	r1, [r3, #0]
	uint8_t rspBuf[5];
	uint16_t received;

	HAL_Status = HAL_UART_Transmit(huart,takePhotoCmd,sizeof(takePhotoCmd),1000);
 8002abe:	f107 0120 	add.w	r1, r7, #32
 8002ac2:	f44f 737a 	mov.w	r3, #1000	; 0x3e8
 8002ac6:	2205      	movs	r2, #5
 8002ac8:	6878      	ldr	r0, [r7, #4]
 8002aca:	f005 fa9e 	bl	800800a <HAL_UART_Transmit>
 8002ace:	4603      	mov	r3, r0
 8002ad0:	f887 3027 	strb.w	r3, [r7, #39]	; 0x27
	if(HAL_Status != HAL_OK)
 8002ad4:	f897 3027 	ldrb.w	r3, [r7, #39]	; 0x27
 8002ad8:	2b00      	cmp	r3, #0
 8002ada:	d003      	beq.n	8002ae4 <takePhoto+0x54>
	{
		camStatus = CAM_FAIL;
 8002adc:	2301      	movs	r3, #1
 8002ade:	f887 302f 	strb.w	r3, [r7, #47]	; 0x2f
 8002ae2:	e02c      	b.n	8002b3e <takePhoto+0xae>
	}
	else
	{
	  HAL_Status = HAL_UARTEx_ReceiveToIdle(huart, rspBuf, sizeof(rspBuf), &received, 3000);
 8002ae4:	f107 030e 	add.w	r3, r7, #14
 8002ae8:	f107 0110 	add.w	r1, r7, #16
 8002aec:	f640 32b8 	movw	r2, #3000	; 0xbb8
 8002af0:	9200      	str	r2, [sp, #0]
 8002af2:	2205      	movs	r2, #5
 8002af4:	6878      	ldr	r0, [r7, #4]
 8002af6:	f005 fb1a 	bl	800812e <HAL_UARTEx_ReceiveToIdle>
 8002afa:	4603      	mov	r3, r0
 8002afc:	f887 3027 	strb.w	r3, [r7, #39]	; 0x27
	  if(received != sizeof(rspBuf))
 8002b00:	89fb      	ldrh	r3, [r7, #14]
 8002b02:	2b05      	cmp	r3, #5
 8002b04:	d003      	beq.n	8002b0e <takePhoto+0x7e>
	  {
		  camStatus = CAM_FAIL;
 8002b06:	2301      	movs	r3, #1
 8002b08:	f887 302f 	strb.w	r3, [r7, #47]	; 0x2f
 8002b0c:	e017      	b.n	8002b3e <takePhoto+0xae>
	  }
	  else
	  {
		  for(int i=0;i<sizeof(rspBuf);i++)
 8002b0e:	2300      	movs	r3, #0
 8002b10:	62bb      	str	r3, [r7, #40]	; 0x28
 8002b12:	e011      	b.n	8002b38 <takePhoto+0xa8>
		  {
			  if(rspBuf[i] != expectedRsp[i])
 8002b14:	f107 0210 	add.w	r2, r7, #16
 8002b18:	6abb      	ldr	r3, [r7, #40]	; 0x28
 8002b1a:	4413      	add	r3, r2
 8002b1c:	781a      	ldrb	r2, [r3, #0]
 8002b1e:	f107 0118 	add.w	r1, r7, #24
 8002b22:	6abb      	ldr	r3, [r7, #40]	; 0x28
 8002b24:	440b      	add	r3, r1
 8002b26:	781b      	ldrb	r3, [r3, #0]
 8002b28:	429a      	cmp	r2, r3
 8002b2a:	d002      	beq.n	8002b32 <takePhoto+0xa2>
			  {
				  camStatus = CAM_FAIL;
 8002b2c:	2301      	movs	r3, #1
 8002b2e:	f887 302f 	strb.w	r3, [r7, #47]	; 0x2f
		  for(int i=0;i<sizeof(rspBuf);i++)
 8002b32:	6abb      	ldr	r3, [r7, #40]	; 0x28
 8002b34:	3301      	adds	r3, #1
 8002b36:	62bb      	str	r3, [r7, #40]	; 0x28
 8002b38:	6abb      	ldr	r3, [r7, #40]	; 0x28
 8002b3a:	2b04      	cmp	r3, #4
 8002b3c:	d9ea      	bls.n	8002b14 <takePhoto+0x84>
			  }
		  }
	  }
	}

  return camStatus;
 8002b3e:	f897 302f 	ldrb.w	r3, [r7, #47]	; 0x2f
}
 8002b42:	4618      	mov	r0, r3
 8002b44:	3730      	adds	r7, #48	; 0x30
 8002b46:	46bd      	mov	sp, r7
 8002b48:	bd80      	pop	{r7, pc}
 8002b4a:	bf00      	nop
 8002b4c:	080086d4 	.word	0x080086d4
 8002b50:	08008694 	.word	0x08008694

08002b54 <readData>:

CAM_StatusTypeDef readData(UART_HandleTypeDef *huart, uint8_t camDataBuf[], uint16_t *len )
{
 8002b54:	b580      	push	{r7, lr}
 8002b56:	b08e      	sub	sp, #56	; 0x38
 8002b58:	af02      	add	r7, sp, #8
 8002b5a:	60f8      	str	r0, [r7, #12]
 8002b5c:	60b9      	str	r1, [r7, #8]
 8002b5e:	607a      	str	r2, [r7, #4]
	CAM_StatusTypeDef status = CAM_OK;
 8002b60:	2300      	movs	r3, #0
 8002b62:	f887 302f 	strb.w	r3, [r7, #47]	; 0x2f
	HAL_StatusTypeDef HAL_Status;

	uint16_t received;

	uint16_t k = CAM_DATA_LEN; // packet size
 8002b66:	2338      	movs	r3, #56	; 0x38
 8002b68:	847b      	strh	r3, [r7, #34]	; 0x22
	uint16_t x = 0; //interval time xx xx * 0.01m[sec]
 8002b6a:	2300      	movs	r3, #0
 8002b6c:	843b      	strh	r3, [r7, #32]
	uint8_t adrMSB;
	uint8_t adrLSB;
	uint8_t intervalMSB;
	uint8_t intervalLSB;

	adrMSB = totReveived >> 8;
 8002b6e:	4b58      	ldr	r3, [pc, #352]	; (8002cd0 <readData+0x17c>)
 8002b70:	681b      	ldr	r3, [r3, #0]
 8002b72:	121b      	asrs	r3, r3, #8
 8002b74:	77fb      	strb	r3, [r7, #31]
	adrLSB = (uint8_t)totReveived;
 8002b76:	4b56      	ldr	r3, [pc, #344]	; (8002cd0 <readData+0x17c>)
 8002b78:	681b      	ldr	r3, [r3, #0]
 8002b7a:	77bb      	strb	r3, [r7, #30]
	readDataCmd[8] = adrMSB;
 8002b7c:	4a55      	ldr	r2, [pc, #340]	; (8002cd4 <readData+0x180>)
 8002b7e:	7ffb      	ldrb	r3, [r7, #31]
 8002b80:	7213      	strb	r3, [r2, #8]
	readDataCmd[9] = adrLSB;
 8002b82:	4a54      	ldr	r2, [pc, #336]	; (8002cd4 <readData+0x180>)
 8002b84:	7fbb      	ldrb	r3, [r7, #30]
 8002b86:	7253      	strb	r3, [r2, #9]

	lenMSB = k >> 8;
 8002b88:	8c7b      	ldrh	r3, [r7, #34]	; 0x22
 8002b8a:	0a1b      	lsrs	r3, r3, #8
 8002b8c:	b29b      	uxth	r3, r3
 8002b8e:	777b      	strb	r3, [r7, #29]
	lenLSB = (uint8_t)k;
 8002b90:	8c7b      	ldrh	r3, [r7, #34]	; 0x22
 8002b92:	773b      	strb	r3, [r7, #28]
	readDataCmd[12] = lenMSB;
 8002b94:	4a4f      	ldr	r2, [pc, #316]	; (8002cd4 <readData+0x180>)
 8002b96:	7f7b      	ldrb	r3, [r7, #29]
 8002b98:	7313      	strb	r3, [r2, #12]
	readDataCmd[13] = lenLSB;
 8002b9a:	4a4e      	ldr	r2, [pc, #312]	; (8002cd4 <readData+0x180>)
 8002b9c:	7f3b      	ldrb	r3, [r7, #28]
 8002b9e:	7353      	strb	r3, [r2, #13]

	intervalMSB = x >> 8;
 8002ba0:	8c3b      	ldrh	r3, [r7, #32]
 8002ba2:	0a1b      	lsrs	r3, r3, #8
 8002ba4:	b29b      	uxth	r3, r3
 8002ba6:	76fb      	strb	r3, [r7, #27]
	intervalLSB = (uint8_t)x;
 8002ba8:	8c3b      	ldrh	r3, [r7, #32]
 8002baa:	76bb      	strb	r3, [r7, #26]
	readDataCmd[14] = intervalMSB;
 8002bac:	4a49      	ldr	r2, [pc, #292]	; (8002cd4 <readData+0x180>)
 8002bae:	7efb      	ldrb	r3, [r7, #27]
 8002bb0:	7393      	strb	r3, [r2, #14]
	readDataCmd[15] = intervalLSB;
 8002bb2:	4a48      	ldr	r2, [pc, #288]	; (8002cd4 <readData+0x180>)
 8002bb4:	7ebb      	ldrb	r3, [r7, #26]
 8002bb6:	73d3      	strb	r3, [r2, #15]

	status = CAM_OK;
 8002bb8:	2300      	movs	r3, #0
 8002bba:	f887 302f 	strb.w	r3, [r7, #47]	; 0x2f

	HAL_Status = HAL_UART_Transmit(huart,readDataCmd,sizeof(readDataCmd),1000);
 8002bbe:	f44f 737a 	mov.w	r3, #1000	; 0x3e8
 8002bc2:	2210      	movs	r2, #16
 8002bc4:	4943      	ldr	r1, [pc, #268]	; (8002cd4 <readData+0x180>)
 8002bc6:	68f8      	ldr	r0, [r7, #12]
 8002bc8:	f005 fa1f 	bl	800800a <HAL_UART_Transmit>
 8002bcc:	4603      	mov	r3, r0
 8002bce:	767b      	strb	r3, [r7, #25]
	if(HAL_Status != HAL_OK)
 8002bd0:	7e7b      	ldrb	r3, [r7, #25]
 8002bd2:	2b00      	cmp	r3, #0
 8002bd4:	d003      	beq.n	8002bde <readData+0x8a>
	{
		status = CAM_FAIL;
 8002bd6:	2301      	movs	r3, #1
 8002bd8:	f887 302f 	strb.w	r3, [r7, #47]	; 0x2f
 8002bdc:	e028      	b.n	8002c30 <readData+0xdc>
	}
	else
	{
		HAL_Status = HAL_UARTEx_ReceiveToIdle(huart, header, sizeof(header), &received, 3000);
 8002bde:	f107 0316 	add.w	r3, r7, #22
 8002be2:	f640 32b8 	movw	r2, #3000	; 0xbb8
 8002be6:	9200      	str	r2, [sp, #0]
 8002be8:	2205      	movs	r2, #5
 8002bea:	493b      	ldr	r1, [pc, #236]	; (8002cd8 <readData+0x184>)
 8002bec:	68f8      	ldr	r0, [r7, #12]
 8002bee:	f005 fa9e 	bl	800812e <HAL_UARTEx_ReceiveToIdle>
 8002bf2:	4603      	mov	r3, r0
 8002bf4:	767b      	strb	r3, [r7, #25]
		if(received != sizeof(header))
 8002bf6:	8afb      	ldrh	r3, [r7, #22]
 8002bf8:	2b05      	cmp	r3, #5
 8002bfa:	d003      	beq.n	8002c04 <readData+0xb0>
		{
			 status = CAM_FAIL;
 8002bfc:	2301      	movs	r3, #1
 8002bfe:	f887 302f 	strb.w	r3, [r7, #47]	; 0x2f
 8002c02:	e015      	b.n	8002c30 <readData+0xdc>
		}
		else
		{
			for(int i=0;i<sizeof(header);i++)
 8002c04:	2300      	movs	r3, #0
 8002c06:	62bb      	str	r3, [r7, #40]	; 0x28
 8002c08:	e00f      	b.n	8002c2a <readData+0xd6>
			{
				if(header[i] != headerRsp[i])
 8002c0a:	4a33      	ldr	r2, [pc, #204]	; (8002cd8 <readData+0x184>)
 8002c0c:	6abb      	ldr	r3, [r7, #40]	; 0x28
 8002c0e:	4413      	add	r3, r2
 8002c10:	781a      	ldrb	r2, [r3, #0]
 8002c12:	4932      	ldr	r1, [pc, #200]	; (8002cdc <readData+0x188>)
 8002c14:	6abb      	ldr	r3, [r7, #40]	; 0x28
 8002c16:	440b      	add	r3, r1
 8002c18:	781b      	ldrb	r3, [r3, #0]
 8002c1a:	429a      	cmp	r2, r3
 8002c1c:	d002      	beq.n	8002c24 <readData+0xd0>
				{
					status = CAM_FAIL;
 8002c1e:	2301      	movs	r3, #1
 8002c20:	f887 302f 	strb.w	r3, [r7, #47]	; 0x2f
			for(int i=0;i<sizeof(header);i++)
 8002c24:	6abb      	ldr	r3, [r7, #40]	; 0x28
 8002c26:	3301      	adds	r3, #1
 8002c28:	62bb      	str	r3, [r7, #40]	; 0x28
 8002c2a:	6abb      	ldr	r3, [r7, #40]	; 0x28
 8002c2c:	2b04      	cmp	r3, #4
 8002c2e:	d9ec      	bls.n	8002c0a <readData+0xb6>
				}
			}
		}
	}

	if(status == CAM_OK)
 8002c30:	f897 302f 	ldrb.w	r3, [r7, #47]	; 0x2f
 8002c34:	2b00      	cmp	r3, #0
 8002c36:	d145      	bne.n	8002cc4 <readData+0x170>
	{
		HAL_Status = HAL_UARTEx_ReceiveToIdle(huart, camDataBuf, CAM_DATA_LEN, &received, 3000);
 8002c38:	f107 0316 	add.w	r3, r7, #22
 8002c3c:	f640 32b8 	movw	r2, #3000	; 0xbb8
 8002c40:	9200      	str	r2, [sp, #0]
 8002c42:	2238      	movs	r2, #56	; 0x38
 8002c44:	68b9      	ldr	r1, [r7, #8]
 8002c46:	68f8      	ldr	r0, [r7, #12]
 8002c48:	f005 fa71 	bl	800812e <HAL_UARTEx_ReceiveToIdle>
 8002c4c:	4603      	mov	r3, r0
 8002c4e:	767b      	strb	r3, [r7, #25]
		if(received != CAM_DATA_LEN)
 8002c50:	8afb      	ldrh	r3, [r7, #22]
 8002c52:	2b38      	cmp	r3, #56	; 0x38
 8002c54:	d003      	beq.n	8002c5e <readData+0x10a>
		{
		  status = CAM_FAIL;
 8002c56:	2301      	movs	r3, #1
 8002c58:	f887 302f 	strb.w	r3, [r7, #47]	; 0x2f
 8002c5c:	e032      	b.n	8002cc4 <readData+0x170>
		}
		else
		{
			*len = received;
 8002c5e:	8afa      	ldrh	r2, [r7, #22]
 8002c60:	687b      	ldr	r3, [r7, #4]
 8002c62:	801a      	strh	r2, [r3, #0]
			totReveived = totReveived + received;
 8002c64:	8afb      	ldrh	r3, [r7, #22]
 8002c66:	461a      	mov	r2, r3
 8002c68:	4b19      	ldr	r3, [pc, #100]	; (8002cd0 <readData+0x17c>)
 8002c6a:	681b      	ldr	r3, [r3, #0]
 8002c6c:	4413      	add	r3, r2
 8002c6e:	4a18      	ldr	r2, [pc, #96]	; (8002cd0 <readData+0x17c>)
 8002c70:	6013      	str	r3, [r2, #0]
			for(int i=0;i<received;i++)
 8002c72:	2300      	movs	r3, #0
 8002c74:	627b      	str	r3, [r7, #36]	; 0x24
 8002c76:	e013      	b.n	8002ca0 <readData+0x14c>
			{
				if((camDataBuf[i-1] == 0xff) && (camDataBuf[i-0] == 0xD9))
 8002c78:	6a7b      	ldr	r3, [r7, #36]	; 0x24
 8002c7a:	3b01      	subs	r3, #1
 8002c7c:	68ba      	ldr	r2, [r7, #8]
 8002c7e:	4413      	add	r3, r2
 8002c80:	781b      	ldrb	r3, [r3, #0]
 8002c82:	2bff      	cmp	r3, #255	; 0xff
 8002c84:	d109      	bne.n	8002c9a <readData+0x146>
 8002c86:	6a7b      	ldr	r3, [r7, #36]	; 0x24
 8002c88:	68ba      	ldr	r2, [r7, #8]
 8002c8a:	4413      	add	r3, r2
 8002c8c:	781b      	ldrb	r3, [r3, #0]
 8002c8e:	2bd9      	cmp	r3, #217	; 0xd9
 8002c90:	d103      	bne.n	8002c9a <readData+0x146>
				{
					status = CAM_END;
 8002c92:	2302      	movs	r3, #2
 8002c94:	f887 302f 	strb.w	r3, [r7, #47]	; 0x2f
					break;
 8002c98:	e007      	b.n	8002caa <readData+0x156>
			for(int i=0;i<received;i++)
 8002c9a:	6a7b      	ldr	r3, [r7, #36]	; 0x24
 8002c9c:	3301      	adds	r3, #1
 8002c9e:	627b      	str	r3, [r7, #36]	; 0x24
 8002ca0:	8afb      	ldrh	r3, [r7, #22]
 8002ca2:	461a      	mov	r2, r3
 8002ca4:	6a7b      	ldr	r3, [r7, #36]	; 0x24
 8002ca6:	4293      	cmp	r3, r2
 8002ca8:	dbe6      	blt.n	8002c78 <readData+0x124>
				}
			}
			if(status == CAM_END)
 8002caa:	f897 302f 	ldrb.w	r3, [r7, #47]	; 0x2f
 8002cae:	2b02      	cmp	r3, #2
 8002cb0:	d108      	bne.n	8002cc4 <readData+0x170>
			{
				if(lenFromCam != totReveived)
 8002cb2:	4b0b      	ldr	r3, [pc, #44]	; (8002ce0 <readData+0x18c>)
 8002cb4:	681a      	ldr	r2, [r3, #0]
 8002cb6:	4b06      	ldr	r3, [pc, #24]	; (8002cd0 <readData+0x17c>)
 8002cb8:	681b      	ldr	r3, [r3, #0]
 8002cba:	429a      	cmp	r2, r3
 8002cbc:	d002      	beq.n	8002cc4 <readData+0x170>
				{
					status = CAM_FAIL;
 8002cbe:	2301      	movs	r3, #1
 8002cc0:	f887 302f 	strb.w	r3, [r7, #47]	; 0x2f
//				}
			}
		}
	}

	return status;
 8002cc4:	f897 302f 	ldrb.w	r3, [r7, #47]	; 0x2f
}
 8002cc8:	4618      	mov	r0, r3
 8002cca:	3730      	adds	r7, #48	; 0x30
 8002ccc:	46bd      	mov	sp, r7
 8002cce:	bd80      	pop	{r7, pc}
 8002cd0:	20000090 	.word	0x20000090
 8002cd4:	20000008 	.word	0x20000008
 8002cd8:	200003e0 	.word	0x200003e0
 8002cdc:	20000000 	.word	0x20000000
 8002ce0:	20000094 	.word	0x20000094

08002ce4 <processCAM>:

CAM_StatusTypeDef processCAM(UART_HandleTypeDef *huart,struct rscode_driver *rsDriver)
{
 8002ce4:	b5f0      	push	{r4, r5, r6, r7, lr}
 8002ce6:	b0a5      	sub	sp, #148	; 0x94
 8002ce8:	af00      	add	r7, sp, #0
 8002cea:	6078      	str	r0, [r7, #4]
 8002cec:	6039      	str	r1, [r7, #0]
	HAL_StatusTypeDef HAL_Status;
	CAM_StatusTypeDef camStatus  = CAM_OK;
 8002cee:	2300      	movs	r3, #0
 8002cf0:	f887 308f 	strb.w	r3, [r7, #143]	; 0x8f

	uint16_t imageLen     = 0;
 8002cf4:	2300      	movs	r3, #0
 8002cf6:	f8a7 3088 	strh.w	r3, [r7, #136]	; 0x88
	uint16_t imageXferLen = 0;
 8002cfa:	2300      	movs	r3, #0
 8002cfc:	f8a7 3086 	strh.w	r3, [r7, #134]	; 0x86
    uint16_t len          = 0;
 8002d00:	2300      	movs	r3, #0
 8002d02:	f8a7 308c 	strh.w	r3, [r7, #140]	; 0x8c
	static uint16_t  imageSeqnum = 0;

	uint8_t txBuf[MTU_SIZE];
	uint8_t camDataBuf[CAM_DATA_LEN];

	switch(CAM_State)
 8002d06:	4bc7      	ldr	r3, [pc, #796]	; (8003024 <processCAM+0x340>)
 8002d08:	781b      	ldrb	r3, [r3, #0]
 8002d0a:	2b03      	cmp	r3, #3
 8002d0c:	f200 8184 	bhi.w	8003018 <processCAM+0x334>
 8002d10:	a201      	add	r2, pc, #4	; (adr r2, 8002d18 <processCAM+0x34>)
 8002d12:	f852 f023 	ldr.w	pc, [r2, r3, lsl #2]
 8002d16:	bf00      	nop
 8002d18:	08002d29 	.word	0x08002d29
 8002d1c:	08002d59 	.word	0x08002d59
 8002d20:	08002e6d 	.word	0x08002e6d
 8002d24:	08002f6f 	.word	0x08002f6f
	{
		case CAM_SETUP:
		{
			camStatus = setPhotoSize(huart);
 8002d28:	6878      	ldr	r0, [r7, #4]
 8002d2a:	f7ff fd63 	bl	80027f4 <setPhotoSize>
 8002d2e:	4603      	mov	r3, r0
 8002d30:	f887 308f 	strb.w	r3, [r7, #143]	; 0x8f
			camStatus = resetCam(huart);
 8002d34:	6878      	ldr	r0, [r7, #4]
 8002d36:	f7ff fca5 	bl	8002684 <resetCam>
 8002d3a:	4603      	mov	r3, r0
 8002d3c:	f887 308f 	strb.w	r3, [r7, #143]	; 0x8f
			if(camStatus == CAM_OK)
 8002d40:	f897 308f 	ldrb.w	r3, [r7, #143]	; 0x8f
 8002d44:	2b00      	cmp	r3, #0
 8002d46:	d103      	bne.n	8002d50 <processCAM+0x6c>
			{
				CAM_State = CAM_TAKE_PIC;
 8002d48:	4bb6      	ldr	r3, [pc, #728]	; (8003024 <processCAM+0x340>)
 8002d4a:	2201      	movs	r2, #1
 8002d4c:	701a      	strb	r2, [r3, #0]
			}
			else
			{
				CAM_State = CAM_SETUP;
			}
			break;
 8002d4e:	e163      	b.n	8003018 <processCAM+0x334>
				CAM_State = CAM_SETUP;
 8002d50:	4bb4      	ldr	r3, [pc, #720]	; (8003024 <processCAM+0x340>)
 8002d52:	2200      	movs	r2, #0
 8002d54:	701a      	strb	r2, [r3, #0]
			break;
 8002d56:	e15f      	b.n	8003018 <processCAM+0x334>
		}
		case CAM_TAKE_PIC:
		{
			camStatus = stopTakingPicture(huart);
 8002d58:	6878      	ldr	r0, [r7, #4]
 8002d5a:	f7ff fce5 	bl	8002728 <stopTakingPicture>
 8002d5e:	4603      	mov	r3, r0
 8002d60:	f887 308f 	strb.w	r3, [r7, #143]	; 0x8f
			HAL_Delay(500);
 8002d64:	f44f 70fa 	mov.w	r0, #500	; 0x1f4
 8002d68:	f002 fb88 	bl	800547c <HAL_Delay>
			camStatus =  setCompression(huart);
 8002d6c:	6878      	ldr	r0, [r7, #4]
 8002d6e:	f7ff fda1 	bl	80028b4 <setCompression>
 8002d72:	4603      	mov	r3, r0
 8002d74:	f887 308f 	strb.w	r3, [r7, #143]	; 0x8f
			if(camStatus == CAM_OK)
 8002d78:	f897 308f 	ldrb.w	r3, [r7, #143]	; 0x8f
 8002d7c:	2b00      	cmp	r3, #0
 8002d7e:	f040 8148 	bne.w	8003012 <processCAM+0x32e>
			{
				camStatus = takePhoto(huart);
 8002d82:	6878      	ldr	r0, [r7, #4]
 8002d84:	f7ff fe84 	bl	8002a90 <takePhoto>
 8002d88:	4603      	mov	r3, r0
 8002d8a:	f887 308f 	strb.w	r3, [r7, #143]	; 0x8f
				if(camStatus == CAM_OK)
 8002d8e:	f897 308f 	ldrb.w	r3, [r7, #143]	; 0x8f
 8002d92:	2b00      	cmp	r3, #0
 8002d94:	d166      	bne.n	8002e64 <processCAM+0x180>
				{
					camStatus = getLenOfPhoto(huart, &imageLen);
 8002d96:	f107 0388 	add.w	r3, r7, #136	; 0x88
 8002d9a:	4619      	mov	r1, r3
 8002d9c:	6878      	ldr	r0, [r7, #4]
 8002d9e:	f7ff fde9 	bl	8002974 <getLenOfPhoto>
 8002da2:	4603      	mov	r3, r0
 8002da4:	f887 308f 	strb.w	r3, [r7, #143]	; 0x8f
					if(camStatus == CAM_OK)
 8002da8:	f897 308f 	ldrb.w	r3, [r7, #143]	; 0x8f
 8002dac:	2b00      	cmp	r3, #0
 8002dae:	d155      	bne.n	8002e5c <processCAM+0x178>
					{
						imageSeqnum = 0;
 8002db0:	4b9d      	ldr	r3, [pc, #628]	; (8003028 <processCAM+0x344>)
 8002db2:	2200      	movs	r2, #0
 8002db4:	801a      	strh	r2, [r3, #0]
						memset(&HABPacketImageStart,'\0',sizeof(HABPacketImageStart));
 8002db6:	2211      	movs	r2, #17
 8002db8:	2100      	movs	r1, #0
 8002dba:	489c      	ldr	r0, [pc, #624]	; (800302c <processCAM+0x348>)
 8002dbc:	f005 fbf4 	bl	80085a8 <memset>
						HABPacketImageStart.packetType  = START_IMAGE;
 8002dc0:	4b9a      	ldr	r3, [pc, #616]	; (800302c <processCAM+0x348>)
 8002dc2:	f04f 32ff 	mov.w	r2, #4294967295
 8002dc6:	701a      	strb	r2, [r3, #0]
 8002dc8:	2200      	movs	r2, #0
 8002dca:	705a      	strb	r2, [r3, #1]
						HABPacketImageStart.imageFileID = imageFileID;
 8002dcc:	4b98      	ldr	r3, [pc, #608]	; (8003030 <processCAM+0x34c>)
 8002dce:	781a      	ldrb	r2, [r3, #0]
 8002dd0:	4b96      	ldr	r3, [pc, #600]	; (800302c <processCAM+0x348>)
 8002dd2:	709a      	strb	r2, [r3, #2]
						HABPacketImageStart.fileSize    = imageLen;
 8002dd4:	f8b7 3088 	ldrh.w	r3, [r7, #136]	; 0x88
 8002dd8:	461a      	mov	r2, r3
 8002dda:	4b94      	ldr	r3, [pc, #592]	; (800302c <processCAM+0x348>)
 8002ddc:	f8c3 2003 	str.w	r2, [r3, #3]
						len = sizeof(HABPacketImageStart)-sizeof(HABPacketImageStart.crc16)-NPAR;
 8002de0:	2307      	movs	r3, #7
 8002de2:	f8a7 308c 	strh.w	r3, [r7, #140]	; 0x8c
						HABPacketImageStart.crc16 = crc_16((unsigned char *)&HABPacketImageStart,len);
 8002de6:	f8b7 308c 	ldrh.w	r3, [r7, #140]	; 0x8c
 8002dea:	4619      	mov	r1, r3
 8002dec:	488f      	ldr	r0, [pc, #572]	; (800302c <processCAM+0x348>)
 8002dee:	f000 f927 	bl	8003040 <crc_16>
 8002df2:	4603      	mov	r3, r0
 8002df4:	461a      	mov	r2, r3
 8002df6:	4b8d      	ldr	r3, [pc, #564]	; (800302c <processCAM+0x348>)
 8002df8:	f8a3 2007 	strh.w	r2, [r3, #7]
						rscode_encode(rsDriver, (unsigned char *)&HABPacketImageStart, sizeof(HABPacketImageStart)-NPAR, (unsigned char *)&HABPacketImageStart);
 8002dfc:	4b8b      	ldr	r3, [pc, #556]	; (800302c <processCAM+0x348>)
 8002dfe:	2209      	movs	r2, #9
 8002e00:	498a      	ldr	r1, [pc, #552]	; (800302c <processCAM+0x348>)
 8002e02:	6838      	ldr	r0, [r7, #0]
 8002e04:	f000 fbcc 	bl	80035a0 <rscode_encode>

						memset(&txBuf,'\0',sizeof(txBuf));
 8002e08:	f107 0344 	add.w	r3, r7, #68	; 0x44
 8002e0c:	2240      	movs	r2, #64	; 0x40
 8002e0e:	2100      	movs	r1, #0
 8002e10:	4618      	mov	r0, r3
 8002e12:	f005 fbc9 	bl	80085a8 <memset>
						memcpy(txBuf,&HABPacketImageStart,sizeof(HABPacketImageStart));
 8002e16:	4b85      	ldr	r3, [pc, #532]	; (800302c <processCAM+0x348>)
 8002e18:	f107 0444 	add.w	r4, r7, #68	; 0x44
 8002e1c:	461d      	mov	r5, r3
 8002e1e:	6828      	ldr	r0, [r5, #0]
 8002e20:	6869      	ldr	r1, [r5, #4]
 8002e22:	68aa      	ldr	r2, [r5, #8]
 8002e24:	68eb      	ldr	r3, [r5, #12]
 8002e26:	c40f      	stmia	r4!, {r0, r1, r2, r3}
 8002e28:	7c2b      	ldrb	r3, [r5, #16]
 8002e2a:	7023      	strb	r3, [r4, #0]
						HAL_Status =  radioTxData(txBuf,sizeof(HABPacketImageStart));
 8002e2c:	f107 0344 	add.w	r3, r7, #68	; 0x44
 8002e30:	2111      	movs	r1, #17
 8002e32:	4618      	mov	r0, r3
 8002e34:	f001 fde8 	bl	8004a08 <radioTxData>
 8002e38:	4603      	mov	r3, r0
 8002e3a:	f887 308b 	strb.w	r3, [r7, #139]	; 0x8b
						HAL_Delay(500);
 8002e3e:	f44f 70fa 	mov.w	r0, #500	; 0x1f4
 8002e42:	f002 fb1b 	bl	800547c <HAL_Delay>
						if(HAL_Status != HAL_OK)
 8002e46:	f897 308b 	ldrb.w	r3, [r7, #139]	; 0x8b
 8002e4a:	2b00      	cmp	r3, #0
 8002e4c:	d002      	beq.n	8002e54 <processCAM+0x170>
						{
							CAM_State = CAM_SETUP;
 8002e4e:	4b75      	ldr	r3, [pc, #468]	; (8003024 <processCAM+0x340>)
 8002e50:	2200      	movs	r2, #0
 8002e52:	701a      	strb	r2, [r3, #0]
						}
						CAM_State = CAM_DATA_XFER;
 8002e54:	4b73      	ldr	r3, [pc, #460]	; (8003024 <processCAM+0x340>)
 8002e56:	2202      	movs	r2, #2
 8002e58:	701a      	strb	r2, [r3, #0]
				else
				{
					CAM_State = CAM_TAKE_PIC;
				}
			}
			break;
 8002e5a:	e0da      	b.n	8003012 <processCAM+0x32e>
						CAM_State = CAM_SETUP;
 8002e5c:	4b71      	ldr	r3, [pc, #452]	; (8003024 <processCAM+0x340>)
 8002e5e:	2200      	movs	r2, #0
 8002e60:	701a      	strb	r2, [r3, #0]
			break;
 8002e62:	e0d6      	b.n	8003012 <processCAM+0x32e>
					CAM_State = CAM_TAKE_PIC;
 8002e64:	4b6f      	ldr	r3, [pc, #444]	; (8003024 <processCAM+0x340>)
 8002e66:	2201      	movs	r2, #1
 8002e68:	701a      	strb	r2, [r3, #0]
			break;
 8002e6a:	e0d2      	b.n	8003012 <processCAM+0x32e>
		}
		case CAM_DATA_XFER:
		{
			camStatus =  readData(huart, camDataBuf, &imageXferLen);
 8002e6c:	f107 0286 	add.w	r2, r7, #134	; 0x86
 8002e70:	f107 030c 	add.w	r3, r7, #12
 8002e74:	4619      	mov	r1, r3
 8002e76:	6878      	ldr	r0, [r7, #4]
 8002e78:	f7ff fe6c 	bl	8002b54 <readData>
 8002e7c:	4603      	mov	r3, r0
 8002e7e:	f887 308f 	strb.w	r3, [r7, #143]	; 0x8f
			switch(camStatus)
 8002e82:	f897 308f 	ldrb.w	r3, [r7, #143]	; 0x8f
 8002e86:	2b02      	cmp	r3, #2
 8002e88:	d007      	beq.n	8002e9a <processCAM+0x1b6>
 8002e8a:	2b02      	cmp	r3, #2
 8002e8c:	f300 80c3 	bgt.w	8003016 <processCAM+0x332>
 8002e90:	2b00      	cmp	r3, #0
 8002e92:	d002      	beq.n	8002e9a <processCAM+0x1b6>
 8002e94:	2b01      	cmp	r3, #1
 8002e96:	d065      	beq.n	8002f64 <processCAM+0x280>
				{
					CAM_State = CAM_TAKE_PIC;
					break;
				}
			}
			break;
 8002e98:	e0bd      	b.n	8003016 <processCAM+0x332>
					HABPacketImageData.packetType = IMAGE_DATA;
 8002e9a:	4b66      	ldr	r3, [pc, #408]	; (8003034 <processCAM+0x350>)
 8002e9c:	2200      	movs	r2, #0
 8002e9e:	f062 0211 	orn	r2, r2, #17
 8002ea2:	701a      	strb	r2, [r3, #0]
 8002ea4:	2200      	movs	r2, #0
 8002ea6:	705a      	strb	r2, [r3, #1]
					HABPacketImageData.imageFileID = imageFileID;
 8002ea8:	4b61      	ldr	r3, [pc, #388]	; (8003030 <processCAM+0x34c>)
 8002eaa:	781a      	ldrb	r2, [r3, #0]
 8002eac:	4b61      	ldr	r3, [pc, #388]	; (8003034 <processCAM+0x350>)
 8002eae:	709a      	strb	r2, [r3, #2]
					HABPacketImageData.imageSeqnum = imageSeqnum;
 8002eb0:	4b5d      	ldr	r3, [pc, #372]	; (8003028 <processCAM+0x344>)
 8002eb2:	881a      	ldrh	r2, [r3, #0]
 8002eb4:	4b5f      	ldr	r3, [pc, #380]	; (8003034 <processCAM+0x350>)
 8002eb6:	f8a3 2003 	strh.w	r2, [r3, #3]
					HABPacketImageData.imageDataLen = imageXferLen;
 8002eba:	f8b7 3086 	ldrh.w	r3, [r7, #134]	; 0x86
 8002ebe:	b2da      	uxtb	r2, r3
 8002ec0:	4b5c      	ldr	r3, [pc, #368]	; (8003034 <processCAM+0x350>)
 8002ec2:	715a      	strb	r2, [r3, #5]
					memcpy(&HABPacketImageData.imageData,&camDataBuf,HABPacketImageData.imageDataLen);
 8002ec4:	4b5b      	ldr	r3, [pc, #364]	; (8003034 <processCAM+0x350>)
 8002ec6:	795b      	ldrb	r3, [r3, #5]
 8002ec8:	461a      	mov	r2, r3
 8002eca:	f107 030c 	add.w	r3, r7, #12
 8002ece:	4619      	mov	r1, r3
 8002ed0:	4859      	ldr	r0, [pc, #356]	; (8003038 <processCAM+0x354>)
 8002ed2:	f005 fb5b 	bl	800858c <memcpy>
					len = sizeof(HABPacketImageData)-sizeof(HABPacketImageData.crc16);
 8002ed6:	233e      	movs	r3, #62	; 0x3e
 8002ed8:	f8a7 308c 	strh.w	r3, [r7, #140]	; 0x8c
					HABPacketImageData.crc16 = crc_16((unsigned char *)&HABPacketImageData,len);
 8002edc:	f8b7 308c 	ldrh.w	r3, [r7, #140]	; 0x8c
 8002ee0:	4619      	mov	r1, r3
 8002ee2:	4854      	ldr	r0, [pc, #336]	; (8003034 <processCAM+0x350>)
 8002ee4:	f000 f8ac 	bl	8003040 <crc_16>
 8002ee8:	4603      	mov	r3, r0
 8002eea:	461a      	mov	r2, r3
 8002eec:	4b51      	ldr	r3, [pc, #324]	; (8003034 <processCAM+0x350>)
 8002eee:	87da      	strh	r2, [r3, #62]	; 0x3e
					memset(&txBuf,'\0',sizeof(txBuf));
 8002ef0:	f107 0344 	add.w	r3, r7, #68	; 0x44
 8002ef4:	2240      	movs	r2, #64	; 0x40
 8002ef6:	2100      	movs	r1, #0
 8002ef8:	4618      	mov	r0, r3
 8002efa:	f005 fb55 	bl	80085a8 <memset>
					memcpy(txBuf,&HABPacketImageData,sizeof(HABPacketImageData));
 8002efe:	4b4d      	ldr	r3, [pc, #308]	; (8003034 <processCAM+0x350>)
 8002f00:	461c      	mov	r4, r3
 8002f02:	f107 0644 	add.w	r6, r7, #68	; 0x44
 8002f06:	f104 0c40 	add.w	ip, r4, #64	; 0x40
 8002f0a:	4635      	mov	r5, r6
 8002f0c:	4623      	mov	r3, r4
 8002f0e:	6818      	ldr	r0, [r3, #0]
 8002f10:	6859      	ldr	r1, [r3, #4]
 8002f12:	689a      	ldr	r2, [r3, #8]
 8002f14:	68db      	ldr	r3, [r3, #12]
 8002f16:	c50f      	stmia	r5!, {r0, r1, r2, r3}
 8002f18:	3410      	adds	r4, #16
 8002f1a:	3610      	adds	r6, #16
 8002f1c:	4564      	cmp	r4, ip
 8002f1e:	d1f4      	bne.n	8002f0a <processCAM+0x226>
					HAL_Status =  radioTxData(txBuf,sizeof(HABPacketImageData));
 8002f20:	f107 0344 	add.w	r3, r7, #68	; 0x44
 8002f24:	2140      	movs	r1, #64	; 0x40
 8002f26:	4618      	mov	r0, r3
 8002f28:	f001 fd6e 	bl	8004a08 <radioTxData>
 8002f2c:	4603      	mov	r3, r0
 8002f2e:	f887 308b 	strb.w	r3, [r7, #139]	; 0x8b
					HAL_Delay(15);
 8002f32:	200f      	movs	r0, #15
 8002f34:	f002 faa2 	bl	800547c <HAL_Delay>
					if(HAL_Status != HAL_OK)
 8002f38:	f897 308b 	ldrb.w	r3, [r7, #139]	; 0x8b
 8002f3c:	2b00      	cmp	r3, #0
 8002f3e:	d003      	beq.n	8002f48 <processCAM+0x264>
						CAM_State = CAM_SETUP;
 8002f40:	4b38      	ldr	r3, [pc, #224]	; (8003024 <processCAM+0x340>)
 8002f42:	2200      	movs	r2, #0
 8002f44:	701a      	strb	r2, [r3, #0]
 8002f46:	e006      	b.n	8002f56 <processCAM+0x272>
						if(camStatus == CAM_END)
 8002f48:	f897 308f 	ldrb.w	r3, [r7, #143]	; 0x8f
 8002f4c:	2b02      	cmp	r3, #2
 8002f4e:	d102      	bne.n	8002f56 <processCAM+0x272>
							CAM_State = CAM_END_XFER;
 8002f50:	4b34      	ldr	r3, [pc, #208]	; (8003024 <processCAM+0x340>)
 8002f52:	2203      	movs	r2, #3
 8002f54:	701a      	strb	r2, [r3, #0]
					imageSeqnum = imageSeqnum + 1;
 8002f56:	4b34      	ldr	r3, [pc, #208]	; (8003028 <processCAM+0x344>)
 8002f58:	881b      	ldrh	r3, [r3, #0]
 8002f5a:	3301      	adds	r3, #1
 8002f5c:	b29a      	uxth	r2, r3
 8002f5e:	4b32      	ldr	r3, [pc, #200]	; (8003028 <processCAM+0x344>)
 8002f60:	801a      	strh	r2, [r3, #0]
					break;
 8002f62:	e003      	b.n	8002f6c <processCAM+0x288>
					CAM_State = CAM_TAKE_PIC;
 8002f64:	4b2f      	ldr	r3, [pc, #188]	; (8003024 <processCAM+0x340>)
 8002f66:	2201      	movs	r2, #1
 8002f68:	701a      	strb	r2, [r3, #0]
					break;
 8002f6a:	bf00      	nop
			break;
 8002f6c:	e053      	b.n	8003016 <processCAM+0x332>
		}
		case CAM_END_XFER:
		{

			HABPacketImageEnd.packetType    = END_IMAGE;
 8002f6e:	4b33      	ldr	r3, [pc, #204]	; (800303c <processCAM+0x358>)
 8002f70:	2200      	movs	r2, #0
 8002f72:	f062 0222 	orn	r2, r2, #34	; 0x22
 8002f76:	701a      	strb	r2, [r3, #0]
 8002f78:	2200      	movs	r2, #0
 8002f7a:	705a      	strb	r2, [r3, #1]
			HABPacketImageEnd.imageFileID   = imageFileID;
 8002f7c:	4b2c      	ldr	r3, [pc, #176]	; (8003030 <processCAM+0x34c>)
 8002f7e:	781a      	ldrb	r2, [r3, #0]
 8002f80:	4b2e      	ldr	r3, [pc, #184]	; (800303c <processCAM+0x358>)
 8002f82:	709a      	strb	r2, [r3, #2]
			len = sizeof(HABPacketImageEnd)-sizeof(HABPacketImageEnd.crc16)-NPAR;
 8002f84:	2303      	movs	r3, #3
 8002f86:	f8a7 308c 	strh.w	r3, [r7, #140]	; 0x8c
			HABPacketImageEnd.crc16 = crc_16((unsigned char *)&HABPacketImageEnd,len);
 8002f8a:	f8b7 308c 	ldrh.w	r3, [r7, #140]	; 0x8c
 8002f8e:	4619      	mov	r1, r3
 8002f90:	482a      	ldr	r0, [pc, #168]	; (800303c <processCAM+0x358>)
 8002f92:	f000 f855 	bl	8003040 <crc_16>
 8002f96:	4603      	mov	r3, r0
 8002f98:	461a      	mov	r2, r3
 8002f9a:	4b28      	ldr	r3, [pc, #160]	; (800303c <processCAM+0x358>)
 8002f9c:	f8a3 2003 	strh.w	r2, [r3, #3]
			rscode_encode(rsDriver, (unsigned char *)&HABPacketImageEnd, sizeof(HABPacketImageEnd)-NPAR, (unsigned char *)&HABPacketImageEnd);
 8002fa0:	4b26      	ldr	r3, [pc, #152]	; (800303c <processCAM+0x358>)
 8002fa2:	2205      	movs	r2, #5
 8002fa4:	4925      	ldr	r1, [pc, #148]	; (800303c <processCAM+0x358>)
 8002fa6:	6838      	ldr	r0, [r7, #0]
 8002fa8:	f000 fafa 	bl	80035a0 <rscode_encode>
			memset(&txBuf,'\0',sizeof(txBuf));
 8002fac:	f107 0344 	add.w	r3, r7, #68	; 0x44
 8002fb0:	2240      	movs	r2, #64	; 0x40
 8002fb2:	2100      	movs	r1, #0
 8002fb4:	4618      	mov	r0, r3
 8002fb6:	f005 faf7 	bl	80085a8 <memset>
			memcpy(txBuf,&HABPacketImageEnd,sizeof(HABPacketImageEnd));
 8002fba:	4a20      	ldr	r2, [pc, #128]	; (800303c <processCAM+0x358>)
 8002fbc:	f107 0344 	add.w	r3, r7, #68	; 0x44
 8002fc0:	4614      	mov	r4, r2
 8002fc2:	6820      	ldr	r0, [r4, #0]
 8002fc4:	6861      	ldr	r1, [r4, #4]
 8002fc6:	68a2      	ldr	r2, [r4, #8]
 8002fc8:	c307      	stmia	r3!, {r0, r1, r2}
 8002fca:	7b22      	ldrb	r2, [r4, #12]
 8002fcc:	701a      	strb	r2, [r3, #0]
			HAL_Delay(PROTOCOL_DELAY);
 8002fce:	2064      	movs	r0, #100	; 0x64
 8002fd0:	f002 fa54 	bl	800547c <HAL_Delay>
			HAL_Status =  radioTxData(txBuf,sizeof(HABPacketImageEnd));
 8002fd4:	f107 0344 	add.w	r3, r7, #68	; 0x44
 8002fd8:	210d      	movs	r1, #13
 8002fda:	4618      	mov	r0, r3
 8002fdc:	f001 fd14 	bl	8004a08 <radioTxData>
 8002fe0:	4603      	mov	r3, r0
 8002fe2:	f887 308b 	strb.w	r3, [r7, #139]	; 0x8b
			HAL_Delay(1000);
 8002fe6:	f44f 707a 	mov.w	r0, #1000	; 0x3e8
 8002fea:	f002 fa47 	bl	800547c <HAL_Delay>
			if(HAL_Status == HAL_OK)
 8002fee:	f897 308b 	ldrb.w	r3, [r7, #139]	; 0x8b
 8002ff2:	2b00      	cmp	r3, #0
 8002ff4:	d109      	bne.n	800300a <processCAM+0x326>
			{
				CAM_State = CAM_TAKE_PIC;
 8002ff6:	4b0b      	ldr	r3, [pc, #44]	; (8003024 <processCAM+0x340>)
 8002ff8:	2201      	movs	r2, #1
 8002ffa:	701a      	strb	r2, [r3, #0]
				imageFileID = imageFileID +1;
 8002ffc:	4b0c      	ldr	r3, [pc, #48]	; (8003030 <processCAM+0x34c>)
 8002ffe:	781b      	ldrb	r3, [r3, #0]
 8003000:	3301      	adds	r3, #1
 8003002:	b2da      	uxtb	r2, r3
 8003004:	4b0a      	ldr	r3, [pc, #40]	; (8003030 <processCAM+0x34c>)
 8003006:	701a      	strb	r2, [r3, #0]
			}
			else
			{
				CAM_State = CAM_TAKE_PIC;
			}
			break;
 8003008:	e006      	b.n	8003018 <processCAM+0x334>
				CAM_State = CAM_TAKE_PIC;
 800300a:	4b06      	ldr	r3, [pc, #24]	; (8003024 <processCAM+0x340>)
 800300c:	2201      	movs	r2, #1
 800300e:	701a      	strb	r2, [r3, #0]
			break;
 8003010:	e002      	b.n	8003018 <processCAM+0x334>
			break;
 8003012:	bf00      	nop
 8003014:	e000      	b.n	8003018 <processCAM+0x334>
			break;
 8003016:	bf00      	nop
		}
	}

	return camStatus;
 8003018:	f897 308f 	ldrb.w	r3, [r7, #143]	; 0x8f
};
 800301c:	4618      	mov	r0, r3
 800301e:	3794      	adds	r7, #148	; 0x94
 8003020:	46bd      	mov	sp, r7
 8003022:	bdf0      	pop	{r4, r5, r6, r7, pc}
 8003024:	20000098 	.word	0x20000098
 8003028:	2000009a 	.word	0x2000009a
 800302c:	200003cc 	.word	0x200003cc
 8003030:	2000009c 	.word	0x2000009c
 8003034:	2000038c 	.word	0x2000038c
 8003038:	20000392 	.word	0x20000392
 800303c:	20000374 	.word	0x20000374

08003040 <crc_16>:
 * bytes to check is also a parameter. The number of the bytes in the string is
 * limited by the constant SIZE_MAX.
 */

uint16_t crc_16(unsigned char *input_str, size_t num_bytes )
{
 8003040:	b580      	push	{r7, lr}
 8003042:	b086      	sub	sp, #24
 8003044:	af00      	add	r7, sp, #0
 8003046:	6078      	str	r0, [r7, #4]
 8003048:	6039      	str	r1, [r7, #0]

	uint16_t crc;
	const unsigned char *ptr;
	size_t a;

	if ( ! crc_tab16_init ) init_crc16_tab();
 800304a:	4b17      	ldr	r3, [pc, #92]	; (80030a8 <crc_16+0x68>)
 800304c:	781b      	ldrb	r3, [r3, #0]
 800304e:	f083 0301 	eor.w	r3, r3, #1
 8003052:	b2db      	uxtb	r3, r3
 8003054:	2b00      	cmp	r3, #0
 8003056:	d001      	beq.n	800305c <crc_16+0x1c>
 8003058:	f000 f82a 	bl	80030b0 <init_crc16_tab>

	crc = CRC_START_16;
 800305c:	2300      	movs	r3, #0
 800305e:	82fb      	strh	r3, [r7, #22]
	ptr = input_str;
 8003060:	687b      	ldr	r3, [r7, #4]
 8003062:	613b      	str	r3, [r7, #16]

	if ( ptr != NULL ) for (a=0; a<num_bytes; a++) {
 8003064:	693b      	ldr	r3, [r7, #16]
 8003066:	2b00      	cmp	r3, #0
 8003068:	d018      	beq.n	800309c <crc_16+0x5c>
 800306a:	2300      	movs	r3, #0
 800306c:	60fb      	str	r3, [r7, #12]
 800306e:	e011      	b.n	8003094 <crc_16+0x54>

		crc = (crc >> 8) ^ crc_tab16[ (crc ^ (uint16_t) *ptr++) & 0x00FF ];
 8003070:	8afb      	ldrh	r3, [r7, #22]
 8003072:	0a1b      	lsrs	r3, r3, #8
 8003074:	b29a      	uxth	r2, r3
 8003076:	8af9      	ldrh	r1, [r7, #22]
 8003078:	693b      	ldr	r3, [r7, #16]
 800307a:	1c58      	adds	r0, r3, #1
 800307c:	6138      	str	r0, [r7, #16]
 800307e:	781b      	ldrb	r3, [r3, #0]
 8003080:	404b      	eors	r3, r1
 8003082:	b2db      	uxtb	r3, r3
 8003084:	4909      	ldr	r1, [pc, #36]	; (80030ac <crc_16+0x6c>)
 8003086:	f831 3013 	ldrh.w	r3, [r1, r3, lsl #1]
 800308a:	4053      	eors	r3, r2
 800308c:	82fb      	strh	r3, [r7, #22]
	if ( ptr != NULL ) for (a=0; a<num_bytes; a++) {
 800308e:	68fb      	ldr	r3, [r7, #12]
 8003090:	3301      	adds	r3, #1
 8003092:	60fb      	str	r3, [r7, #12]
 8003094:	68fa      	ldr	r2, [r7, #12]
 8003096:	683b      	ldr	r3, [r7, #0]
 8003098:	429a      	cmp	r2, r3
 800309a:	d3e9      	bcc.n	8003070 <crc_16+0x30>
	}

	return crc;
 800309c:	8afb      	ldrh	r3, [r7, #22]

}  /* crc_16 */
 800309e:	4618      	mov	r0, r3
 80030a0:	3718      	adds	r7, #24
 80030a2:	46bd      	mov	sp, r7
 80030a4:	bd80      	pop	{r7, pc}
 80030a6:	bf00      	nop
 80030a8:	2000009d 	.word	0x2000009d
 80030ac:	200000a0 	.word	0x200000a0

080030b0 <init_crc16_tab>:
 * that can be used directly in the XOR arithmetic in the algorithm. This
 * lookup table is calculated by the init_crc16_tab() routine, the first time
 * the CRC function is called.
 */

static void init_crc16_tab( void ) {
 80030b0:	b480      	push	{r7}
 80030b2:	b083      	sub	sp, #12
 80030b4:	af00      	add	r7, sp, #0
	uint16_t i;
	uint16_t j;
	uint16_t crc;
	uint16_t c;

	for (i=0; i<256; i++) {
 80030b6:	2300      	movs	r3, #0
 80030b8:	80fb      	strh	r3, [r7, #6]
 80030ba:	e029      	b.n	8003110 <init_crc16_tab+0x60>

		crc = 0;
 80030bc:	2300      	movs	r3, #0
 80030be:	807b      	strh	r3, [r7, #2]
		c   = i;
 80030c0:	88fb      	ldrh	r3, [r7, #6]
 80030c2:	803b      	strh	r3, [r7, #0]

		for (j=0; j<8; j++) {
 80030c4:	2300      	movs	r3, #0
 80030c6:	80bb      	strh	r3, [r7, #4]
 80030c8:	e017      	b.n	80030fa <init_crc16_tab+0x4a>

			if ( (crc ^ c) & 0x0001 ) crc = ( crc >> 1 ) ^ CRC_POLY_16;
 80030ca:	887a      	ldrh	r2, [r7, #2]
 80030cc:	883b      	ldrh	r3, [r7, #0]
 80030ce:	4053      	eors	r3, r2
 80030d0:	b29b      	uxth	r3, r3
 80030d2:	f003 0301 	and.w	r3, r3, #1
 80030d6:	2b00      	cmp	r3, #0
 80030d8:	d006      	beq.n	80030e8 <init_crc16_tab+0x38>
 80030da:	887b      	ldrh	r3, [r7, #2]
 80030dc:	085b      	lsrs	r3, r3, #1
 80030de:	b29a      	uxth	r2, r3
 80030e0:	4b11      	ldr	r3, [pc, #68]	; (8003128 <init_crc16_tab+0x78>)
 80030e2:	4053      	eors	r3, r2
 80030e4:	807b      	strh	r3, [r7, #2]
 80030e6:	e002      	b.n	80030ee <init_crc16_tab+0x3e>
			else                      crc =   crc >> 1;
 80030e8:	887b      	ldrh	r3, [r7, #2]
 80030ea:	085b      	lsrs	r3, r3, #1
 80030ec:	807b      	strh	r3, [r7, #2]

			c = c >> 1;
 80030ee:	883b      	ldrh	r3, [r7, #0]
 80030f0:	085b      	lsrs	r3, r3, #1
 80030f2:	803b      	strh	r3, [r7, #0]
		for (j=0; j<8; j++) {
 80030f4:	88bb      	ldrh	r3, [r7, #4]
 80030f6:	3301      	adds	r3, #1
 80030f8:	80bb      	strh	r3, [r7, #4]
 80030fa:	88bb      	ldrh	r3, [r7, #4]
 80030fc:	2b07      	cmp	r3, #7
 80030fe:	d9e4      	bls.n	80030ca <init_crc16_tab+0x1a>
		}

		crc_tab16[i] = crc;
 8003100:	88fb      	ldrh	r3, [r7, #6]
 8003102:	490a      	ldr	r1, [pc, #40]	; (800312c <init_crc16_tab+0x7c>)
 8003104:	887a      	ldrh	r2, [r7, #2]
 8003106:	f821 2013 	strh.w	r2, [r1, r3, lsl #1]
	for (i=0; i<256; i++) {
 800310a:	88fb      	ldrh	r3, [r7, #6]
 800310c:	3301      	adds	r3, #1
 800310e:	80fb      	strh	r3, [r7, #6]
 8003110:	88fb      	ldrh	r3, [r7, #6]
 8003112:	2bff      	cmp	r3, #255	; 0xff
 8003114:	d9d2      	bls.n	80030bc <init_crc16_tab+0xc>
	}

	crc_tab16_init = true;
 8003116:	4b06      	ldr	r3, [pc, #24]	; (8003130 <init_crc16_tab+0x80>)
 8003118:	2201      	movs	r2, #1
 800311a:	701a      	strb	r2, [r3, #0]

}  /* init_crc16_tab */
 800311c:	bf00      	nop
 800311e:	370c      	adds	r7, #12
 8003120:	46bd      	mov	sp, r7
 8003122:	bc80      	pop	{r7}
 8003124:	4770      	bx	lr
 8003126:	bf00      	nop
 8003128:	ffffa001 	.word	0xffffa001
 800312c:	200000a0 	.word	0x200000a0
 8003130:	2000009d 	.word	0x2000009d

08003134 <space>:
HAL_StatusTypeDef HAL_Status;
int spaceDelay  = 20;
uint8_t txBuf[] = {0};

void space()
{
 8003134:	b580      	push	{r7, lr}
 8003136:	af00      	add	r7, sp, #0
    HAL_Delay(spaceDelay);
 8003138:	4b03      	ldr	r3, [pc, #12]	; (8003148 <space+0x14>)
 800313a:	681b      	ldr	r3, [r3, #0]
 800313c:	4618      	mov	r0, r3
 800313e:	f002 f99d 	bl	800547c <HAL_Delay>
}
 8003142:	bf00      	nop
 8003144:	bd80      	pop	{r7, pc}
 8003146:	bf00      	nop
 8003148:	20000018 	.word	0x20000018

0800314c <characterSpace>:

void characterSpace()
{
 800314c:	b580      	push	{r7, lr}
 800314e:	af00      	add	r7, sp, #0
	HAL_Delay(spaceDelay*9);
 8003150:	4b04      	ldr	r3, [pc, #16]	; (8003164 <characterSpace+0x18>)
 8003152:	681a      	ldr	r2, [r3, #0]
 8003154:	4613      	mov	r3, r2
 8003156:	00db      	lsls	r3, r3, #3
 8003158:	4413      	add	r3, r2
 800315a:	4618      	mov	r0, r3
 800315c:	f002 f98e 	bl	800547c <HAL_Delay>
}
 8003160:	bf00      	nop
 8003162:	bd80      	pop	{r7, pc}
 8003164:	20000018 	.word	0x20000018

08003168 <dit>:

void dit()
{
 8003168:	b580      	push	{r7, lr}
 800316a:	af00      	add	r7, sp, #0
	HAL_Status = radio_write_register(0x34, 0x60);
 800316c:	2160      	movs	r1, #96	; 0x60
 800316e:	2034      	movs	r0, #52	; 0x34
 8003170:	f001 fad6 	bl	8004720 <radio_write_register>
 8003174:	4603      	mov	r3, r0
 8003176:	461a      	mov	r2, r3
 8003178:	4b06      	ldr	r3, [pc, #24]	; (8003194 <dit+0x2c>)
 800317a:	701a      	strb	r2, [r3, #0]
	HAL_Status =  radioTxData(txBuf,sizeof(txBuf));
 800317c:	2101      	movs	r1, #1
 800317e:	4806      	ldr	r0, [pc, #24]	; (8003198 <dit+0x30>)
 8003180:	f001 fc42 	bl	8004a08 <radioTxData>
 8003184:	4603      	mov	r3, r0
 8003186:	461a      	mov	r2, r3
 8003188:	4b02      	ldr	r3, [pc, #8]	; (8003194 <dit+0x2c>)
 800318a:	701a      	strb	r2, [r3, #0]
	space();
 800318c:	f7ff ffd2 	bl	8003134 <space>
}
 8003190:	bf00      	nop
 8003192:	bd80      	pop	{r7, pc}
 8003194:	200003e5 	.word	0x200003e5
 8003198:	200002a0 	.word	0x200002a0

0800319c <dah>:

void dah()
{
 800319c:	b580      	push	{r7, lr}
 800319e:	af00      	add	r7, sp, #0
	HAL_Status = radio_write_register(0x34, 0xff);
 80031a0:	21ff      	movs	r1, #255	; 0xff
 80031a2:	2034      	movs	r0, #52	; 0x34
 80031a4:	f001 fabc 	bl	8004720 <radio_write_register>
 80031a8:	4603      	mov	r3, r0
 80031aa:	461a      	mov	r2, r3
 80031ac:	4b06      	ldr	r3, [pc, #24]	; (80031c8 <dah+0x2c>)
 80031ae:	701a      	strb	r2, [r3, #0]
	HAL_Status =  radioTxData(txBuf,sizeof(txBuf));
 80031b0:	2101      	movs	r1, #1
 80031b2:	4806      	ldr	r0, [pc, #24]	; (80031cc <dah+0x30>)
 80031b4:	f001 fc28 	bl	8004a08 <radioTxData>
 80031b8:	4603      	mov	r3, r0
 80031ba:	461a      	mov	r2, r3
 80031bc:	4b02      	ldr	r3, [pc, #8]	; (80031c8 <dah+0x2c>)
 80031be:	701a      	strb	r2, [r3, #0]
	space();
 80031c0:	f7ff ffb8 	bl	8003134 <space>
}
 80031c4:	bf00      	nop
 80031c6:	bd80      	pop	{r7, pc}
 80031c8:	200003e5 	.word	0x200003e5
 80031cc:	200002a0 	.word	0x200002a0

080031d0 <sendCharacter>:

void sendCharacter(char c)
{
 80031d0:	b580      	push	{r7, lr}
 80031d2:	b082      	sub	sp, #8
 80031d4:	af00      	add	r7, sp, #0
 80031d6:	4603      	mov	r3, r0
 80031d8:	71fb      	strb	r3, [r7, #7]
	switch(c)
 80031da:	79fb      	ldrb	r3, [r7, #7]
 80031dc:	3b20      	subs	r3, #32
 80031de:	2b3a      	cmp	r3, #58	; 0x3a
 80031e0:	f200 81a8 	bhi.w	8003534 <sendCharacter+0x364>
 80031e4:	a201      	add	r2, pc, #4	; (adr r2, 80031ec <sendCharacter+0x1c>)
 80031e6:	f852 f023 	ldr.w	pc, [r2, r3, lsl #2]
 80031ea:	bf00      	nop
 80031ec:	0800352f 	.word	0x0800352f
 80031f0:	08003535 	.word	0x08003535
 80031f4:	08003535 	.word	0x08003535
 80031f8:	08003535 	.word	0x08003535
 80031fc:	08003535 	.word	0x08003535
 8003200:	08003535 	.word	0x08003535
 8003204:	08003535 	.word	0x08003535
 8003208:	08003535 	.word	0x08003535
 800320c:	08003535 	.word	0x08003535
 8003210:	08003535 	.word	0x08003535
 8003214:	08003535 	.word	0x08003535
 8003218:	08003535 	.word	0x08003535
 800321c:	08003535 	.word	0x08003535
 8003220:	08003535 	.word	0x08003535
 8003224:	08003535 	.word	0x08003535
 8003228:	08003535 	.word	0x08003535
 800322c:	08003519 	.word	0x08003519
 8003230:	08003453 	.word	0x08003453
 8003234:	08003469 	.word	0x08003469
 8003238:	0800347f 	.word	0x0800347f
 800323c:	08003495 	.word	0x08003495
 8003240:	080034ab 	.word	0x080034ab
 8003244:	080034c1 	.word	0x080034c1
 8003248:	080034d7 	.word	0x080034d7
 800324c:	080034ed 	.word	0x080034ed
 8003250:	08003503 	.word	0x08003503
 8003254:	08003535 	.word	0x08003535
 8003258:	08003535 	.word	0x08003535
 800325c:	08003535 	.word	0x08003535
 8003260:	08003535 	.word	0x08003535
 8003264:	08003535 	.word	0x08003535
 8003268:	08003535 	.word	0x08003535
 800326c:	08003535 	.word	0x08003535
 8003270:	080032d9 	.word	0x080032d9
 8003274:	080032e3 	.word	0x080032e3
 8003278:	080032f5 	.word	0x080032f5
 800327c:	08003307 	.word	0x08003307
 8003280:	08003315 	.word	0x08003315
 8003284:	0800331b 	.word	0x0800331b
 8003288:	0800332b 	.word	0x0800332b
 800328c:	08003339 	.word	0x08003339
 8003290:	0800334b 	.word	0x0800334b
 8003294:	08003355 	.word	0x08003355
 8003298:	08003367 	.word	0x08003367
 800329c:	08003375 	.word	0x08003375
 80032a0:	08003387 	.word	0x08003387
 80032a4:	08003391 	.word	0x08003391
 80032a8:	0800339b 	.word	0x0800339b
 80032ac:	080033a9 	.word	0x080033a9
 80032b0:	080033bb 	.word	0x080033bb
 80032b4:	080033cd 	.word	0x080033cd
 80032b8:	080033db 	.word	0x080033db
 80032bc:	080033e9 	.word	0x080033e9
 80032c0:	080033ef 	.word	0x080033ef
 80032c4:	080033fd 	.word	0x080033fd
 80032c8:	0800340f 	.word	0x0800340f
 80032cc:	0800341d 	.word	0x0800341d
 80032d0:	0800342f 	.word	0x0800342f
 80032d4:	08003441 	.word	0x08003441
	{
		case 'A':
			dit();
 80032d8:	f7ff ff46 	bl	8003168 <dit>
			dah();
 80032dc:	f7ff ff5e 	bl	800319c <dah>
			break;
 80032e0:	e128      	b.n	8003534 <sendCharacter+0x364>
		case 'B':
			dah();
 80032e2:	f7ff ff5b 	bl	800319c <dah>
			dit();
 80032e6:	f7ff ff3f 	bl	8003168 <dit>
			dit();
 80032ea:	f7ff ff3d 	bl	8003168 <dit>
			dit();
 80032ee:	f7ff ff3b 	bl	8003168 <dit>
			break;
 80032f2:	e11f      	b.n	8003534 <sendCharacter+0x364>
		case 'C':
			dah();
 80032f4:	f7ff ff52 	bl	800319c <dah>
			dit();
 80032f8:	f7ff ff36 	bl	8003168 <dit>
			dah();
 80032fc:	f7ff ff4e 	bl	800319c <dah>
			dit();
 8003300:	f7ff ff32 	bl	8003168 <dit>
			break;
 8003304:	e116      	b.n	8003534 <sendCharacter+0x364>
		case 'D':
			dah();
 8003306:	f7ff ff49 	bl	800319c <dah>
			dit();
 800330a:	f7ff ff2d 	bl	8003168 <dit>
			dit();
 800330e:	f7ff ff2b 	bl	8003168 <dit>
			break;
 8003312:	e10f      	b.n	8003534 <sendCharacter+0x364>
		case 'E':
			dit();
 8003314:	f7ff ff28 	bl	8003168 <dit>
			break;
 8003318:	e10c      	b.n	8003534 <sendCharacter+0x364>
		case 'F':
			dit();
 800331a:	f7ff ff25 	bl	8003168 <dit>
			dit();
 800331e:	f7ff ff23 	bl	8003168 <dit>
			dah();
 8003322:	f7ff ff3b 	bl	800319c <dah>
			dit();
 8003326:	f7ff ff1f 	bl	8003168 <dit>
		case 'G':
			dah();
 800332a:	f7ff ff37 	bl	800319c <dah>
			dah();
 800332e:	f7ff ff35 	bl	800319c <dah>
			dit();
 8003332:	f7ff ff19 	bl	8003168 <dit>
			break;
 8003336:	e0fd      	b.n	8003534 <sendCharacter+0x364>
		case 'H':
			dit();
 8003338:	f7ff ff16 	bl	8003168 <dit>
			dit();
 800333c:	f7ff ff14 	bl	8003168 <dit>
			dit();
 8003340:	f7ff ff12 	bl	8003168 <dit>
			dit();
 8003344:	f7ff ff10 	bl	8003168 <dit>
			break;
 8003348:	e0f4      	b.n	8003534 <sendCharacter+0x364>
		case 'I':
			dit();
 800334a:	f7ff ff0d 	bl	8003168 <dit>
			dit();
 800334e:	f7ff ff0b 	bl	8003168 <dit>
			break;
 8003352:	e0ef      	b.n	8003534 <sendCharacter+0x364>
		case 'J':
			dit();
 8003354:	f7ff ff08 	bl	8003168 <dit>
			dah();
 8003358:	f7ff ff20 	bl	800319c <dah>
			dah();
 800335c:	f7ff ff1e 	bl	800319c <dah>
			dah();
 8003360:	f7ff ff1c 	bl	800319c <dah>
			break;
 8003364:	e0e6      	b.n	8003534 <sendCharacter+0x364>
		case 'K':
			dah();
 8003366:	f7ff ff19 	bl	800319c <dah>
			dit();
 800336a:	f7ff fefd 	bl	8003168 <dit>
			dah();
 800336e:	f7ff ff15 	bl	800319c <dah>
			break;
 8003372:	e0df      	b.n	8003534 <sendCharacter+0x364>
		case 'L':
			dit();
 8003374:	f7ff fef8 	bl	8003168 <dit>
			dah();
 8003378:	f7ff ff10 	bl	800319c <dah>
			dit();
 800337c:	f7ff fef4 	bl	8003168 <dit>
			dit();
 8003380:	f7ff fef2 	bl	8003168 <dit>
			break;
 8003384:	e0d6      	b.n	8003534 <sendCharacter+0x364>
		case 'M':
			dah();
 8003386:	f7ff ff09 	bl	800319c <dah>
			dah();
 800338a:	f7ff ff07 	bl	800319c <dah>
			break;
 800338e:	e0d1      	b.n	8003534 <sendCharacter+0x364>
		case 'N':
			dah();
 8003390:	f7ff ff04 	bl	800319c <dah>
			dit();
 8003394:	f7ff fee8 	bl	8003168 <dit>
			break;
 8003398:	e0cc      	b.n	8003534 <sendCharacter+0x364>
		case 'O':
			dah();
 800339a:	f7ff feff 	bl	800319c <dah>
			dah();
 800339e:	f7ff fefd 	bl	800319c <dah>
			dah();
 80033a2:	f7ff fefb 	bl	800319c <dah>
			break;
 80033a6:	e0c5      	b.n	8003534 <sendCharacter+0x364>
		case 'P':
			dit();
 80033a8:	f7ff fede 	bl	8003168 <dit>
			dah();
 80033ac:	f7ff fef6 	bl	800319c <dah>
			dah();
 80033b0:	f7ff fef4 	bl	800319c <dah>
			dit();
 80033b4:	f7ff fed8 	bl	8003168 <dit>
			break;
 80033b8:	e0bc      	b.n	8003534 <sendCharacter+0x364>
		case 'Q':
			dah();
 80033ba:	f7ff feef 	bl	800319c <dah>
			dah();
 80033be:	f7ff feed 	bl	800319c <dah>
			dit();
 80033c2:	f7ff fed1 	bl	8003168 <dit>
			dah();
 80033c6:	f7ff fee9 	bl	800319c <dah>
			break;
 80033ca:	e0b3      	b.n	8003534 <sendCharacter+0x364>
		case 'R':
			dit();
 80033cc:	f7ff fecc 	bl	8003168 <dit>
			dah();
 80033d0:	f7ff fee4 	bl	800319c <dah>
			dit();
 80033d4:	f7ff fec8 	bl	8003168 <dit>
			break;
 80033d8:	e0ac      	b.n	8003534 <sendCharacter+0x364>
		case 'S':
			dit();
 80033da:	f7ff fec5 	bl	8003168 <dit>
			dit();
 80033de:	f7ff fec3 	bl	8003168 <dit>
			dit();
 80033e2:	f7ff fec1 	bl	8003168 <dit>
			break;
 80033e6:	e0a5      	b.n	8003534 <sendCharacter+0x364>
		case 'T':
			dah();
 80033e8:	f7ff fed8 	bl	800319c <dah>
			break;
 80033ec:	e0a2      	b.n	8003534 <sendCharacter+0x364>
		case 'U':
			dit();
 80033ee:	f7ff febb 	bl	8003168 <dit>
			dit();
 80033f2:	f7ff feb9 	bl	8003168 <dit>
			dah();
 80033f6:	f7ff fed1 	bl	800319c <dah>
			break;
 80033fa:	e09b      	b.n	8003534 <sendCharacter+0x364>
		case 'V':
			dit();
 80033fc:	f7ff feb4 	bl	8003168 <dit>
			dit();
 8003400:	f7ff feb2 	bl	8003168 <dit>
			dit();
 8003404:	f7ff feb0 	bl	8003168 <dit>
			dah();
 8003408:	f7ff fec8 	bl	800319c <dah>
			break;
 800340c:	e092      	b.n	8003534 <sendCharacter+0x364>
		case 'W':
			dit();
 800340e:	f7ff feab 	bl	8003168 <dit>
			dah();
 8003412:	f7ff fec3 	bl	800319c <dah>
			dah();
 8003416:	f7ff fec1 	bl	800319c <dah>
			break;
 800341a:	e08b      	b.n	8003534 <sendCharacter+0x364>
		case 'X':
			dah();
 800341c:	f7ff febe 	bl	800319c <dah>
			dit();
 8003420:	f7ff fea2 	bl	8003168 <dit>
			dit();
 8003424:	f7ff fea0 	bl	8003168 <dit>
			dah();
 8003428:	f7ff feb8 	bl	800319c <dah>
			break;
 800342c:	e082      	b.n	8003534 <sendCharacter+0x364>
		case 'Y':
			dah();
 800342e:	f7ff feb5 	bl	800319c <dah>
			dit();
 8003432:	f7ff fe99 	bl	8003168 <dit>
			dah();
 8003436:	f7ff feb1 	bl	800319c <dah>
			dah();
 800343a:	f7ff feaf 	bl	800319c <dah>
			break;
 800343e:	e079      	b.n	8003534 <sendCharacter+0x364>
		case 'Z':
			dah();
 8003440:	f7ff feac 	bl	800319c <dah>
			dah();
 8003444:	f7ff feaa 	bl	800319c <dah>
			dit();
 8003448:	f7ff fe8e 	bl	8003168 <dit>
			dit();
 800344c:	f7ff fe8c 	bl	8003168 <dit>
			break;
 8003450:	e070      	b.n	8003534 <sendCharacter+0x364>
		case '1':
			dit();
 8003452:	f7ff fe89 	bl	8003168 <dit>
			dah();
 8003456:	f7ff fea1 	bl	800319c <dah>
			dah();
 800345a:	f7ff fe9f 	bl	800319c <dah>
			dah();
 800345e:	f7ff fe9d 	bl	800319c <dah>
			dah();
 8003462:	f7ff fe9b 	bl	800319c <dah>
			break;
 8003466:	e065      	b.n	8003534 <sendCharacter+0x364>
		case '2':
			dit();
 8003468:	f7ff fe7e 	bl	8003168 <dit>
			dit();
 800346c:	f7ff fe7c 	bl	8003168 <dit>
			dah();
 8003470:	f7ff fe94 	bl	800319c <dah>
			dah();
 8003474:	f7ff fe92 	bl	800319c <dah>
			dah();
 8003478:	f7ff fe90 	bl	800319c <dah>
			break;
 800347c:	e05a      	b.n	8003534 <sendCharacter+0x364>
		case '3':
			dit();
 800347e:	f7ff fe73 	bl	8003168 <dit>
			dit();
 8003482:	f7ff fe71 	bl	8003168 <dit>
			dit();
 8003486:	f7ff fe6f 	bl	8003168 <dit>
			dah();
 800348a:	f7ff fe87 	bl	800319c <dah>
			dah();
 800348e:	f7ff fe85 	bl	800319c <dah>

			break;
 8003492:	e04f      	b.n	8003534 <sendCharacter+0x364>
		case '4':
			dit();
 8003494:	f7ff fe68 	bl	8003168 <dit>
			dit();
 8003498:	f7ff fe66 	bl	8003168 <dit>
			dit();
 800349c:	f7ff fe64 	bl	8003168 <dit>
			dit();
 80034a0:	f7ff fe62 	bl	8003168 <dit>
			dah();
 80034a4:	f7ff fe7a 	bl	800319c <dah>
			break;
 80034a8:	e044      	b.n	8003534 <sendCharacter+0x364>
		case '5':
			dit();
 80034aa:	f7ff fe5d 	bl	8003168 <dit>
			dit();
 80034ae:	f7ff fe5b 	bl	8003168 <dit>
			dit();
 80034b2:	f7ff fe59 	bl	8003168 <dit>
			dit();
 80034b6:	f7ff fe57 	bl	8003168 <dit>
			dit();
 80034ba:	f7ff fe55 	bl	8003168 <dit>
			break;
 80034be:	e039      	b.n	8003534 <sendCharacter+0x364>
		case '6':
			dah();
 80034c0:	f7ff fe6c 	bl	800319c <dah>
			dit();
 80034c4:	f7ff fe50 	bl	8003168 <dit>
			dit();
 80034c8:	f7ff fe4e 	bl	8003168 <dit>
			dit();
 80034cc:	f7ff fe4c 	bl	8003168 <dit>
			dit();
 80034d0:	f7ff fe4a 	bl	8003168 <dit>
			break;
 80034d4:	e02e      	b.n	8003534 <sendCharacter+0x364>
		case '7':
			dah();
 80034d6:	f7ff fe61 	bl	800319c <dah>
			dah();
 80034da:	f7ff fe5f 	bl	800319c <dah>
			dit();
 80034de:	f7ff fe43 	bl	8003168 <dit>
			dit();
 80034e2:	f7ff fe41 	bl	8003168 <dit>
			dit();
 80034e6:	f7ff fe3f 	bl	8003168 <dit>
			break;
 80034ea:	e023      	b.n	8003534 <sendCharacter+0x364>
		case '8':
			dah();
 80034ec:	f7ff fe56 	bl	800319c <dah>
			dah();
 80034f0:	f7ff fe54 	bl	800319c <dah>
			dah();
 80034f4:	f7ff fe52 	bl	800319c <dah>
			dit();
 80034f8:	f7ff fe36 	bl	8003168 <dit>
			dit();
 80034fc:	f7ff fe34 	bl	8003168 <dit>
			break;
 8003500:	e018      	b.n	8003534 <sendCharacter+0x364>
		case '9':
			dah();
 8003502:	f7ff fe4b 	bl	800319c <dah>
			dah();
 8003506:	f7ff fe49 	bl	800319c <dah>
			dah();
 800350a:	f7ff fe47 	bl	800319c <dah>
			dah();
 800350e:	f7ff fe45 	bl	800319c <dah>
			dit();
 8003512:	f7ff fe29 	bl	8003168 <dit>
			break;
 8003516:	e00d      	b.n	8003534 <sendCharacter+0x364>
		case '0':
			dah();
 8003518:	f7ff fe40 	bl	800319c <dah>
			dah();
 800351c:	f7ff fe3e 	bl	800319c <dah>
			dah();
 8003520:	f7ff fe3c 	bl	800319c <dah>
			dah();
 8003524:	f7ff fe3a 	bl	800319c <dah>
			dah();
 8003528:	f7ff fe38 	bl	800319c <dah>
			break;
 800352c:	e002      	b.n	8003534 <sendCharacter+0x364>
		case ' ':
			characterSpace();
 800352e:	f7ff fe0d 	bl	800314c <characterSpace>
			break;
 8003532:	bf00      	nop
	}

	characterSpace();
 8003534:	f7ff fe0a 	bl	800314c <characterSpace>
}
 8003538:	bf00      	nop
 800353a:	3708      	adds	r7, #8
 800353c:	46bd      	mov	sp, r7
 800353e:	bd80      	pop	{r7, pc}

08003540 <sendCallCW>:

void sendCallCW(char * call, int len)
{
 8003540:	b580      	push	{r7, lr}
 8003542:	b084      	sub	sp, #16
 8003544:	af00      	add	r7, sp, #0
 8003546:	6078      	str	r0, [r7, #4]
 8003548:	6039      	str	r1, [r7, #0]
	int i;;

	characterSpace();
 800354a:	f7ff fdff 	bl	800314c <characterSpace>
	characterSpace();
 800354e:	f7ff fdfd 	bl	800314c <characterSpace>

	for(i=0;i< len;i++)
 8003552:	2300      	movs	r3, #0
 8003554:	60fb      	str	r3, [r7, #12]
 8003556:	e009      	b.n	800356c <sendCallCW+0x2c>
		sendCharacter(call[i]);
 8003558:	68fb      	ldr	r3, [r7, #12]
 800355a:	687a      	ldr	r2, [r7, #4]
 800355c:	4413      	add	r3, r2
 800355e:	781b      	ldrb	r3, [r3, #0]
 8003560:	4618      	mov	r0, r3
 8003562:	f7ff fe35 	bl	80031d0 <sendCharacter>
	for(i=0;i< len;i++)
 8003566:	68fb      	ldr	r3, [r7, #12]
 8003568:	3301      	adds	r3, #1
 800356a:	60fb      	str	r3, [r7, #12]
 800356c:	68fa      	ldr	r2, [r7, #12]
 800356e:	683b      	ldr	r3, [r7, #0]
 8003570:	429a      	cmp	r2, r3
 8003572:	dbf1      	blt.n	8003558 <sendCallCW+0x18>
}
 8003574:	bf00      	nop
 8003576:	bf00      	nop
 8003578:	3710      	adds	r7, #16
 800357a:	46bd      	mov	sp, r7
 800357c:	bd80      	pop	{r7, pc}

0800357e <rscode_init>:
#include "ecc.h"
#include "rs.h"
#include "berlekamp.h"

void rscode_init(struct rscode_driver * driver)
{
 800357e:	b580      	push	{r7, lr}
 8003580:	b082      	sub	sp, #8
 8003582:	af00      	add	r7, sp, #0
 8003584:	6078      	str	r0, [r7, #4]
  zero_fill_from ((unsigned char *)driver,0,sizeof(struct rscode_driver));
 8003586:	f640 1288 	movw	r2, #2440	; 0x988
 800358a:	2100      	movs	r1, #0
 800358c:	6878      	ldr	r0, [r7, #4]
 800358e:	f001 faa7 	bl	8004ae0 <zero_fill_from>
  initialize_ecc (driver);
 8003592:	6878      	ldr	r0, [r7, #4]
 8003594:	f001 fa96 	bl	8004ac4 <initialize_ecc>
}
 8003598:	bf00      	nop
 800359a:	3708      	adds	r7, #8
 800359c:	46bd      	mov	sp, r7
 800359e:	bd80      	pop	{r7, pc}

080035a0 <rscode_encode>:

void rscode_encode(struct rscode_driver * driver, unsigned char *msg, int nbytes, unsigned char *dst)
{
 80035a0:	b580      	push	{r7, lr}
 80035a2:	b084      	sub	sp, #16
 80035a4:	af00      	add	r7, sp, #0
 80035a6:	60f8      	str	r0, [r7, #12]
 80035a8:	60b9      	str	r1, [r7, #8]
 80035aa:	607a      	str	r2, [r7, #4]
 80035ac:	603b      	str	r3, [r7, #0]
  encode_data (driver, msg, nbytes,dst);
 80035ae:	683b      	ldr	r3, [r7, #0]
 80035b0:	687a      	ldr	r2, [r7, #4]
 80035b2:	68b9      	ldr	r1, [r7, #8]
 80035b4:	68f8      	ldr	r0, [r7, #12]
 80035b6:	f001 fb3e 	bl	8004c36 <encode_data>
}
 80035ba:	bf00      	nop
 80035bc:	3710      	adds	r7, #16
 80035be:	46bd      	mov	sp, r7
 80035c0:	bd80      	pop	{r7, pc}

080035c2 <processExternalTemp>:
#include "externalTemp.h"
#include "stm32f1xx_hal.h"
#include "config.h"

int processExternalTemp(struct rscode_driver *rsDriver, float externalTemp)
{
 80035c2:	b590      	push	{r4, r7, lr}
 80035c4:	b099      	sub	sp, #100	; 0x64
 80035c6:	af00      	add	r7, sp, #0
 80035c8:	6078      	str	r0, [r7, #4]
 80035ca:	6039      	str	r1, [r7, #0]
	HAL_StatusTypeDef HAL_Status;
	int status   = 1;
 80035cc:	2301      	movs	r3, #1
 80035ce:	65fb      	str	r3, [r7, #92]	; 0x5c
	uint16_t len = 0;
 80035d0:	2300      	movs	r3, #0
 80035d2:	f8a7 305a 	strh.w	r3, [r7, #90]	; 0x5a
	uint8_t txBuf[MTU_SIZE];

	struct HABPacketExtTempInfoDataType HABPacketExtTempInfoData;

	memset(&HABPacketExtTempInfoData, '\0', sizeof(HABPacketExtTempInfoData));
 80035d6:	f107 0308 	add.w	r3, r7, #8
 80035da:	2210      	movs	r2, #16
 80035dc:	2100      	movs	r1, #0
 80035de:	4618      	mov	r0, r3
 80035e0:	f004 ffe2 	bl	80085a8 <memset>

	HABPacketExtTempInfoData.packetType  		= EXT_TEMP;
 80035e4:	2399      	movs	r3, #153	; 0x99
 80035e6:	813b      	strh	r3, [r7, #8]
	HABPacketExtTempInfoData.extTempInfoData  	= externalTemp;
 80035e8:	683b      	ldr	r3, [r7, #0]
 80035ea:	f8c7 300a 	str.w	r3, [r7, #10]

	len = sizeof(HABPacketExtTempInfoData)-sizeof(HABPacketExtTempInfoData.crc16)-NPAR;
 80035ee:	2306      	movs	r3, #6
 80035f0:	f8a7 305a 	strh.w	r3, [r7, #90]	; 0x5a
	HABPacketExtTempInfoData.crc16 = crc_16((unsigned char *)&HABPacketExtTempInfoData,len);
 80035f4:	f8b7 205a 	ldrh.w	r2, [r7, #90]	; 0x5a
 80035f8:	f107 0308 	add.w	r3, r7, #8
 80035fc:	4611      	mov	r1, r2
 80035fe:	4618      	mov	r0, r3
 8003600:	f7ff fd1e 	bl	8003040 <crc_16>
 8003604:	4603      	mov	r3, r0
 8003606:	81fb      	strh	r3, [r7, #14]
	rscode_encode(rsDriver, (unsigned char *)&HABPacketExtTempInfoData, sizeof(HABPacketExtTempInfoData)-NPAR, (unsigned char *)&HABPacketExtTempInfoData);
 8003608:	f107 0308 	add.w	r3, r7, #8
 800360c:	f107 0108 	add.w	r1, r7, #8
 8003610:	2208      	movs	r2, #8
 8003612:	6878      	ldr	r0, [r7, #4]
 8003614:	f7ff ffc4 	bl	80035a0 <rscode_encode>
	memcpy(txBuf,&HABPacketExtTempInfoData,sizeof(HABPacketExtTempInfoData));;
 8003618:	f107 0418 	add.w	r4, r7, #24
 800361c:	f107 0308 	add.w	r3, r7, #8
 8003620:	cb0f      	ldmia	r3, {r0, r1, r2, r3}
 8003622:	e884 000f 	stmia.w	r4, {r0, r1, r2, r3}
	HAL_Status =  radioTxData(txBuf,sizeof(HABPacketExtTempInfoData));
 8003626:	f107 0318 	add.w	r3, r7, #24
 800362a:	2110      	movs	r1, #16
 800362c:	4618      	mov	r0, r3
 800362e:	f001 f9eb 	bl	8004a08 <radioTxData>
 8003632:	4603      	mov	r3, r0
 8003634:	f887 3059 	strb.w	r3, [r7, #89]	; 0x59
	HAL_Delay(PROTOCOL_DELAY);
 8003638:	2064      	movs	r0, #100	; 0x64
 800363a:	f001 ff1f 	bl	800547c <HAL_Delay>
	if(HAL_Status != HAL_OK)
	{

	}

	return status;
 800363e:	6dfb      	ldr	r3, [r7, #92]	; 0x5c
}
 8003640:	4618      	mov	r0, r3
 8003642:	3764      	adds	r7, #100	; 0x64
 8003644:	46bd      	mov	sp, r7
 8003646:	bd90      	pop	{r4, r7, pc}

08003648 <gexp>:

#define PRIM_POLY 0435
#define NWM1 ((1 << 8)-1)

int gexp(__attribute__((unused)) struct rscode_driver * driver, int z)
{
 8003648:	b480      	push	{r7}
 800364a:	b08f      	sub	sp, #60	; 0x3c
 800364c:	af00      	add	r7, sp, #0
 800364e:	6078      	str	r0, [r7, #4]
 8003650:	6039      	str	r1, [r7, #0]
  int i;
  int pinit,p1,p2,p3,p4,p5,p6,p7,p8;
  int ret = 1;
 8003652:	2301      	movs	r3, #1
 8003654:	613b      	str	r3, [r7, #16]

  pinit = p2 = p3 = p4 = p5 = p6 = p7 = p8 = 0;
 8003656:	2300      	movs	r3, #0
 8003658:	617b      	str	r3, [r7, #20]
 800365a:	697b      	ldr	r3, [r7, #20]
 800365c:	61bb      	str	r3, [r7, #24]
 800365e:	69bb      	ldr	r3, [r7, #24]
 8003660:	61fb      	str	r3, [r7, #28]
 8003662:	69fb      	ldr	r3, [r7, #28]
 8003664:	623b      	str	r3, [r7, #32]
 8003666:	6a3b      	ldr	r3, [r7, #32]
 8003668:	627b      	str	r3, [r7, #36]	; 0x24
 800366a:	6a7b      	ldr	r3, [r7, #36]	; 0x24
 800366c:	62bb      	str	r3, [r7, #40]	; 0x28
 800366e:	6abb      	ldr	r3, [r7, #40]	; 0x28
 8003670:	62fb      	str	r3, [r7, #44]	; 0x2c
 8003672:	6afb      	ldr	r3, [r7, #44]	; 0x2c
 8003674:	60fb      	str	r3, [r7, #12]
  p1 = 1;
 8003676:	2301      	movs	r3, #1
 8003678:	633b      	str	r3, [r7, #48]	; 0x30
  
  if(z!=0) {
 800367a:	683b      	ldr	r3, [r7, #0]
 800367c:	2b00      	cmp	r3, #0
 800367e:	d038      	beq.n	80036f2 <gexp+0xaa>
    for (i = 1; i <= z; i++) {
 8003680:	2301      	movs	r3, #1
 8003682:	637b      	str	r3, [r7, #52]	; 0x34
 8003684:	e01a      	b.n	80036bc <gexp+0x74>
      pinit = p8;
 8003686:	697b      	ldr	r3, [r7, #20]
 8003688:	60fb      	str	r3, [r7, #12]
      p8 = p7;
 800368a:	69bb      	ldr	r3, [r7, #24]
 800368c:	617b      	str	r3, [r7, #20]
      p7 = p6;
 800368e:	69fb      	ldr	r3, [r7, #28]
 8003690:	61bb      	str	r3, [r7, #24]
      p6 = p5;
 8003692:	6a3b      	ldr	r3, [r7, #32]
 8003694:	61fb      	str	r3, [r7, #28]
      p5 = p4 ^ pinit;
 8003696:	6a7a      	ldr	r2, [r7, #36]	; 0x24
 8003698:	68fb      	ldr	r3, [r7, #12]
 800369a:	4053      	eors	r3, r2
 800369c:	623b      	str	r3, [r7, #32]
      p4 = p3 ^ pinit;
 800369e:	6aba      	ldr	r2, [r7, #40]	; 0x28
 80036a0:	68fb      	ldr	r3, [r7, #12]
 80036a2:	4053      	eors	r3, r2
 80036a4:	627b      	str	r3, [r7, #36]	; 0x24
      p3 = p2 ^ pinit;
 80036a6:	6afa      	ldr	r2, [r7, #44]	; 0x2c
 80036a8:	68fb      	ldr	r3, [r7, #12]
 80036aa:	4053      	eors	r3, r2
 80036ac:	62bb      	str	r3, [r7, #40]	; 0x28
      p2 = p1;
 80036ae:	6b3b      	ldr	r3, [r7, #48]	; 0x30
 80036b0:	62fb      	str	r3, [r7, #44]	; 0x2c
      p1 = pinit;
 80036b2:	68fb      	ldr	r3, [r7, #12]
 80036b4:	633b      	str	r3, [r7, #48]	; 0x30
    for (i = 1; i <= z; i++) {
 80036b6:	6b7b      	ldr	r3, [r7, #52]	; 0x34
 80036b8:	3301      	adds	r3, #1
 80036ba:	637b      	str	r3, [r7, #52]	; 0x34
 80036bc:	6b7a      	ldr	r2, [r7, #52]	; 0x34
 80036be:	683b      	ldr	r3, [r7, #0]
 80036c0:	429a      	cmp	r2, r3
 80036c2:	dde0      	ble.n	8003686 <gexp+0x3e>
    }
    ret = p1 + (p2<<1) + (p3<<2) + (p4<<3) + (p5<<4) + (p6<<5) + (p7<<6) + (p8<<7);
 80036c4:	6afb      	ldr	r3, [r7, #44]	; 0x2c
 80036c6:	005a      	lsls	r2, r3, #1
 80036c8:	6b3b      	ldr	r3, [r7, #48]	; 0x30
 80036ca:	441a      	add	r2, r3
 80036cc:	6abb      	ldr	r3, [r7, #40]	; 0x28
 80036ce:	009b      	lsls	r3, r3, #2
 80036d0:	441a      	add	r2, r3
 80036d2:	6a7b      	ldr	r3, [r7, #36]	; 0x24
 80036d4:	00db      	lsls	r3, r3, #3
 80036d6:	441a      	add	r2, r3
 80036d8:	6a3b      	ldr	r3, [r7, #32]
 80036da:	011b      	lsls	r3, r3, #4
 80036dc:	441a      	add	r2, r3
 80036de:	69fb      	ldr	r3, [r7, #28]
 80036e0:	015b      	lsls	r3, r3, #5
 80036e2:	441a      	add	r2, r3
 80036e4:	69bb      	ldr	r3, [r7, #24]
 80036e6:	019b      	lsls	r3, r3, #6
 80036e8:	441a      	add	r2, r3
 80036ea:	697b      	ldr	r3, [r7, #20]
 80036ec:	01db      	lsls	r3, r3, #7
 80036ee:	4413      	add	r3, r2
 80036f0:	613b      	str	r3, [r7, #16]
  }
  return ret;
 80036f2:	693b      	ldr	r3, [r7, #16]
}
 80036f4:	4618      	mov	r0, r3
 80036f6:	373c      	adds	r7, #60	; 0x3c
 80036f8:	46bd      	mov	sp, r7
 80036fa:	bc80      	pop	{r7}
 80036fc:	4770      	bx	lr

080036fe <gmult>:

int gmult(__attribute__((unused)) struct rscode_driver * driver, int x, int y)
{
 80036fe:	b480      	push	{r7}
 8003700:	b093      	sub	sp, #76	; 0x4c
 8003702:	af00      	add	r7, sp, #0
 8003704:	60f8      	str	r0, [r7, #12]
 8003706:	60b9      	str	r1, [r7, #8]
 8003708:	607a      	str	r2, [r7, #4]
  int prod;
  int i, j, ind;
  int k;
  int scratch[8];
  int w;
  if (x==0 || y == 0) return (0);
 800370a:	68bb      	ldr	r3, [r7, #8]
 800370c:	2b00      	cmp	r3, #0
 800370e:	d002      	beq.n	8003716 <gmult+0x18>
 8003710:	687b      	ldr	r3, [r7, #4]
 8003712:	2b00      	cmp	r3, #0
 8003714:	d101      	bne.n	800371a <gmult+0x1c>
 8003716:	2300      	movs	r3, #0
 8003718:	e05c      	b.n	80037d4 <gmult+0xd6>
  w = 8;
 800371a:	2308      	movs	r3, #8
 800371c:	637b      	str	r3, [r7, #52]	; 0x34

  prod = 0;
 800371e:	2300      	movs	r3, #0
 8003720:	647b      	str	r3, [r7, #68]	; 0x44
  for (i = 0; i < w; i++) {
 8003722:	2300      	movs	r3, #0
 8003724:	643b      	str	r3, [r7, #64]	; 0x40
 8003726:	e021      	b.n	800376c <gmult+0x6e>
    scratch[i] = y;
 8003728:	6c3b      	ldr	r3, [r7, #64]	; 0x40
 800372a:	009b      	lsls	r3, r3, #2
 800372c:	f107 0248 	add.w	r2, r7, #72	; 0x48
 8003730:	4413      	add	r3, r2
 8003732:	687a      	ldr	r2, [r7, #4]
 8003734:	f843 2c38 	str.w	r2, [r3, #-56]
    if (y & (1 << (w-1))) {
 8003738:	6b7b      	ldr	r3, [r7, #52]	; 0x34
 800373a:	3b01      	subs	r3, #1
 800373c:	687a      	ldr	r2, [r7, #4]
 800373e:	fa42 f303 	asr.w	r3, r2, r3
 8003742:	f003 0301 	and.w	r3, r3, #1
 8003746:	2b00      	cmp	r3, #0
 8003748:	d00a      	beq.n	8003760 <gmult+0x62>
      y = y << 1;
 800374a:	687b      	ldr	r3, [r7, #4]
 800374c:	005b      	lsls	r3, r3, #1
 800374e:	607b      	str	r3, [r7, #4]
      y = (y ^ PRIM_POLY) & NWM1;
 8003750:	687b      	ldr	r3, [r7, #4]
 8003752:	f483 738e 	eor.w	r3, r3, #284	; 0x11c
 8003756:	f083 0301 	eor.w	r3, r3, #1
 800375a:	b2db      	uxtb	r3, r3
 800375c:	607b      	str	r3, [r7, #4]
 800375e:	e002      	b.n	8003766 <gmult+0x68>
    } else {
      y = y << 1;
 8003760:	687b      	ldr	r3, [r7, #4]
 8003762:	005b      	lsls	r3, r3, #1
 8003764:	607b      	str	r3, [r7, #4]
  for (i = 0; i < w; i++) {
 8003766:	6c3b      	ldr	r3, [r7, #64]	; 0x40
 8003768:	3301      	adds	r3, #1
 800376a:	643b      	str	r3, [r7, #64]	; 0x40
 800376c:	6c3a      	ldr	r2, [r7, #64]	; 0x40
 800376e:	6b7b      	ldr	r3, [r7, #52]	; 0x34
 8003770:	429a      	cmp	r2, r3
 8003772:	dbd9      	blt.n	8003728 <gmult+0x2a>
    }
  }
  for (i = 0; i < w; i++) {
 8003774:	2300      	movs	r3, #0
 8003776:	643b      	str	r3, [r7, #64]	; 0x40
 8003778:	e027      	b.n	80037ca <gmult+0xcc>
    ind = (1 << i);
 800377a:	2201      	movs	r2, #1
 800377c:	6c3b      	ldr	r3, [r7, #64]	; 0x40
 800377e:	fa02 f303 	lsl.w	r3, r2, r3
 8003782:	633b      	str	r3, [r7, #48]	; 0x30
    if (ind & x) {
 8003784:	6b3a      	ldr	r2, [r7, #48]	; 0x30
 8003786:	68bb      	ldr	r3, [r7, #8]
 8003788:	4013      	ands	r3, r2
 800378a:	2b00      	cmp	r3, #0
 800378c:	d01a      	beq.n	80037c4 <gmult+0xc6>
      j = 1;
 800378e:	2301      	movs	r3, #1
 8003790:	63fb      	str	r3, [r7, #60]	; 0x3c
      for (k = 0; k < w; k++) {
 8003792:	2300      	movs	r3, #0
 8003794:	63bb      	str	r3, [r7, #56]	; 0x38
 8003796:	e011      	b.n	80037bc <gmult+0xbe>
        prod = prod ^ (j & scratch[i]);
 8003798:	6c3b      	ldr	r3, [r7, #64]	; 0x40
 800379a:	009b      	lsls	r3, r3, #2
 800379c:	f107 0248 	add.w	r2, r7, #72	; 0x48
 80037a0:	4413      	add	r3, r2
 80037a2:	f853 2c38 	ldr.w	r2, [r3, #-56]
 80037a6:	6bfb      	ldr	r3, [r7, #60]	; 0x3c
 80037a8:	4013      	ands	r3, r2
 80037aa:	6c7a      	ldr	r2, [r7, #68]	; 0x44
 80037ac:	4053      	eors	r3, r2
 80037ae:	647b      	str	r3, [r7, #68]	; 0x44
        j = (j << 1);
 80037b0:	6bfb      	ldr	r3, [r7, #60]	; 0x3c
 80037b2:	005b      	lsls	r3, r3, #1
 80037b4:	63fb      	str	r3, [r7, #60]	; 0x3c
      for (k = 0; k < w; k++) {
 80037b6:	6bbb      	ldr	r3, [r7, #56]	; 0x38
 80037b8:	3301      	adds	r3, #1
 80037ba:	63bb      	str	r3, [r7, #56]	; 0x38
 80037bc:	6bba      	ldr	r2, [r7, #56]	; 0x38
 80037be:	6b7b      	ldr	r3, [r7, #52]	; 0x34
 80037c0:	429a      	cmp	r2, r3
 80037c2:	dbe9      	blt.n	8003798 <gmult+0x9a>
  for (i = 0; i < w; i++) {
 80037c4:	6c3b      	ldr	r3, [r7, #64]	; 0x40
 80037c6:	3301      	adds	r3, #1
 80037c8:	643b      	str	r3, [r7, #64]	; 0x40
 80037ca:	6c3a      	ldr	r2, [r7, #64]	; 0x40
 80037cc:	6b7b      	ldr	r3, [r7, #52]	; 0x34
 80037ce:	429a      	cmp	r2, r3
 80037d0:	dbd3      	blt.n	800377a <gmult+0x7c>
      }
    }
  }
  return prod;
 80037d2:	6c7b      	ldr	r3, [r7, #68]	; 0x44
}	
 80037d4:	4618      	mov	r0, r3
 80037d6:	374c      	adds	r7, #76	; 0x4c
 80037d8:	46bd      	mov	sp, r7
 80037da:	bc80      	pop	{r7}
 80037dc:	4770      	bx	lr
	...

080037e0 <processGPS>:
#include "config.h"
#include "gps.h"
#include "packetDefs.h"

GPS_StatusTypeDef processGPS(UART_HandleTypeDef *huart)
{
 80037e0:	b5b0      	push	{r4, r5, r7, lr}
 80037e2:	f5ad 7d06 	sub.w	sp, sp, #536	; 0x218
 80037e6:	af02      	add	r7, sp, #8
 80037e8:	1d3b      	adds	r3, r7, #4
 80037ea:	6018      	str	r0, [r3, #0]
	HAL_StatusTypeDef HAL_Status;
	GPS_StatusTypeDef gpsStatus  = GPS_OK;
 80037ec:	2300      	movs	r3, #0
 80037ee:	f887 3207 	strb.w	r3, [r7, #519]	; 0x207
	uint16_t uartRxLen;
	int indx = 0;
 80037f2:	2300      	movs	r3, #0
 80037f4:	f8c7 320c 	str.w	r3, [r7, #524]	; 0x20c
	static uint8_t GPGGASentence[GPS_UART_BUF_DATA_SIZE];
	static uint8_t GPRMCSentence[GPS_UART_BUF_DATA_SIZE];
	struct HABPacketGPSDataType HABPacketGPSData;


	HAL_Status = HAL_UARTEx_ReceiveToIdle(huart, (uint8_t *)&gpsUARTBuf, UART_DATA_SIZE, &uartRxLen, 3000);
 80037f8:	f507 7301 	add.w	r3, r7, #516	; 0x204
 80037fc:	f107 0188 	add.w	r1, r7, #136	; 0x88
 8003800:	1d38      	adds	r0, r7, #4
 8003802:	f640 32b8 	movw	r2, #3000	; 0xbb8
 8003806:	9200      	str	r2, [sp, #0]
 8003808:	f44f 7296 	mov.w	r2, #300	; 0x12c
 800380c:	6800      	ldr	r0, [r0, #0]
 800380e:	f004 fc8e 	bl	800812e <HAL_UARTEx_ReceiveToIdle>
 8003812:	4603      	mov	r3, r0
 8003814:	f887 3206 	strb.w	r3, [r7, #518]	; 0x206
	HAL_Delay(100);
 8003818:	2064      	movs	r0, #100	; 0x64
 800381a:	f001 fe2f 	bl	800547c <HAL_Delay>
	if(HAL_Status == HAL_OK)
 800381e:	f897 3206 	ldrb.w	r3, [r7, #518]	; 0x206
 8003822:	2b00      	cmp	r3, #0
 8003824:	d175      	bne.n	8003912 <processGPS+0x132>
	{
	  for(int i=0;i<uartRxLen;i++)
 8003826:	2300      	movs	r3, #0
 8003828:	f8c7 3208 	str.w	r3, [r7, #520]	; 0x208
 800382c:	e069      	b.n	8003902 <processGPS+0x122>
	  {
		gpsSentence[indx] = gpsUARTBuf[i];
 800382e:	f107 0288 	add.w	r2, r7, #136	; 0x88
 8003832:	f8d7 3208 	ldr.w	r3, [r7, #520]	; 0x208
 8003836:	4413      	add	r3, r2
 8003838:	7819      	ldrb	r1, [r3, #0]
 800383a:	f507 72da 	add.w	r2, r7, #436	; 0x1b4
 800383e:	f8d7 320c 	ldr.w	r3, [r7, #524]	; 0x20c
 8003842:	4413      	add	r3, r2
 8003844:	460a      	mov	r2, r1
 8003846:	701a      	strb	r2, [r3, #0]
		indx++;
 8003848:	f8d7 320c 	ldr.w	r3, [r7, #524]	; 0x20c
 800384c:	3301      	adds	r3, #1
 800384e:	f8c7 320c 	str.w	r3, [r7, #524]	; 0x20c
		if( (gpsUARTBuf[i] == '\n') | (indx > GPS_UART_BUF_DATA_SIZE-1) )
 8003852:	f107 0288 	add.w	r2, r7, #136	; 0x88
 8003856:	f8d7 3208 	ldr.w	r3, [r7, #520]	; 0x208
 800385a:	4413      	add	r3, r2
 800385c:	781b      	ldrb	r3, [r3, #0]
 800385e:	2b0a      	cmp	r3, #10
 8003860:	bf0c      	ite	eq
 8003862:	2301      	moveq	r3, #1
 8003864:	2300      	movne	r3, #0
 8003866:	b2da      	uxtb	r2, r3
 8003868:	f8d7 320c 	ldr.w	r3, [r7, #524]	; 0x20c
 800386c:	2b4f      	cmp	r3, #79	; 0x4f
 800386e:	bfcc      	ite	gt
 8003870:	2301      	movgt	r3, #1
 8003872:	2300      	movle	r3, #0
 8003874:	b2db      	uxtb	r3, r3
 8003876:	4313      	orrs	r3, r2
 8003878:	b2db      	uxtb	r3, r3
 800387a:	2b00      	cmp	r3, #0
 800387c:	d03c      	beq.n	80038f8 <processGPS+0x118>
		{
		  if(gpsSentence[0] == '$')
 800387e:	f897 31b4 	ldrb.w	r3, [r7, #436]	; 0x1b4
 8003882:	2b24      	cmp	r3, #36	; 0x24
 8003884:	d135      	bne.n	80038f2 <processGPS+0x112>
		  {
			if(strncmp("GGA",(const char *)&gpsSentence[3],3) == 0)
 8003886:	f507 73da 	add.w	r3, r7, #436	; 0x1b4
 800388a:	3303      	adds	r3, #3
 800388c:	2203      	movs	r2, #3
 800388e:	4619      	mov	r1, r3
 8003890:	48c1      	ldr	r0, [pc, #772]	; (8003b98 <processGPS+0x3b8>)
 8003892:	f004 fe91 	bl	80085b8 <strncmp>
 8003896:	4603      	mov	r3, r0
 8003898:	2b00      	cmp	r3, #0
 800389a:	d10f      	bne.n	80038bc <processGPS+0xdc>
			{
			  memset(GPGGASentence, '\0', GPS_UART_BUF_DATA_SIZE);
 800389c:	2250      	movs	r2, #80	; 0x50
 800389e:	2100      	movs	r1, #0
 80038a0:	48be      	ldr	r0, [pc, #760]	; (8003b9c <processGPS+0x3bc>)
 80038a2:	f004 fe81 	bl	80085a8 <memset>
			  memcpy(GPGGASentence,gpsSentence,indx);
 80038a6:	f8d7 220c 	ldr.w	r2, [r7, #524]	; 0x20c
 80038aa:	f507 73da 	add.w	r3, r7, #436	; 0x1b4
 80038ae:	4619      	mov	r1, r3
 80038b0:	48ba      	ldr	r0, [pc, #744]	; (8003b9c <processGPS+0x3bc>)
 80038b2:	f004 fe6b 	bl	800858c <memcpy>
			  sendGGA = 1;
 80038b6:	4bba      	ldr	r3, [pc, #744]	; (8003ba0 <processGPS+0x3c0>)
 80038b8:	2201      	movs	r2, #1
 80038ba:	601a      	str	r2, [r3, #0]
				 //if(sscanf(&GPGGASentence, "GPGGA,%f,%f,%c,%f,%c,%d,%d,%f,%f,%c,%f", &time, &latitude, &ns, &longitude, &ew, &lock, &sats, &hdop, &alt, &unit, &geoid) >= 1)
			 }
			 if(strncmp("RMC",(const char *)&gpsSentence[3],3) == 0)
 80038bc:	f507 73da 	add.w	r3, r7, #436	; 0x1b4
 80038c0:	3303      	adds	r3, #3
 80038c2:	2203      	movs	r2, #3
 80038c4:	4619      	mov	r1, r3
 80038c6:	48b7      	ldr	r0, [pc, #732]	; (8003ba4 <processGPS+0x3c4>)
 80038c8:	f004 fe76 	bl	80085b8 <strncmp>
 80038cc:	4603      	mov	r3, r0
 80038ce:	2b00      	cmp	r3, #0
 80038d0:	d10f      	bne.n	80038f2 <processGPS+0x112>
			 {
				 memset(GPRMCSentence, '\0', GPS_UART_BUF_DATA_SIZE);
 80038d2:	2250      	movs	r2, #80	; 0x50
 80038d4:	2100      	movs	r1, #0
 80038d6:	48b4      	ldr	r0, [pc, #720]	; (8003ba8 <processGPS+0x3c8>)
 80038d8:	f004 fe66 	bl	80085a8 <memset>
				 memcpy(GPRMCSentence,gpsSentence,indx);
 80038dc:	f8d7 220c 	ldr.w	r2, [r7, #524]	; 0x20c
 80038e0:	f507 73da 	add.w	r3, r7, #436	; 0x1b4
 80038e4:	4619      	mov	r1, r3
 80038e6:	48b0      	ldr	r0, [pc, #704]	; (8003ba8 <processGPS+0x3c8>)
 80038e8:	f004 fe50 	bl	800858c <memcpy>
				 sendRMC = 1;
 80038ec:	4baf      	ldr	r3, [pc, #700]	; (8003bac <processGPS+0x3cc>)
 80038ee:	2201      	movs	r2, #1
 80038f0:	601a      	str	r2, [r3, #0]
			 }
		 }
		 indx = 0;
 80038f2:	2300      	movs	r3, #0
 80038f4:	f8c7 320c 	str.w	r3, [r7, #524]	; 0x20c
	  for(int i=0;i<uartRxLen;i++)
 80038f8:	f8d7 3208 	ldr.w	r3, [r7, #520]	; 0x208
 80038fc:	3301      	adds	r3, #1
 80038fe:	f8c7 3208 	str.w	r3, [r7, #520]	; 0x208
 8003902:	f8b7 3204 	ldrh.w	r3, [r7, #516]	; 0x204
 8003906:	461a      	mov	r2, r3
 8003908:	f8d7 3208 	ldr.w	r3, [r7, #520]	; 0x208
 800390c:	4293      	cmp	r3, r2
 800390e:	db8e      	blt.n	800382e <processGPS+0x4e>
 8003910:	e002      	b.n	8003918 <processGPS+0x138>
		}
	  }
	}
	else
	{
	  HAL_Delay(1);
 8003912:	2001      	movs	r0, #1
 8003914:	f001 fdb2 	bl	800547c <HAL_Delay>
	}

	if(sendGGA == 1 && sendRMC ==1)
 8003918:	4ba1      	ldr	r3, [pc, #644]	; (8003ba0 <processGPS+0x3c0>)
 800391a:	681b      	ldr	r3, [r3, #0]
 800391c:	2b01      	cmp	r3, #1
 800391e:	f040 8133 	bne.w	8003b88 <processGPS+0x3a8>
 8003922:	4ba2      	ldr	r3, [pc, #648]	; (8003bac <processGPS+0x3cc>)
 8003924:	681b      	ldr	r3, [r3, #0]
 8003926:	2b01      	cmp	r3, #1
 8003928:	f040 812e 	bne.w	8003b88 <processGPS+0x3a8>
	{
		rmcLen = strlen((const char *)GPRMCSentence);
 800392c:	489e      	ldr	r0, [pc, #632]	; (8003ba8 <processGPS+0x3c8>)
 800392e:	f7fc fc6f 	bl	8000210 <strlen>
 8003932:	4603      	mov	r3, r0
 8003934:	b29a      	uxth	r2, r3
 8003936:	4b9e      	ldr	r3, [pc, #632]	; (8003bb0 <processGPS+0x3d0>)
 8003938:	801a      	strh	r2, [r3, #0]
		ggaLen = strlen((const char *)GPGGASentence);
 800393a:	4898      	ldr	r0, [pc, #608]	; (8003b9c <processGPS+0x3bc>)
 800393c:	f7fc fc68 	bl	8000210 <strlen>
 8003940:	4603      	mov	r3, r0
 8003942:	b29a      	uxth	r2, r3
 8003944:	4b9b      	ldr	r3, [pc, #620]	; (8003bb4 <processGPS+0x3d4>)
 8003946:	801a      	strh	r2, [r3, #0]

		memset(&HABPacketGPSData, '\0', sizeof(HABPacketGPSData));
 8003948:	f107 0308 	add.w	r3, r7, #8
 800394c:	2240      	movs	r2, #64	; 0x40
 800394e:	2100      	movs	r1, #0
 8003950:	4618      	mov	r0, r3
 8003952:	f004 fe29 	bl	80085a8 <memset>
		if(ggaLen > GPS_BUF_DATA_SIZE+1)
 8003956:	4b97      	ldr	r3, [pc, #604]	; (8003bb4 <processGPS+0x3d4>)
 8003958:	881b      	ldrh	r3, [r3, #0]
 800395a:	2b3e      	cmp	r3, #62	; 0x3e
 800395c:	d908      	bls.n	8003970 <processGPS+0x190>
		{
			HABPacketGPSData.packetType = GPS_GGA_1;
 800395e:	f107 0308 	add.w	r3, r7, #8
 8003962:	22c2      	movs	r2, #194	; 0xc2
 8003964:	801a      	strh	r2, [r3, #0]
			HABPacketGPSData.gpsDataLen = GPS_BUF_DATA_SIZE;
 8003966:	f107 0308 	add.w	r3, r7, #8
 800396a:	223d      	movs	r2, #61	; 0x3d
 800396c:	709a      	strb	r2, [r3, #2]
 800396e:	e009      	b.n	8003984 <processGPS+0x1a4>
		}
		else
		{
			HABPacketGPSData.packetType = GPS_GGA;
 8003970:	f107 0308 	add.w	r3, r7, #8
 8003974:	22c1      	movs	r2, #193	; 0xc1
 8003976:	801a      	strh	r2, [r3, #0]
			HABPacketGPSData.gpsDataLen = ggaLen;
 8003978:	4b8e      	ldr	r3, [pc, #568]	; (8003bb4 <processGPS+0x3d4>)
 800397a:	881b      	ldrh	r3, [r3, #0]
 800397c:	b2da      	uxtb	r2, r3
 800397e:	f107 0308 	add.w	r3, r7, #8
 8003982:	709a      	strb	r2, [r3, #2]
		}
		memcpy(HABPacketGPSData.gpsData,GPGGASentence,HABPacketGPSData.gpsDataLen);
 8003984:	f107 0308 	add.w	r3, r7, #8
 8003988:	789b      	ldrb	r3, [r3, #2]
 800398a:	461a      	mov	r2, r3
 800398c:	f107 0308 	add.w	r3, r7, #8
 8003990:	3303      	adds	r3, #3
 8003992:	4982      	ldr	r1, [pc, #520]	; (8003b9c <processGPS+0x3bc>)
 8003994:	4618      	mov	r0, r3
 8003996:	f004 fdf9 	bl	800858c <memcpy>
		memcpy(txBuf,&HABPacketGPSData,sizeof(HABPacketGPSData));
 800399a:	f107 0248 	add.w	r2, r7, #72	; 0x48
 800399e:	f107 0308 	add.w	r3, r7, #8
 80039a2:	4614      	mov	r4, r2
 80039a4:	461d      	mov	r5, r3
 80039a6:	cd0f      	ldmia	r5!, {r0, r1, r2, r3}
 80039a8:	c40f      	stmia	r4!, {r0, r1, r2, r3}
 80039aa:	cd0f      	ldmia	r5!, {r0, r1, r2, r3}
 80039ac:	c40f      	stmia	r4!, {r0, r1, r2, r3}
 80039ae:	cd0f      	ldmia	r5!, {r0, r1, r2, r3}
 80039b0:	c40f      	stmia	r4!, {r0, r1, r2, r3}
 80039b2:	e895 000f 	ldmia.w	r5, {r0, r1, r2, r3}
 80039b6:	e884 000f 	stmia.w	r4, {r0, r1, r2, r3}
		HAL_Status =  radioTxData(txBuf,HABPacketGPSData.gpsDataLen+GPS_HDRF_DATA_SIZE);
 80039ba:	f107 0308 	add.w	r3, r7, #8
 80039be:	789b      	ldrb	r3, [r3, #2]
 80039c0:	3303      	adds	r3, #3
 80039c2:	b2da      	uxtb	r2, r3
 80039c4:	f107 0348 	add.w	r3, r7, #72	; 0x48
 80039c8:	4611      	mov	r1, r2
 80039ca:	4618      	mov	r0, r3
 80039cc:	f001 f81c 	bl	8004a08 <radioTxData>
 80039d0:	4603      	mov	r3, r0
 80039d2:	f887 3206 	strb.w	r3, [r7, #518]	; 0x206
		HAL_Delay(PROTOCOL_DELAY);
 80039d6:	2064      	movs	r0, #100	; 0x64
 80039d8:	f001 fd50 	bl	800547c <HAL_Delay>

		if(ggaLen >  GPS_BUF_DATA_SIZE+1)
 80039dc:	4b75      	ldr	r3, [pc, #468]	; (8003bb4 <processGPS+0x3d4>)
 80039de:	881b      	ldrh	r3, [r3, #0]
 80039e0:	2b3e      	cmp	r3, #62	; 0x3e
 80039e2:	d93e      	bls.n	8003a62 <processGPS+0x282>
		{
			memset(&HABPacketGPSData, '\0', sizeof(HABPacketGPSData));
 80039e4:	f107 0308 	add.w	r3, r7, #8
 80039e8:	2240      	movs	r2, #64	; 0x40
 80039ea:	2100      	movs	r1, #0
 80039ec:	4618      	mov	r0, r3
 80039ee:	f004 fddb 	bl	80085a8 <memset>
			HABPacketGPSData.packetType = GPS_GGA_2;
 80039f2:	f107 0308 	add.w	r3, r7, #8
 80039f6:	22c3      	movs	r2, #195	; 0xc3
 80039f8:	801a      	strh	r2, [r3, #0]
			HABPacketGPSData.gpsDataLen = ggaLen - GPS_BUF_DATA_SIZE;
 80039fa:	4b6e      	ldr	r3, [pc, #440]	; (8003bb4 <processGPS+0x3d4>)
 80039fc:	881b      	ldrh	r3, [r3, #0]
 80039fe:	b2db      	uxtb	r3, r3
 8003a00:	3b3d      	subs	r3, #61	; 0x3d
 8003a02:	b2da      	uxtb	r2, r3
 8003a04:	f107 0308 	add.w	r3, r7, #8
 8003a08:	709a      	strb	r2, [r3, #2]
			memcpy(HABPacketGPSData.gpsData,&GPGGASentence[GPS_BUF_DATA_SIZE],HABPacketGPSData.gpsDataLen);
 8003a0a:	f107 0308 	add.w	r3, r7, #8
 8003a0e:	789b      	ldrb	r3, [r3, #2]
 8003a10:	461a      	mov	r2, r3
 8003a12:	f107 0308 	add.w	r3, r7, #8
 8003a16:	3303      	adds	r3, #3
 8003a18:	4967      	ldr	r1, [pc, #412]	; (8003bb8 <processGPS+0x3d8>)
 8003a1a:	4618      	mov	r0, r3
 8003a1c:	f004 fdb6 	bl	800858c <memcpy>
			memcpy(txBuf,&HABPacketGPSData,sizeof(HABPacketGPSData));
 8003a20:	f107 0248 	add.w	r2, r7, #72	; 0x48
 8003a24:	f107 0308 	add.w	r3, r7, #8
 8003a28:	4614      	mov	r4, r2
 8003a2a:	461d      	mov	r5, r3
 8003a2c:	cd0f      	ldmia	r5!, {r0, r1, r2, r3}
 8003a2e:	c40f      	stmia	r4!, {r0, r1, r2, r3}
 8003a30:	cd0f      	ldmia	r5!, {r0, r1, r2, r3}
 8003a32:	c40f      	stmia	r4!, {r0, r1, r2, r3}
 8003a34:	cd0f      	ldmia	r5!, {r0, r1, r2, r3}
 8003a36:	c40f      	stmia	r4!, {r0, r1, r2, r3}
 8003a38:	e895 000f 	ldmia.w	r5, {r0, r1, r2, r3}
 8003a3c:	e884 000f 	stmia.w	r4, {r0, r1, r2, r3}
			HAL_Status =  radioTxData(txBuf,HABPacketGPSData.gpsDataLen+GPS_HDRF_DATA_SIZE);
 8003a40:	f107 0308 	add.w	r3, r7, #8
 8003a44:	789b      	ldrb	r3, [r3, #2]
 8003a46:	3303      	adds	r3, #3
 8003a48:	b2da      	uxtb	r2, r3
 8003a4a:	f107 0348 	add.w	r3, r7, #72	; 0x48
 8003a4e:	4611      	mov	r1, r2
 8003a50:	4618      	mov	r0, r3
 8003a52:	f000 ffd9 	bl	8004a08 <radioTxData>
 8003a56:	4603      	mov	r3, r0
 8003a58:	f887 3206 	strb.w	r3, [r7, #518]	; 0x206
			HAL_Delay(PROTOCOL_DELAY);
 8003a5c:	2064      	movs	r0, #100	; 0x64
 8003a5e:	f001 fd0d 	bl	800547c <HAL_Delay>
		}
		///////////////////////////////////////////

		memset(&HABPacketGPSData, '\0', sizeof(HABPacketGPSData));
 8003a62:	f107 0308 	add.w	r3, r7, #8
 8003a66:	2240      	movs	r2, #64	; 0x40
 8003a68:	2100      	movs	r1, #0
 8003a6a:	4618      	mov	r0, r3
 8003a6c:	f004 fd9c 	bl	80085a8 <memset>
		if(rmcLen >  GPS_BUF_DATA_SIZE+1)
 8003a70:	4b4f      	ldr	r3, [pc, #316]	; (8003bb0 <processGPS+0x3d0>)
 8003a72:	881b      	ldrh	r3, [r3, #0]
 8003a74:	2b3e      	cmp	r3, #62	; 0x3e
 8003a76:	d908      	bls.n	8003a8a <processGPS+0x2aa>
		{
			HABPacketGPSData.packetType = GPS_RMC_1;
 8003a78:	f107 0308 	add.w	r3, r7, #8
 8003a7c:	22b2      	movs	r2, #178	; 0xb2
 8003a7e:	801a      	strh	r2, [r3, #0]
			HABPacketGPSData.gpsDataLen = GPS_BUF_DATA_SIZE;
 8003a80:	f107 0308 	add.w	r3, r7, #8
 8003a84:	223d      	movs	r2, #61	; 0x3d
 8003a86:	709a      	strb	r2, [r3, #2]
 8003a88:	e009      	b.n	8003a9e <processGPS+0x2be>
		}
		else
		{
			HABPacketGPSData.packetType = GPS_RMC;
 8003a8a:	f107 0308 	add.w	r3, r7, #8
 8003a8e:	22b1      	movs	r2, #177	; 0xb1
 8003a90:	801a      	strh	r2, [r3, #0]
			HABPacketGPSData.gpsDataLen = rmcLen;
 8003a92:	4b47      	ldr	r3, [pc, #284]	; (8003bb0 <processGPS+0x3d0>)
 8003a94:	881b      	ldrh	r3, [r3, #0]
 8003a96:	b2da      	uxtb	r2, r3
 8003a98:	f107 0308 	add.w	r3, r7, #8
 8003a9c:	709a      	strb	r2, [r3, #2]
		}

		memcpy(HABPacketGPSData.gpsData,GPRMCSentence,HABPacketGPSData.gpsDataLen);
 8003a9e:	f107 0308 	add.w	r3, r7, #8
 8003aa2:	789b      	ldrb	r3, [r3, #2]
 8003aa4:	461a      	mov	r2, r3
 8003aa6:	f107 0308 	add.w	r3, r7, #8
 8003aaa:	3303      	adds	r3, #3
 8003aac:	493e      	ldr	r1, [pc, #248]	; (8003ba8 <processGPS+0x3c8>)
 8003aae:	4618      	mov	r0, r3
 8003ab0:	f004 fd6c 	bl	800858c <memcpy>
		memcpy(txBuf,&HABPacketGPSData,sizeof(HABPacketGPSData));
 8003ab4:	f107 0248 	add.w	r2, r7, #72	; 0x48
 8003ab8:	f107 0308 	add.w	r3, r7, #8
 8003abc:	4614      	mov	r4, r2
 8003abe:	461d      	mov	r5, r3
 8003ac0:	cd0f      	ldmia	r5!, {r0, r1, r2, r3}
 8003ac2:	c40f      	stmia	r4!, {r0, r1, r2, r3}
 8003ac4:	cd0f      	ldmia	r5!, {r0, r1, r2, r3}
 8003ac6:	c40f      	stmia	r4!, {r0, r1, r2, r3}
 8003ac8:	cd0f      	ldmia	r5!, {r0, r1, r2, r3}
 8003aca:	c40f      	stmia	r4!, {r0, r1, r2, r3}
 8003acc:	e895 000f 	ldmia.w	r5, {r0, r1, r2, r3}
 8003ad0:	e884 000f 	stmia.w	r4, {r0, r1, r2, r3}
		HAL_Status =  radioTxData(txBuf,HABPacketGPSData.gpsDataLen+GPS_HDRF_DATA_SIZE);
 8003ad4:	f107 0308 	add.w	r3, r7, #8
 8003ad8:	789b      	ldrb	r3, [r3, #2]
 8003ada:	3303      	adds	r3, #3
 8003adc:	b2da      	uxtb	r2, r3
 8003ade:	f107 0348 	add.w	r3, r7, #72	; 0x48
 8003ae2:	4611      	mov	r1, r2
 8003ae4:	4618      	mov	r0, r3
 8003ae6:	f000 ff8f 	bl	8004a08 <radioTxData>
 8003aea:	4603      	mov	r3, r0
 8003aec:	f887 3206 	strb.w	r3, [r7, #518]	; 0x206
		HAL_Delay(PROTOCOL_DELAY);
 8003af0:	2064      	movs	r0, #100	; 0x64
 8003af2:	f001 fcc3 	bl	800547c <HAL_Delay>
		if(ggaLen >  GPS_BUF_DATA_SIZE+1)
 8003af6:	4b2f      	ldr	r3, [pc, #188]	; (8003bb4 <processGPS+0x3d4>)
 8003af8:	881b      	ldrh	r3, [r3, #0]
 8003afa:	2b3e      	cmp	r3, #62	; 0x3e
 8003afc:	d93e      	bls.n	8003b7c <processGPS+0x39c>
		{
			memset(&HABPacketGPSData, '\0', sizeof(HABPacketGPSData));
 8003afe:	f107 0308 	add.w	r3, r7, #8
 8003b02:	2240      	movs	r2, #64	; 0x40
 8003b04:	2100      	movs	r1, #0
 8003b06:	4618      	mov	r0, r3
 8003b08:	f004 fd4e 	bl	80085a8 <memset>
			HABPacketGPSData.packetType = GPS_RMC_2;
 8003b0c:	f107 0308 	add.w	r3, r7, #8
 8003b10:	22b3      	movs	r2, #179	; 0xb3
 8003b12:	801a      	strh	r2, [r3, #0]
			HABPacketGPSData.gpsDataLen = rmcLen - GPS_BUF_DATA_SIZE;
 8003b14:	4b26      	ldr	r3, [pc, #152]	; (8003bb0 <processGPS+0x3d0>)
 8003b16:	881b      	ldrh	r3, [r3, #0]
 8003b18:	b2db      	uxtb	r3, r3
 8003b1a:	3b3d      	subs	r3, #61	; 0x3d
 8003b1c:	b2da      	uxtb	r2, r3
 8003b1e:	f107 0308 	add.w	r3, r7, #8
 8003b22:	709a      	strb	r2, [r3, #2]
			memcpy(HABPacketGPSData.gpsData,&GPRMCSentence[GPS_BUF_DATA_SIZE],HABPacketGPSData.gpsDataLen);
 8003b24:	f107 0308 	add.w	r3, r7, #8
 8003b28:	789b      	ldrb	r3, [r3, #2]
 8003b2a:	461a      	mov	r2, r3
 8003b2c:	f107 0308 	add.w	r3, r7, #8
 8003b30:	3303      	adds	r3, #3
 8003b32:	4922      	ldr	r1, [pc, #136]	; (8003bbc <processGPS+0x3dc>)
 8003b34:	4618      	mov	r0, r3
 8003b36:	f004 fd29 	bl	800858c <memcpy>
			memcpy(txBuf,&HABPacketGPSData,sizeof(HABPacketGPSData));
 8003b3a:	f107 0248 	add.w	r2, r7, #72	; 0x48
 8003b3e:	f107 0308 	add.w	r3, r7, #8
 8003b42:	4614      	mov	r4, r2
 8003b44:	461d      	mov	r5, r3
 8003b46:	cd0f      	ldmia	r5!, {r0, r1, r2, r3}
 8003b48:	c40f      	stmia	r4!, {r0, r1, r2, r3}
 8003b4a:	cd0f      	ldmia	r5!, {r0, r1, r2, r3}
 8003b4c:	c40f      	stmia	r4!, {r0, r1, r2, r3}
 8003b4e:	cd0f      	ldmia	r5!, {r0, r1, r2, r3}
 8003b50:	c40f      	stmia	r4!, {r0, r1, r2, r3}
 8003b52:	e895 000f 	ldmia.w	r5, {r0, r1, r2, r3}
 8003b56:	e884 000f 	stmia.w	r4, {r0, r1, r2, r3}
			HAL_Status =  radioTxData(txBuf,HABPacketGPSData.gpsDataLen+GPS_HDRF_DATA_SIZE);
 8003b5a:	f107 0308 	add.w	r3, r7, #8
 8003b5e:	789b      	ldrb	r3, [r3, #2]
 8003b60:	3303      	adds	r3, #3
 8003b62:	b2da      	uxtb	r2, r3
 8003b64:	f107 0348 	add.w	r3, r7, #72	; 0x48
 8003b68:	4611      	mov	r1, r2
 8003b6a:	4618      	mov	r0, r3
 8003b6c:	f000 ff4c 	bl	8004a08 <radioTxData>
 8003b70:	4603      	mov	r3, r0
 8003b72:	f887 3206 	strb.w	r3, [r7, #518]	; 0x206
			HAL_Delay(PROTOCOL_DELAY);
 8003b76:	2064      	movs	r0, #100	; 0x64
 8003b78:	f001 fc80 	bl	800547c <HAL_Delay>
		}

		sendGGA 		= 0;
 8003b7c:	4b08      	ldr	r3, [pc, #32]	; (8003ba0 <processGPS+0x3c0>)
 8003b7e:	2200      	movs	r2, #0
 8003b80:	601a      	str	r2, [r3, #0]
		sendRMC 		= 0;
 8003b82:	4b0a      	ldr	r3, [pc, #40]	; (8003bac <processGPS+0x3cc>)
 8003b84:	2200      	movs	r2, #0
 8003b86:	601a      	str	r2, [r3, #0]
	}

	return gpsStatus;
 8003b88:	f897 3207 	ldrb.w	r3, [r7, #519]	; 0x207
}
 8003b8c:	4618      	mov	r0, r3
 8003b8e:	f507 7704 	add.w	r7, r7, #528	; 0x210
 8003b92:	46bd      	mov	sp, r7
 8003b94:	bdb0      	pop	{r4, r5, r7, pc}
 8003b96:	bf00      	nop
 8003b98:	080086dc 	.word	0x080086dc
 8003b9c:	200002a4 	.word	0x200002a4
 8003ba0:	200002f4 	.word	0x200002f4
 8003ba4:	080086e0 	.word	0x080086e0
 8003ba8:	200002f8 	.word	0x200002f8
 8003bac:	20000348 	.word	0x20000348
 8003bb0:	2000034c 	.word	0x2000034c
 8003bb4:	2000034e 	.word	0x2000034e
 8003bb8:	200002e1 	.word	0x200002e1
 8003bbc:	20000335 	.word	0x20000335

08003bc0 <processHumidity>:
#include "radio.h"
#include "packetDefs.h"
#include "stm32f1xx_hal.h"

int processHumidity(struct rscode_driver *rsDriver, float humidityParm)
{
 8003bc0:	b590      	push	{r4, r7, lr}
 8003bc2:	b099      	sub	sp, #100	; 0x64
 8003bc4:	af00      	add	r7, sp, #0
 8003bc6:	6078      	str	r0, [r7, #4]
 8003bc8:	6039      	str	r1, [r7, #0]
	HAL_StatusTypeDef HAL_Status;
	int status   = 1;
 8003bca:	2301      	movs	r3, #1
 8003bcc:	65fb      	str	r3, [r7, #92]	; 0x5c
	uint16_t len = 0;
 8003bce:	2300      	movs	r3, #0
 8003bd0:	f8a7 305a 	strh.w	r3, [r7, #90]	; 0x5a
	uint8_t txBuf[MTU_SIZE];

	struct HABPacketHumidityInfoDataType HABPacketHumidityInfoData;

	memset(&HABPacketHumidityInfoData, '\0', sizeof(HABPacketHumidityInfoData));
 8003bd4:	f107 0308 	add.w	r3, r7, #8
 8003bd8:	2210      	movs	r2, #16
 8003bda:	2100      	movs	r1, #0
 8003bdc:	4618      	mov	r0, r3
 8003bde:	f004 fce3 	bl	80085a8 <memset>

	HABPacketHumidityInfoData.packetType  	   = HUM_INFO;
 8003be2:	2366      	movs	r3, #102	; 0x66
 8003be4:	813b      	strh	r3, [r7, #8]
	HABPacketHumidityInfoData.humidityInfoData = humidityParm;
 8003be6:	683b      	ldr	r3, [r7, #0]
 8003be8:	f8c7 300a 	str.w	r3, [r7, #10]

	len = sizeof(HABPacketHumidityInfoData)-sizeof(HABPacketHumidityInfoData.crc16)-NPAR;
 8003bec:	2306      	movs	r3, #6
 8003bee:	f8a7 305a 	strh.w	r3, [r7, #90]	; 0x5a
	HABPacketHumidityInfoData.crc16 = crc_16((unsigned char *)&HABPacketHumidityInfoData,len);
 8003bf2:	f8b7 205a 	ldrh.w	r2, [r7, #90]	; 0x5a
 8003bf6:	f107 0308 	add.w	r3, r7, #8
 8003bfa:	4611      	mov	r1, r2
 8003bfc:	4618      	mov	r0, r3
 8003bfe:	f7ff fa1f 	bl	8003040 <crc_16>
 8003c02:	4603      	mov	r3, r0
 8003c04:	81fb      	strh	r3, [r7, #14]
	rscode_encode(rsDriver, (unsigned char *)&HABPacketHumidityInfoData, sizeof(HABPacketHumidityInfoData)-NPAR, (unsigned char *)&HABPacketHumidityInfoData);
 8003c06:	f107 0308 	add.w	r3, r7, #8
 8003c0a:	f107 0108 	add.w	r1, r7, #8
 8003c0e:	2208      	movs	r2, #8
 8003c10:	6878      	ldr	r0, [r7, #4]
 8003c12:	f7ff fcc5 	bl	80035a0 <rscode_encode>
	memcpy(txBuf,&HABPacketHumidityInfoData,sizeof(HABPacketHumidityInfoData));
 8003c16:	f107 0418 	add.w	r4, r7, #24
 8003c1a:	f107 0308 	add.w	r3, r7, #8
 8003c1e:	cb0f      	ldmia	r3, {r0, r1, r2, r3}
 8003c20:	e884 000f 	stmia.w	r4, {r0, r1, r2, r3}
	HAL_Status =  radioTxData(txBuf,sizeof(HABPacketHumidityInfoData));
 8003c24:	f107 0318 	add.w	r3, r7, #24
 8003c28:	2110      	movs	r1, #16
 8003c2a:	4618      	mov	r0, r3
 8003c2c:	f000 feec 	bl	8004a08 <radioTxData>
 8003c30:	4603      	mov	r3, r0
 8003c32:	f887 3059 	strb.w	r3, [r7, #89]	; 0x59
	HAL_Delay(PROTOCOL_DELAY);
 8003c36:	2064      	movs	r0, #100	; 0x64
 8003c38:	f001 fc20 	bl	800547c <HAL_Delay>
	if(HAL_Status != HAL_OK)
	{

	}

	return status;
 8003c3c:	6dfb      	ldr	r3, [r7, #92]	; 0x5c
}
 8003c3e:	4618      	mov	r0, r3
 8003c40:	3764      	adds	r7, #100	; 0x64
 8003c42:	46bd      	mov	sp, r7
 8003c44:	bd90      	pop	{r4, r7, pc}
	...

08003c48 <processInfo>:
#include "packetDefs.h"
#include "info.h"
#include "stm32f1xx_hal.h"

int processInfo(struct rscode_driver *rsDriver)
{
 8003c48:	b5b0      	push	{r4, r5, r7, lr}
 8003c4a:	b0a0      	sub	sp, #128	; 0x80
 8003c4c:	af00      	add	r7, sp, #0
 8003c4e:	6078      	str	r0, [r7, #4]
	HAL_StatusTypeDef HAL_Status;
	int status   = 1;
 8003c50:	2301      	movs	r3, #1
 8003c52:	67fb      	str	r3, [r7, #124]	; 0x7c
	uint16_t len = 0;
 8003c54:	2300      	movs	r3, #0
 8003c56:	f8a7 307a 	strh.w	r3, [r7, #122]	; 0x7a
	uint8_t txBuf[MTU_SIZE];
	struct HABPacketInfoDataType HABPacketInfoData;

	memset(&HABPacketInfoData, '\0', sizeof(HABPacketInfoData));
 8003c5a:	f107 0308 	add.w	r3, r7, #8
 8003c5e:	222d      	movs	r2, #45	; 0x2d
 8003c60:	2100      	movs	r1, #0
 8003c62:	4618      	mov	r0, r3
 8003c64:	f004 fca0 	bl	80085a8 <memset>
	HABPacketInfoData.packetType  = INFO_DATA;
 8003c68:	2355      	movs	r3, #85	; 0x55
 8003c6a:	813b      	strh	r3, [r7, #8]
	HABPacketInfoData.infoDataLen = strlen(VERSION_INFO);
 8003c6c:	2313      	movs	r3, #19
 8003c6e:	72bb      	strb	r3, [r7, #10]
	memcpy(HABPacketInfoData.infoData,VERSION_INFO,HABPacketInfoData.infoDataLen);
 8003c70:	7abb      	ldrb	r3, [r7, #10]
 8003c72:	461a      	mov	r2, r3
 8003c74:	f107 0308 	add.w	r3, r7, #8
 8003c78:	3303      	adds	r3, #3
 8003c7a:	491e      	ldr	r1, [pc, #120]	; (8003cf4 <processInfo+0xac>)
 8003c7c:	4618      	mov	r0, r3
 8003c7e:	f004 fc85 	bl	800858c <memcpy>
	len = sizeof(HABPacketInfoData)-sizeof(HABPacketInfoData.crc16)-NPAR;
 8003c82:	2323      	movs	r3, #35	; 0x23
 8003c84:	f8a7 307a 	strh.w	r3, [r7, #122]	; 0x7a
	HABPacketInfoData.crc16 = crc_16((unsigned char *)&HABPacketInfoData,len);
 8003c88:	f8b7 207a 	ldrh.w	r2, [r7, #122]	; 0x7a
 8003c8c:	f107 0308 	add.w	r3, r7, #8
 8003c90:	4611      	mov	r1, r2
 8003c92:	4618      	mov	r0, r3
 8003c94:	f7ff f9d4 	bl	8003040 <crc_16>
 8003c98:	4603      	mov	r3, r0
 8003c9a:	f8a7 302b 	strh.w	r3, [r7, #43]	; 0x2b
	rscode_encode(rsDriver, (unsigned char *)&HABPacketInfoData, sizeof(HABPacketInfoData)-NPAR, (unsigned char *)&HABPacketInfoData);
 8003c9e:	f107 0308 	add.w	r3, r7, #8
 8003ca2:	f107 0108 	add.w	r1, r7, #8
 8003ca6:	2225      	movs	r2, #37	; 0x25
 8003ca8:	6878      	ldr	r0, [r7, #4]
 8003caa:	f7ff fc79 	bl	80035a0 <rscode_encode>
	memcpy(txBuf,&HABPacketInfoData,sizeof(HABPacketInfoData));
 8003cae:	f107 0438 	add.w	r4, r7, #56	; 0x38
 8003cb2:	f107 0508 	add.w	r5, r7, #8
 8003cb6:	cd0f      	ldmia	r5!, {r0, r1, r2, r3}
 8003cb8:	c40f      	stmia	r4!, {r0, r1, r2, r3}
 8003cba:	cd0f      	ldmia	r5!, {r0, r1, r2, r3}
 8003cbc:	c40f      	stmia	r4!, {r0, r1, r2, r3}
 8003cbe:	e895 000f 	ldmia.w	r5, {r0, r1, r2, r3}
 8003cc2:	c407      	stmia	r4!, {r0, r1, r2}
 8003cc4:	7023      	strb	r3, [r4, #0]
	HAL_Status =  radioTxData(txBuf,sizeof(HABPacketInfoData));
 8003cc6:	f107 0338 	add.w	r3, r7, #56	; 0x38
 8003cca:	212d      	movs	r1, #45	; 0x2d
 8003ccc:	4618      	mov	r0, r3
 8003cce:	f000 fe9b 	bl	8004a08 <radioTxData>
 8003cd2:	4603      	mov	r3, r0
 8003cd4:	f887 3079 	strb.w	r3, [r7, #121]	; 0x79
	HAL_Delay(PROTOCOL_DELAY);
 8003cd8:	2064      	movs	r0, #100	; 0x64
 8003cda:	f001 fbcf 	bl	800547c <HAL_Delay>
	if(HAL_Status != HAL_OK)
 8003cde:	f897 3079 	ldrb.w	r3, [r7, #121]	; 0x79
 8003ce2:	2b00      	cmp	r3, #0
 8003ce4:	d001      	beq.n	8003cea <processInfo+0xa2>
	{
	  status = 0;
 8003ce6:	2300      	movs	r3, #0
 8003ce8:	67fb      	str	r3, [r7, #124]	; 0x7c
	}

	return status;
 8003cea:	6ffb      	ldr	r3, [r7, #124]	; 0x7c
}
 8003cec:	4618      	mov	r0, r3
 8003cee:	3780      	adds	r7, #128	; 0x80
 8003cf0:	46bd      	mov	sp, r7
 8003cf2:	bdb0      	pop	{r4, r5, r7, pc}
 8003cf4:	080086e4 	.word	0x080086e4

08003cf8 <processInternalTemp>:
#include "packetDefs.h"
#include "internalTemp.h"
#include "stm32f1xx_hal.h"

int processInternalTemp(struct rscode_driver *rsDriver)
{
 8003cf8:	b590      	push	{r4, r7, lr}
 8003cfa:	b099      	sub	sp, #100	; 0x64
 8003cfc:	af00      	add	r7, sp, #0
 8003cfe:	6078      	str	r0, [r7, #4]
	HAL_StatusTypeDef HAL_Status;
	int status   = 1;
 8003d00:	2301      	movs	r3, #1
 8003d02:	65fb      	str	r3, [r7, #92]	; 0x5c
	uint16_t len = 0;
 8003d04:	2300      	movs	r3, #0
 8003d06:	f8a7 305a 	strh.w	r3, [r7, #90]	; 0x5a
	uint8_t txBuf[MTU_SIZE];
	uint8_t adcInternalTemperatureVal;

	struct HABPacketIntTempInfoDataType HABPacketIntTempInfoData;

	memset(&HABPacketIntTempInfoData, '\0', sizeof(HABPacketIntTempInfoData));
 8003d0a:	f107 0308 	add.w	r3, r7, #8
 8003d0e:	220d      	movs	r2, #13
 8003d10:	2100      	movs	r1, #0
 8003d12:	4618      	mov	r0, r3
 8003d14:	f004 fc48 	bl	80085a8 <memset>

	// Set for Deg F
	HAL_Status = radio_write_register(0x12, ADC_TEMP_CAL_REG12);
 8003d18:	21e0      	movs	r1, #224	; 0xe0
 8003d1a:	2012      	movs	r0, #18
 8003d1c:	f000 fd00 	bl	8004720 <radio_write_register>
 8003d20:	4603      	mov	r3, r0
 8003d22:	f887 3059 	strb.w	r3, [r7, #89]	; 0x59
	HAL_Status = radio_write_register(0x13, ADC_TEMP_CAL_REG13);
 8003d26:	2109      	movs	r1, #9
 8003d28:	2013      	movs	r0, #19
 8003d2a:	f000 fcf9 	bl	8004720 <radio_write_register>
 8003d2e:	4603      	mov	r3, r0
 8003d30:	f887 3059 	strb.w	r3, [r7, #89]	; 0x59

	// Trigger ADC to capture.
	HAL_Status = radio_write_register(0x0f, 0x80);
 8003d34:	2180      	movs	r1, #128	; 0x80
 8003d36:	200f      	movs	r0, #15
 8003d38:	f000 fcf2 	bl	8004720 <radio_write_register>
 8003d3c:	4603      	mov	r3, r0
 8003d3e:	f887 3059 	strb.w	r3, [r7, #89]	; 0x59
	HAL_Delay(100);
 8003d42:	2064      	movs	r0, #100	; 0x64
 8003d44:	f001 fb9a 	bl	800547c <HAL_Delay>

	HAL_Status = radio_read_register(0x11, &adcInternalTemperatureVal);
 8003d48:	f107 0317 	add.w	r3, r7, #23
 8003d4c:	4619      	mov	r1, r3
 8003d4e:	2011      	movs	r0, #17
 8003d50:	f000 fca6 	bl	80046a0 <radio_read_register>
 8003d54:	4603      	mov	r3, r0
 8003d56:	f887 3059 	strb.w	r3, [r7, #89]	; 0x59
	if(HAL_Status == HAL_OK)
 8003d5a:	f897 3059 	ldrb.w	r3, [r7, #89]	; 0x59
 8003d5e:	2b00      	cmp	r3, #0
 8003d60:	d12f      	bne.n	8003dc2 <processInternalTemp+0xca>
	{
	  // Convert ADC value to signed temperature value. Deg F
	  HABPacketIntTempInfoData.intTempInfoData = (int8_t)-60 + (int16_t)adcInternalTemperatureVal;
 8003d62:	7dfb      	ldrb	r3, [r7, #23]
 8003d64:	3b3c      	subs	r3, #60	; 0x3c
 8003d66:	b2db      	uxtb	r3, r3
 8003d68:	b25b      	sxtb	r3, r3
 8003d6a:	72bb      	strb	r3, [r7, #10]
	  HABPacketIntTempInfoData.packetType  = INT_TEMP;
 8003d6c:	23aa      	movs	r3, #170	; 0xaa
 8003d6e:	813b      	strh	r3, [r7, #8]
	  len = sizeof(HABPacketIntTempInfoData)-sizeof(HABPacketIntTempInfoData.crc16)-NPAR;
 8003d70:	2303      	movs	r3, #3
 8003d72:	f8a7 305a 	strh.w	r3, [r7, #90]	; 0x5a
	  HABPacketIntTempInfoData.crc16 = crc_16((unsigned char *)&HABPacketIntTempInfoData,len);
 8003d76:	f8b7 205a 	ldrh.w	r2, [r7, #90]	; 0x5a
 8003d7a:	f107 0308 	add.w	r3, r7, #8
 8003d7e:	4611      	mov	r1, r2
 8003d80:	4618      	mov	r0, r3
 8003d82:	f7ff f95d 	bl	8003040 <crc_16>
 8003d86:	4603      	mov	r3, r0
 8003d88:	f8a7 300b 	strh.w	r3, [r7, #11]
	  rscode_encode(rsDriver, (unsigned char *)&HABPacketIntTempInfoData, sizeof(HABPacketIntTempInfoData)-NPAR, (unsigned char *)&HABPacketIntTempInfoData);
 8003d8c:	f107 0308 	add.w	r3, r7, #8
 8003d90:	f107 0108 	add.w	r1, r7, #8
 8003d94:	2205      	movs	r2, #5
 8003d96:	6878      	ldr	r0, [r7, #4]
 8003d98:	f7ff fc02 	bl	80035a0 <rscode_encode>
	  memcpy(txBuf,&HABPacketIntTempInfoData,sizeof(HABPacketIntTempInfoData));
 8003d9c:	f107 0418 	add.w	r4, r7, #24
 8003da0:	f107 0308 	add.w	r3, r7, #8
 8003da4:	cb0f      	ldmia	r3, {r0, r1, r2, r3}
 8003da6:	c407      	stmia	r4!, {r0, r1, r2}
 8003da8:	7023      	strb	r3, [r4, #0]
	  HAL_Status =  radioTxData(txBuf,sizeof(HABPacketIntTempInfoData));
 8003daa:	f107 0318 	add.w	r3, r7, #24
 8003dae:	210d      	movs	r1, #13
 8003db0:	4618      	mov	r0, r3
 8003db2:	f000 fe29 	bl	8004a08 <radioTxData>
 8003db6:	4603      	mov	r3, r0
 8003db8:	f887 3059 	strb.w	r3, [r7, #89]	; 0x59
	  HAL_Delay(PROTOCOL_DELAY);
 8003dbc:	2064      	movs	r0, #100	; 0x64
 8003dbe:	f001 fb5d 	bl	800547c <HAL_Delay>

	}

	return status;
 8003dc2:	6dfb      	ldr	r3, [r7, #92]	; 0x5c
}
 8003dc4:	4618      	mov	r0, r3
 8003dc6:	3764      	adds	r7, #100	; 0x64
 8003dc8:	46bd      	mov	sp, r7
 8003dca:	bd90      	pop	{r4, r7, pc}

08003dcc <main>:
/**
  * @brief  The application entry point.
  * @retval int
  */
int main(void)
{
 8003dcc:	b580      	push	{r7, lr}
 8003dce:	f5ad 6d19 	sub.w	sp, sp, #2448	; 0x990
 8003dd2:	af00      	add	r7, sp, #0
  /* USER CODE BEGIN 1 */
  HAL_StatusTypeDef HAL_Status;
  BME_StatusTypeDef BME_Status;

  GPS_StatusTypeDef gpsStatus  = GPS_OK;
 8003dd4:	2300      	movs	r3, #0
 8003dd6:	f887 398e 	strb.w	r3, [r7, #2446]	; 0x98e
  /* USER CODE END 1 */

  /* MCU Configuration--------------------------------------------------------*/

  /* Reset of all peripherals, Initializes the Flash interface and the Systick. */
  HAL_Init();
 8003dda:	f001 fb26 	bl	800542a <HAL_Init>
  /* USER CODE BEGIN Init */

  /* USER CODE END Init */

  /* Configure the system clock */
  SystemClock_Config();
 8003dde:	f000 f8f9 	bl	8003fd4 <SystemClock_Config>
  /* USER CODE BEGIN SysInit */

  /* USER CODE END SysInit */

  /* Initialize all configured peripherals */
  MX_GPIO_Init();
 8003de2:	f000 fa65 	bl	80042b0 <MX_GPIO_Init>
  MX_SPI2_Init();
 8003de6:	f000 f983 	bl	80040f0 <MX_SPI2_Init>
  MX_USART1_UART_Init();
 8003dea:	f000 fa0d 	bl	8004208 <MX_USART1_UART_Init>
  MX_TIM2_Init();
 8003dee:	f000 f9b5 	bl	800415c <MX_TIM2_Init>
  MX_ADC1_Init();
 8003df2:	f000 f93f 	bl	8004074 <MX_ADC1_Init>
  MX_USART3_UART_Init();
 8003df6:	f000 fa31 	bl	800425c <MX_USART3_UART_Init>
  /* USER CODE BEGIN 2 */

  struct rscode_driver rsDriver;

  HAL_GPIO_WritePin(GPIOB, GREEN_LED_Pin, GPIO_PIN_SET);
 8003dfa:	2201      	movs	r2, #1
 8003dfc:	2180      	movs	r1, #128	; 0x80
 8003dfe:	4867      	ldr	r0, [pc, #412]	; (8003f9c <main+0x1d0>)
 8003e00:	f002 f9e2 	bl	80061c8 <HAL_GPIO_WritePin>
  HAL_GPIO_WritePin(GPIOB, GREEN_LED_Pin, GPIO_PIN_RESET);
 8003e04:	2200      	movs	r2, #0
 8003e06:	2180      	movs	r1, #128	; 0x80
 8003e08:	4864      	ldr	r0, [pc, #400]	; (8003f9c <main+0x1d0>)
 8003e0a:	f002 f9dd 	bl	80061c8 <HAL_GPIO_WritePin>
  HAL_Delay(4000); // For Cam POR
 8003e0e:	f44f 607a 	mov.w	r0, #4000	; 0xfa0
 8003e12:	f001 fb33 	bl	800547c <HAL_Delay>
  HAL_GPIO_WritePin(GPIOB, RED_LED_Pin, GPIO_PIN_SET);
 8003e16:	2201      	movs	r2, #1
 8003e18:	f44f 7180 	mov.w	r1, #256	; 0x100
 8003e1c:	485f      	ldr	r0, [pc, #380]	; (8003f9c <main+0x1d0>)
 8003e1e:	f002 f9d3 	bl	80061c8 <HAL_GPIO_WritePin>

  gpsStatus = setGPS_DynamicModel6(&huart1); // - 6  Airborne with <1g Acceleration HAB
 8003e22:	485f      	ldr	r0, [pc, #380]	; (8003fa0 <main+0x1d4>)
 8003e24:	f001 f9ab 	bl	800517e <setGPS_DynamicModel6>
 8003e28:	4603      	mov	r3, r0
 8003e2a:	f887 398e 	strb.w	r3, [r7, #2446]	; 0x98e
  while(gpsStatus == GPS_FAIL)
 8003e2e:	e009      	b.n	8003e44 <main+0x78>
  {
	  gpsStatus = setGPS_DynamicModel6(&huart1);
 8003e30:	485b      	ldr	r0, [pc, #364]	; (8003fa0 <main+0x1d4>)
 8003e32:	f001 f9a4 	bl	800517e <setGPS_DynamicModel6>
 8003e36:	4603      	mov	r3, r0
 8003e38:	f887 398e 	strb.w	r3, [r7, #2446]	; 0x98e
	  HAL_GPIO_TogglePin(GPIOB, GREEN_LED_Pin);
 8003e3c:	2180      	movs	r1, #128	; 0x80
 8003e3e:	4857      	ldr	r0, [pc, #348]	; (8003f9c <main+0x1d0>)
 8003e40:	f002 f9da 	bl	80061f8 <HAL_GPIO_TogglePin>
  while(gpsStatus == GPS_FAIL)
 8003e44:	f897 398e 	ldrb.w	r3, [r7, #2446]	; 0x98e
 8003e48:	2b01      	cmp	r3, #1
 8003e4a:	d0f1      	beq.n	8003e30 <main+0x64>
  }

  gpsStatus = disableNMEA(&huart1);
 8003e4c:	4854      	ldr	r0, [pc, #336]	; (8003fa0 <main+0x1d4>)
 8003e4e:	f001 fa75 	bl	800533c <disableNMEA>
 8003e52:	4603      	mov	r3, r0
 8003e54:	f887 398e 	strb.w	r3, [r7, #2446]	; 0x98e
  if(gpsStatus != GPS_FAIL)
 8003e58:	f897 398e 	ldrb.w	r3, [r7, #2446]	; 0x98e
 8003e5c:	2b01      	cmp	r3, #1
 8003e5e:	d002      	beq.n	8003e66 <main+0x9a>
  {
	  // Nothing we can do
	  gpsStatus  = GPS_FAIL;
 8003e60:	2301      	movs	r3, #1
 8003e62:	f887 398e 	strb.w	r3, [r7, #2446]	; 0x98e
  }

  rscode_init(&rsDriver);
 8003e66:	1d3b      	adds	r3, r7, #4
 8003e68:	4618      	mov	r0, r3
 8003e6a:	f7ff fb88 	bl	800357e <rscode_init>
    /* USER CODE END WHILE */

    /* USER CODE BEGIN 3 */
	    /* USER CODE END WHILE */

	if(resetSI4032)
 8003e6e:	4b4d      	ldr	r3, [pc, #308]	; (8003fa4 <main+0x1d8>)
 8003e70:	681b      	ldr	r3, [r3, #0]
 8003e72:	2b00      	cmp	r3, #0
 8003e74:	d025      	beq.n	8003ec2 <main+0xf6>
	{
		HAL_GPIO_WritePin(PRESSURE_NSS_GPIO_Port, PRESSURE_NSS_Pin, GPIO_PIN_SET);
 8003e76:	2201      	movs	r2, #1
 8003e78:	2104      	movs	r1, #4
 8003e7a:	4848      	ldr	r0, [pc, #288]	; (8003f9c <main+0x1d0>)
 8003e7c:	f002 f9a4 	bl	80061c8 <HAL_GPIO_WritePin>
		HAL_Status = HAL_ERROR;
 8003e80:	2301      	movs	r3, #1
 8003e82:	f887 398f 	strb.w	r3, [r7, #2447]	; 0x98f
		while(HAL_Status != HAL_OK)
 8003e86:	e005      	b.n	8003e94 <main+0xc8>
		{
			HAL_Status = setupRadio(&hspi2);
 8003e88:	4847      	ldr	r0, [pc, #284]	; (8003fa8 <main+0x1dc>)
 8003e8a:	f000 fb65 	bl	8004558 <setupRadio>
 8003e8e:	4603      	mov	r3, r0
 8003e90:	f887 398f 	strb.w	r3, [r7, #2447]	; 0x98f
		while(HAL_Status != HAL_OK)
 8003e94:	f897 398f 	ldrb.w	r3, [r7, #2447]	; 0x98f
 8003e98:	2b00      	cmp	r3, #0
 8003e9a:	d1f5      	bne.n	8003e88 <main+0xbc>
		}

		BME280Present = 0;
 8003e9c:	4b43      	ldr	r3, [pc, #268]	; (8003fac <main+0x1e0>)
 8003e9e:	2200      	movs	r2, #0
 8003ea0:	601a      	str	r2, [r3, #0]
		BME_Status = bme280_init(&hspi2);
 8003ea2:	4841      	ldr	r0, [pc, #260]	; (8003fa8 <main+0x1dc>)
 8003ea4:	f7fe fb10 	bl	80024c8 <bme280_init>
 8003ea8:	4603      	mov	r3, r0
 8003eaa:	f887 398d 	strb.w	r3, [r7, #2445]	; 0x98d
		if(BME_Status == BME_OK)
 8003eae:	f897 398d 	ldrb.w	r3, [r7, #2445]	; 0x98d
 8003eb2:	2b00      	cmp	r3, #0
 8003eb4:	d102      	bne.n	8003ebc <main+0xf0>
		{
			BME280Present = 1;
 8003eb6:	4b3d      	ldr	r3, [pc, #244]	; (8003fac <main+0x1e0>)
 8003eb8:	2201      	movs	r2, #1
 8003eba:	601a      	str	r2, [r3, #0]
		}

		resetSI4032 = 0;
 8003ebc:	4b39      	ldr	r3, [pc, #228]	; (8003fa4 <main+0x1d8>)
 8003ebe:	2200      	movs	r2, #0
 8003ec0:	601a      	str	r2, [r3, #0]

	}

	if(sendCallSign)
 8003ec2:	4b3b      	ldr	r3, [pc, #236]	; (8003fb0 <main+0x1e4>)
 8003ec4:	681b      	ldr	r3, [r3, #0]
 8003ec6:	2b00      	cmp	r3, #0
 8003ec8:	d006      	beq.n	8003ed8 <main+0x10c>
	{
		processCallSign(&rsDriver);
 8003eca:	1d3b      	adds	r3, r7, #4
 8003ecc:	4618      	mov	r0, r3
 8003ece:	f7fe fb5d 	bl	800258c <processCallSign>
		sendCallSign = 0;
 8003ed2:	4b37      	ldr	r3, [pc, #220]	; (8003fb0 <main+0x1e4>)
 8003ed4:	2200      	movs	r2, #0
 8003ed6:	601a      	str	r2, [r3, #0]
	}

	if(sendInfo)
 8003ed8:	4b36      	ldr	r3, [pc, #216]	; (8003fb4 <main+0x1e8>)
 8003eda:	681b      	ldr	r3, [r3, #0]
 8003edc:	2b00      	cmp	r3, #0
 8003ede:	d006      	beq.n	8003eee <main+0x122>
	{
		processInfo(&rsDriver);
 8003ee0:	1d3b      	adds	r3, r7, #4
 8003ee2:	4618      	mov	r0, r3
 8003ee4:	f7ff feb0 	bl	8003c48 <processInfo>
		sendInfo = 0;
 8003ee8:	4b32      	ldr	r3, [pc, #200]	; (8003fb4 <main+0x1e8>)
 8003eea:	2200      	movs	r2, #0
 8003eec:	601a      	str	r2, [r3, #0]
	}

	if(sendInternalTemperature)
 8003eee:	4b32      	ldr	r3, [pc, #200]	; (8003fb8 <main+0x1ec>)
 8003ef0:	681b      	ldr	r3, [r3, #0]
 8003ef2:	2b00      	cmp	r3, #0
 8003ef4:	d006      	beq.n	8003f04 <main+0x138>
	{
		processInternalTemp(&rsDriver);
 8003ef6:	1d3b      	adds	r3, r7, #4
 8003ef8:	4618      	mov	r0, r3
 8003efa:	f7ff fefd 	bl	8003cf8 <processInternalTemp>
		sendInternalTemperature = 0;
 8003efe:	4b2e      	ldr	r3, [pc, #184]	; (8003fb8 <main+0x1ec>)
 8003f00:	2200      	movs	r2, #0
 8003f02:	601a      	str	r2, [r3, #0]
	}

	if(sendBattInfo)
 8003f04:	4b2d      	ldr	r3, [pc, #180]	; (8003fbc <main+0x1f0>)
 8003f06:	681b      	ldr	r3, [r3, #0]
 8003f08:	2b00      	cmp	r3, #0
 8003f0a:	d007      	beq.n	8003f1c <main+0x150>
	{
		processBattery(&rsDriver,&hadc1);
 8003f0c:	1d3b      	adds	r3, r7, #4
 8003f0e:	492c      	ldr	r1, [pc, #176]	; (8003fc0 <main+0x1f4>)
 8003f10:	4618      	mov	r0, r3
 8003f12:	f7fd fa4d 	bl	80013b0 <processBattery>
		sendBattInfo = 0;
 8003f16:	4b29      	ldr	r3, [pc, #164]	; (8003fbc <main+0x1f0>)
 8003f18:	2200      	movs	r2, #0
 8003f1a:	601a      	str	r2, [r3, #0]
	}

	if(collectGPSData == 1)
 8003f1c:	4b29      	ldr	r3, [pc, #164]	; (8003fc4 <main+0x1f8>)
 8003f1e:	681b      	ldr	r3, [r3, #0]
 8003f20:	2b01      	cmp	r3, #1
 8003f22:	d105      	bne.n	8003f30 <main+0x164>
	{
		processGPS(&huart1);
 8003f24:	481e      	ldr	r0, [pc, #120]	; (8003fa0 <main+0x1d4>)
 8003f26:	f7ff fc5b 	bl	80037e0 <processGPS>
		collectGPSData 	= 0;
 8003f2a:	4b26      	ldr	r3, [pc, #152]	; (8003fc4 <main+0x1f8>)
 8003f2c:	2200      	movs	r2, #0
 8003f2e:	601a      	str	r2, [r3, #0]
	}

	if(sendExtTempHumPress)
 8003f30:	4b25      	ldr	r3, [pc, #148]	; (8003fc8 <main+0x1fc>)
 8003f32:	681b      	ldr	r3, [r3, #0]
 8003f34:	2b00      	cmp	r3, #0
 8003f36:	d02b      	beq.n	8003f90 <main+0x1c4>
	{
		if(BME280Present == 1)
 8003f38:	4b1c      	ldr	r3, [pc, #112]	; (8003fac <main+0x1e0>)
 8003f3a:	681b      	ldr	r3, [r3, #0]
 8003f3c:	2b01      	cmp	r3, #1
 8003f3e:	d124      	bne.n	8003f8a <main+0x1be>
		{
			BME_Status = readAllMeasurements(&bme280SensorMeasurements, FAHRENHEIT_SCALE);
 8003f40:	2101      	movs	r1, #1
 8003f42:	4822      	ldr	r0, [pc, #136]	; (8003fcc <main+0x200>)
 8003f44:	f7fe fa76 	bl	8002434 <readAllMeasurements>
 8003f48:	4603      	mov	r3, r0
 8003f4a:	f887 398d 	strb.w	r3, [r7, #2445]	; 0x98d
			BME_Status = processExternalTemp(&rsDriver,bme280SensorMeasurements.temperature);
 8003f4e:	4b1f      	ldr	r3, [pc, #124]	; (8003fcc <main+0x200>)
 8003f50:	681a      	ldr	r2, [r3, #0]
 8003f52:	1d3b      	adds	r3, r7, #4
 8003f54:	4611      	mov	r1, r2
 8003f56:	4618      	mov	r0, r3
 8003f58:	f7ff fb33 	bl	80035c2 <processExternalTemp>
 8003f5c:	4603      	mov	r3, r0
 8003f5e:	f887 398d 	strb.w	r3, [r7, #2445]	; 0x98d
			BME_Status = processPressure(&rsDriver,bme280SensorMeasurements.pressure);
 8003f62:	4b1a      	ldr	r3, [pc, #104]	; (8003fcc <main+0x200>)
 8003f64:	685a      	ldr	r2, [r3, #4]
 8003f66:	1d3b      	adds	r3, r7, #4
 8003f68:	4611      	mov	r1, r2
 8003f6a:	4618      	mov	r0, r3
 8003f6c:	f000 fab1 	bl	80044d2 <processPressure>
 8003f70:	4603      	mov	r3, r0
 8003f72:	f887 398d 	strb.w	r3, [r7, #2445]	; 0x98d
			BME_Status = processHumidity(&rsDriver,bme280SensorMeasurements.humidity);
 8003f76:	4b15      	ldr	r3, [pc, #84]	; (8003fcc <main+0x200>)
 8003f78:	689a      	ldr	r2, [r3, #8]
 8003f7a:	1d3b      	adds	r3, r7, #4
 8003f7c:	4611      	mov	r1, r2
 8003f7e:	4618      	mov	r0, r3
 8003f80:	f7ff fe1e 	bl	8003bc0 <processHumidity>
 8003f84:	4603      	mov	r3, r0
 8003f86:	f887 398d 	strb.w	r3, [r7, #2445]	; 0x98d
		}
		sendExtTempHumPress = 0;
 8003f8a:	4b0f      	ldr	r3, [pc, #60]	; (8003fc8 <main+0x1fc>)
 8003f8c:	2200      	movs	r2, #0
 8003f8e:	601a      	str	r2, [r3, #0]
	}

#ifdef TEST_MODE
	processTestCam(&rsDriver);
#else
	processCAM(&huart3,&rsDriver);
 8003f90:	1d3b      	adds	r3, r7, #4
 8003f92:	4619      	mov	r1, r3
 8003f94:	480e      	ldr	r0, [pc, #56]	; (8003fd0 <main+0x204>)
 8003f96:	f7fe fea5 	bl	8002ce4 <processCAM>
	if(resetSI4032)
 8003f9a:	e768      	b.n	8003e6e <main+0xa2>
 8003f9c:	40010c00 	.word	0x40010c00
 8003fa0:	200004c0 	.word	0x200004c0
 8003fa4:	20000030 	.word	0x20000030
 8003fa8:	200003f4 	.word	0x200003f4
 8003fac:	2000036c 	.word	0x2000036c
 8003fb0:	2000001c 	.word	0x2000001c
 8003fb4:	20000020 	.word	0x20000020
 8003fb8:	20000028 	.word	0x20000028
 8003fbc:	20000024 	.word	0x20000024
 8003fc0:	20000490 	.word	0x20000490
 8003fc4:	20000350 	.word	0x20000350
 8003fc8:	2000002c 	.word	0x2000002c
 8003fcc:	200003e8 	.word	0x200003e8
 8003fd0:	2000044c 	.word	0x2000044c

08003fd4 <SystemClock_Config>:
/**
  * @brief System Clock Configuration
  * @retval None
  */
void SystemClock_Config(void)
{
 8003fd4:	b580      	push	{r7, lr}
 8003fd6:	b092      	sub	sp, #72	; 0x48
 8003fd8:	af00      	add	r7, sp, #0
  RCC_OscInitTypeDef RCC_OscInitStruct = {0};
 8003fda:	f107 0320 	add.w	r3, r7, #32
 8003fde:	2228      	movs	r2, #40	; 0x28
 8003fe0:	2100      	movs	r1, #0
 8003fe2:	4618      	mov	r0, r3
 8003fe4:	f004 fae0 	bl	80085a8 <memset>
  RCC_ClkInitTypeDef RCC_ClkInitStruct = {0};
 8003fe8:	f107 030c 	add.w	r3, r7, #12
 8003fec:	2200      	movs	r2, #0
 8003fee:	601a      	str	r2, [r3, #0]
 8003ff0:	605a      	str	r2, [r3, #4]
 8003ff2:	609a      	str	r2, [r3, #8]
 8003ff4:	60da      	str	r2, [r3, #12]
 8003ff6:	611a      	str	r2, [r3, #16]
  RCC_PeriphCLKInitTypeDef PeriphClkInit = {0};
 8003ff8:	463b      	mov	r3, r7
 8003ffa:	2200      	movs	r2, #0
 8003ffc:	601a      	str	r2, [r3, #0]
 8003ffe:	605a      	str	r2, [r3, #4]
 8004000:	609a      	str	r2, [r3, #8]

  /** Initializes the RCC Oscillators according to the specified parameters
  * in the RCC_OscInitTypeDef structure.
  */
  RCC_OscInitStruct.OscillatorType = RCC_OSCILLATORTYPE_HSI;
 8004002:	2302      	movs	r3, #2
 8004004:	623b      	str	r3, [r7, #32]
  RCC_OscInitStruct.HSIState = RCC_HSI_ON;
 8004006:	2301      	movs	r3, #1
 8004008:	633b      	str	r3, [r7, #48]	; 0x30
  RCC_OscInitStruct.HSICalibrationValue = RCC_HSICALIBRATION_DEFAULT;
 800400a:	2310      	movs	r3, #16
 800400c:	637b      	str	r3, [r7, #52]	; 0x34
  RCC_OscInitStruct.PLL.PLLState = RCC_PLL_NONE;
 800400e:	2300      	movs	r3, #0
 8004010:	63fb      	str	r3, [r7, #60]	; 0x3c
  if (HAL_RCC_OscConfig(&RCC_OscInitStruct) != HAL_OK)
 8004012:	f107 0320 	add.w	r3, r7, #32
 8004016:	4618      	mov	r0, r3
 8004018:	f002 f908 	bl	800622c <HAL_RCC_OscConfig>
 800401c:	4603      	mov	r3, r0
 800401e:	2b00      	cmp	r3, #0
 8004020:	d001      	beq.n	8004026 <SystemClock_Config+0x52>
  {
    Error_Handler();
 8004022:	f000 fa51 	bl	80044c8 <Error_Handler>
  }
  /** Initializes the CPU, AHB and APB buses clocks
  */
  RCC_ClkInitStruct.ClockType = RCC_CLOCKTYPE_HCLK|RCC_CLOCKTYPE_SYSCLK
 8004026:	230f      	movs	r3, #15
 8004028:	60fb      	str	r3, [r7, #12]
                              |RCC_CLOCKTYPE_PCLK1|RCC_CLOCKTYPE_PCLK2;
  RCC_ClkInitStruct.SYSCLKSource = RCC_SYSCLKSOURCE_HSI;
 800402a:	2300      	movs	r3, #0
 800402c:	613b      	str	r3, [r7, #16]
  RCC_ClkInitStruct.AHBCLKDivider = RCC_SYSCLK_DIV1;
 800402e:	2300      	movs	r3, #0
 8004030:	617b      	str	r3, [r7, #20]
  RCC_ClkInitStruct.APB1CLKDivider = RCC_HCLK_DIV1;
 8004032:	2300      	movs	r3, #0
 8004034:	61bb      	str	r3, [r7, #24]
  RCC_ClkInitStruct.APB2CLKDivider = RCC_HCLK_DIV1;
 8004036:	2300      	movs	r3, #0
 8004038:	61fb      	str	r3, [r7, #28]

  if (HAL_RCC_ClockConfig(&RCC_ClkInitStruct, FLASH_LATENCY_0) != HAL_OK)
 800403a:	f107 030c 	add.w	r3, r7, #12
 800403e:	2100      	movs	r1, #0
 8004040:	4618      	mov	r0, r3
 8004042:	f002 fb73 	bl	800672c <HAL_RCC_ClockConfig>
 8004046:	4603      	mov	r3, r0
 8004048:	2b00      	cmp	r3, #0
 800404a:	d001      	beq.n	8004050 <SystemClock_Config+0x7c>
  {
    Error_Handler();
 800404c:	f000 fa3c 	bl	80044c8 <Error_Handler>
  }
  PeriphClkInit.PeriphClockSelection = RCC_PERIPHCLK_ADC;
 8004050:	2302      	movs	r3, #2
 8004052:	603b      	str	r3, [r7, #0]
  PeriphClkInit.AdcClockSelection = RCC_ADCPCLK2_DIV2;
 8004054:	2300      	movs	r3, #0
 8004056:	60bb      	str	r3, [r7, #8]
  if (HAL_RCCEx_PeriphCLKConfig(&PeriphClkInit) != HAL_OK)
 8004058:	463b      	mov	r3, r7
 800405a:	4618      	mov	r0, r3
 800405c:	f002 fcfe 	bl	8006a5c <HAL_RCCEx_PeriphCLKConfig>
 8004060:	4603      	mov	r3, r0
 8004062:	2b00      	cmp	r3, #0
 8004064:	d001      	beq.n	800406a <SystemClock_Config+0x96>
  {
    Error_Handler();
 8004066:	f000 fa2f 	bl	80044c8 <Error_Handler>
  }
}
 800406a:	bf00      	nop
 800406c:	3748      	adds	r7, #72	; 0x48
 800406e:	46bd      	mov	sp, r7
 8004070:	bd80      	pop	{r7, pc}
	...

08004074 <MX_ADC1_Init>:
  * @brief ADC1 Initialization Function
  * @param None
  * @retval None
  */
static void MX_ADC1_Init(void)
{
 8004074:	b580      	push	{r7, lr}
 8004076:	b084      	sub	sp, #16
 8004078:	af00      	add	r7, sp, #0

  /* USER CODE BEGIN ADC1_Init 0 */

  /* USER CODE END ADC1_Init 0 */

  ADC_ChannelConfTypeDef sConfig = {0};
 800407a:	1d3b      	adds	r3, r7, #4
 800407c:	2200      	movs	r2, #0
 800407e:	601a      	str	r2, [r3, #0]
 8004080:	605a      	str	r2, [r3, #4]
 8004082:	609a      	str	r2, [r3, #8]
  /* USER CODE BEGIN ADC1_Init 1 */

  /* USER CODE END ADC1_Init 1 */
  /** Common config
  */
  hadc1.Instance = ADC1;
 8004084:	4b18      	ldr	r3, [pc, #96]	; (80040e8 <MX_ADC1_Init+0x74>)
 8004086:	4a19      	ldr	r2, [pc, #100]	; (80040ec <MX_ADC1_Init+0x78>)
 8004088:	601a      	str	r2, [r3, #0]
  hadc1.Init.ScanConvMode = ADC_SCAN_DISABLE;
 800408a:	4b17      	ldr	r3, [pc, #92]	; (80040e8 <MX_ADC1_Init+0x74>)
 800408c:	2200      	movs	r2, #0
 800408e:	609a      	str	r2, [r3, #8]
  hadc1.Init.ContinuousConvMode = DISABLE;
 8004090:	4b15      	ldr	r3, [pc, #84]	; (80040e8 <MX_ADC1_Init+0x74>)
 8004092:	2200      	movs	r2, #0
 8004094:	731a      	strb	r2, [r3, #12]
  hadc1.Init.DiscontinuousConvMode = DISABLE;
 8004096:	4b14      	ldr	r3, [pc, #80]	; (80040e8 <MX_ADC1_Init+0x74>)
 8004098:	2200      	movs	r2, #0
 800409a:	751a      	strb	r2, [r3, #20]
  hadc1.Init.ExternalTrigConv = ADC_SOFTWARE_START;
 800409c:	4b12      	ldr	r3, [pc, #72]	; (80040e8 <MX_ADC1_Init+0x74>)
 800409e:	f44f 2260 	mov.w	r2, #917504	; 0xe0000
 80040a2:	61da      	str	r2, [r3, #28]
  hadc1.Init.DataAlign = ADC_DATAALIGN_RIGHT;
 80040a4:	4b10      	ldr	r3, [pc, #64]	; (80040e8 <MX_ADC1_Init+0x74>)
 80040a6:	2200      	movs	r2, #0
 80040a8:	605a      	str	r2, [r3, #4]
  hadc1.Init.NbrOfConversion = 1;
 80040aa:	4b0f      	ldr	r3, [pc, #60]	; (80040e8 <MX_ADC1_Init+0x74>)
 80040ac:	2201      	movs	r2, #1
 80040ae:	611a      	str	r2, [r3, #16]
  if (HAL_ADC_Init(&hadc1) != HAL_OK)
 80040b0:	480d      	ldr	r0, [pc, #52]	; (80040e8 <MX_ADC1_Init+0x74>)
 80040b2:	f001 fa07 	bl	80054c4 <HAL_ADC_Init>
 80040b6:	4603      	mov	r3, r0
 80040b8:	2b00      	cmp	r3, #0
 80040ba:	d001      	beq.n	80040c0 <MX_ADC1_Init+0x4c>
  {
    Error_Handler();
 80040bc:	f000 fa04 	bl	80044c8 <Error_Handler>
  }
  /** Configure Regular Channel
  */
  sConfig.Channel = ADC_CHANNEL_5;
 80040c0:	2305      	movs	r3, #5
 80040c2:	607b      	str	r3, [r7, #4]
  sConfig.Rank = ADC_REGULAR_RANK_1;
 80040c4:	2301      	movs	r3, #1
 80040c6:	60bb      	str	r3, [r7, #8]
  sConfig.SamplingTime = ADC_SAMPLETIME_1CYCLE_5;
 80040c8:	2300      	movs	r3, #0
 80040ca:	60fb      	str	r3, [r7, #12]
  if (HAL_ADC_ConfigChannel(&hadc1, &sConfig) != HAL_OK)
 80040cc:	1d3b      	adds	r3, r7, #4
 80040ce:	4619      	mov	r1, r3
 80040d0:	4805      	ldr	r0, [pc, #20]	; (80040e8 <MX_ADC1_Init+0x74>)
 80040d2:	f001 fc81 	bl	80059d8 <HAL_ADC_ConfigChannel>
 80040d6:	4603      	mov	r3, r0
 80040d8:	2b00      	cmp	r3, #0
 80040da:	d001      	beq.n	80040e0 <MX_ADC1_Init+0x6c>
  {
    Error_Handler();
 80040dc:	f000 f9f4 	bl	80044c8 <Error_Handler>
  }
  /* USER CODE BEGIN ADC1_Init 2 */

  /* USER CODE END ADC1_Init 2 */

}
 80040e0:	bf00      	nop
 80040e2:	3710      	adds	r7, #16
 80040e4:	46bd      	mov	sp, r7
 80040e6:	bd80      	pop	{r7, pc}
 80040e8:	20000490 	.word	0x20000490
 80040ec:	40012400 	.word	0x40012400

080040f0 <MX_SPI2_Init>:
  * @brief SPI2 Initialization Function
  * @param None
  * @retval None
  */
static void MX_SPI2_Init(void)
{
 80040f0:	b580      	push	{r7, lr}
 80040f2:	af00      	add	r7, sp, #0

  /* USER CODE BEGIN SPI2_Init 1 */

  /* USER CODE END SPI2_Init 1 */
  /* SPI2 parameter configuration*/
  hspi2.Instance = SPI2;
 80040f4:	4b17      	ldr	r3, [pc, #92]	; (8004154 <MX_SPI2_Init+0x64>)
 80040f6:	4a18      	ldr	r2, [pc, #96]	; (8004158 <MX_SPI2_Init+0x68>)
 80040f8:	601a      	str	r2, [r3, #0]
  hspi2.Init.Mode = SPI_MODE_MASTER;
 80040fa:	4b16      	ldr	r3, [pc, #88]	; (8004154 <MX_SPI2_Init+0x64>)
 80040fc:	f44f 7282 	mov.w	r2, #260	; 0x104
 8004100:	605a      	str	r2, [r3, #4]
  hspi2.Init.Direction = SPI_DIRECTION_2LINES;
 8004102:	4b14      	ldr	r3, [pc, #80]	; (8004154 <MX_SPI2_Init+0x64>)
 8004104:	2200      	movs	r2, #0
 8004106:	609a      	str	r2, [r3, #8]
  hspi2.Init.DataSize = SPI_DATASIZE_8BIT;
 8004108:	4b12      	ldr	r3, [pc, #72]	; (8004154 <MX_SPI2_Init+0x64>)
 800410a:	2200      	movs	r2, #0
 800410c:	60da      	str	r2, [r3, #12]
  hspi2.Init.CLKPolarity = SPI_POLARITY_LOW;
 800410e:	4b11      	ldr	r3, [pc, #68]	; (8004154 <MX_SPI2_Init+0x64>)
 8004110:	2200      	movs	r2, #0
 8004112:	611a      	str	r2, [r3, #16]
  hspi2.Init.CLKPhase = SPI_PHASE_1EDGE;
 8004114:	4b0f      	ldr	r3, [pc, #60]	; (8004154 <MX_SPI2_Init+0x64>)
 8004116:	2200      	movs	r2, #0
 8004118:	615a      	str	r2, [r3, #20]
  hspi2.Init.NSS = SPI_NSS_SOFT;
 800411a:	4b0e      	ldr	r3, [pc, #56]	; (8004154 <MX_SPI2_Init+0x64>)
 800411c:	f44f 7200 	mov.w	r2, #512	; 0x200
 8004120:	619a      	str	r2, [r3, #24]
  hspi2.Init.BaudRatePrescaler = SPI_BAUDRATEPRESCALER_2;
 8004122:	4b0c      	ldr	r3, [pc, #48]	; (8004154 <MX_SPI2_Init+0x64>)
 8004124:	2200      	movs	r2, #0
 8004126:	61da      	str	r2, [r3, #28]
  hspi2.Init.FirstBit = SPI_FIRSTBIT_MSB;
 8004128:	4b0a      	ldr	r3, [pc, #40]	; (8004154 <MX_SPI2_Init+0x64>)
 800412a:	2200      	movs	r2, #0
 800412c:	621a      	str	r2, [r3, #32]
  hspi2.Init.TIMode = SPI_TIMODE_DISABLE;
 800412e:	4b09      	ldr	r3, [pc, #36]	; (8004154 <MX_SPI2_Init+0x64>)
 8004130:	2200      	movs	r2, #0
 8004132:	625a      	str	r2, [r3, #36]	; 0x24
  hspi2.Init.CRCCalculation = SPI_CRCCALCULATION_DISABLE;
 8004134:	4b07      	ldr	r3, [pc, #28]	; (8004154 <MX_SPI2_Init+0x64>)
 8004136:	2200      	movs	r2, #0
 8004138:	629a      	str	r2, [r3, #40]	; 0x28
  hspi2.Init.CRCPolynomial = 10;
 800413a:	4b06      	ldr	r3, [pc, #24]	; (8004154 <MX_SPI2_Init+0x64>)
 800413c:	220a      	movs	r2, #10
 800413e:	62da      	str	r2, [r3, #44]	; 0x2c
  if (HAL_SPI_Init(&hspi2) != HAL_OK)
 8004140:	4804      	ldr	r0, [pc, #16]	; (8004154 <MX_SPI2_Init+0x64>)
 8004142:	f002 fd89 	bl	8006c58 <HAL_SPI_Init>
 8004146:	4603      	mov	r3, r0
 8004148:	2b00      	cmp	r3, #0
 800414a:	d001      	beq.n	8004150 <MX_SPI2_Init+0x60>
  {
    Error_Handler();
 800414c:	f000 f9bc 	bl	80044c8 <Error_Handler>
  }
  /* USER CODE BEGIN SPI2_Init 2 */

  /* USER CODE END SPI2_Init 2 */

}
 8004150:	bf00      	nop
 8004152:	bd80      	pop	{r7, pc}
 8004154:	200003f4 	.word	0x200003f4
 8004158:	40003800 	.word	0x40003800

0800415c <MX_TIM2_Init>:
  * @brief TIM2 Initialization Function
  * @param None
  * @retval None
  */
static void MX_TIM2_Init(void)
{
 800415c:	b580      	push	{r7, lr}
 800415e:	b086      	sub	sp, #24
 8004160:	af00      	add	r7, sp, #0

  /* USER CODE BEGIN TIM2_Init 0 */

  /* USER CODE END TIM2_Init 0 */

  TIM_ClockConfigTypeDef sClockSourceConfig = {0};
 8004162:	f107 0308 	add.w	r3, r7, #8
 8004166:	2200      	movs	r2, #0
 8004168:	601a      	str	r2, [r3, #0]
 800416a:	605a      	str	r2, [r3, #4]
 800416c:	609a      	str	r2, [r3, #8]
 800416e:	60da      	str	r2, [r3, #12]
  TIM_MasterConfigTypeDef sMasterConfig = {0};
 8004170:	463b      	mov	r3, r7
 8004172:	2200      	movs	r2, #0
 8004174:	601a      	str	r2, [r3, #0]
 8004176:	605a      	str	r2, [r3, #4]

  /* USER CODE BEGIN TIM2_Init 1 */

  /* USER CODE END TIM2_Init 1 */
  htim2.Instance = TIM2;
 8004178:	4b22      	ldr	r3, [pc, #136]	; (8004204 <MX_TIM2_Init+0xa8>)
 800417a:	f04f 4280 	mov.w	r2, #1073741824	; 0x40000000
 800417e:	601a      	str	r2, [r3, #0]
  htim2.Init.Prescaler = 7999;
 8004180:	4b20      	ldr	r3, [pc, #128]	; (8004204 <MX_TIM2_Init+0xa8>)
 8004182:	f641 723f 	movw	r2, #7999	; 0x1f3f
 8004186:	605a      	str	r2, [r3, #4]
  htim2.Init.CounterMode = TIM_COUNTERMODE_UP;
 8004188:	4b1e      	ldr	r3, [pc, #120]	; (8004204 <MX_TIM2_Init+0xa8>)
 800418a:	2200      	movs	r2, #0
 800418c:	609a      	str	r2, [r3, #8]
  htim2.Init.Period = 15000;
 800418e:	4b1d      	ldr	r3, [pc, #116]	; (8004204 <MX_TIM2_Init+0xa8>)
 8004190:	f643 2298 	movw	r2, #15000	; 0x3a98
 8004194:	60da      	str	r2, [r3, #12]
  htim2.Init.ClockDivision = TIM_CLOCKDIVISION_DIV1;
 8004196:	4b1b      	ldr	r3, [pc, #108]	; (8004204 <MX_TIM2_Init+0xa8>)
 8004198:	2200      	movs	r2, #0
 800419a:	611a      	str	r2, [r3, #16]
  htim2.Init.AutoReloadPreload = TIM_AUTORELOAD_PRELOAD_DISABLE;
 800419c:	4b19      	ldr	r3, [pc, #100]	; (8004204 <MX_TIM2_Init+0xa8>)
 800419e:	2200      	movs	r2, #0
 80041a0:	619a      	str	r2, [r3, #24]
  if (HAL_TIM_Base_Init(&htim2) != HAL_OK)
 80041a2:	4818      	ldr	r0, [pc, #96]	; (8004204 <MX_TIM2_Init+0xa8>)
 80041a4:	f003 fabc 	bl	8007720 <HAL_TIM_Base_Init>
 80041a8:	4603      	mov	r3, r0
 80041aa:	2b00      	cmp	r3, #0
 80041ac:	d001      	beq.n	80041b2 <MX_TIM2_Init+0x56>
  {
    Error_Handler();
 80041ae:	f000 f98b 	bl	80044c8 <Error_Handler>
  }
  sClockSourceConfig.ClockSource = TIM_CLOCKSOURCE_INTERNAL;
 80041b2:	f44f 5380 	mov.w	r3, #4096	; 0x1000
 80041b6:	60bb      	str	r3, [r7, #8]
  if (HAL_TIM_ConfigClockSource(&htim2, &sClockSourceConfig) != HAL_OK)
 80041b8:	f107 0308 	add.w	r3, r7, #8
 80041bc:	4619      	mov	r1, r3
 80041be:	4811      	ldr	r0, [pc, #68]	; (8004204 <MX_TIM2_Init+0xa8>)
 80041c0:	f003 fc60 	bl	8007a84 <HAL_TIM_ConfigClockSource>
 80041c4:	4603      	mov	r3, r0
 80041c6:	2b00      	cmp	r3, #0
 80041c8:	d001      	beq.n	80041ce <MX_TIM2_Init+0x72>
  {
    Error_Handler();
 80041ca:	f000 f97d 	bl	80044c8 <Error_Handler>
  }
  sMasterConfig.MasterOutputTrigger = TIM_TRGO_RESET;
 80041ce:	2300      	movs	r3, #0
 80041d0:	603b      	str	r3, [r7, #0]
  sMasterConfig.MasterSlaveMode = TIM_MASTERSLAVEMODE_DISABLE;
 80041d2:	2300      	movs	r3, #0
 80041d4:	607b      	str	r3, [r7, #4]
  if (HAL_TIMEx_MasterConfigSynchronization(&htim2, &sMasterConfig) != HAL_OK)
 80041d6:	463b      	mov	r3, r7
 80041d8:	4619      	mov	r1, r3
 80041da:	480a      	ldr	r0, [pc, #40]	; (8004204 <MX_TIM2_Init+0xa8>)
 80041dc:	f003 fe50 	bl	8007e80 <HAL_TIMEx_MasterConfigSynchronization>
 80041e0:	4603      	mov	r3, r0
 80041e2:	2b00      	cmp	r3, #0
 80041e4:	d001      	beq.n	80041ea <MX_TIM2_Init+0x8e>
  {
    Error_Handler();
 80041e6:	f000 f96f 	bl	80044c8 <Error_Handler>
  }
  /* USER CODE BEGIN TIM2_Init 2 */

  if (HAL_TIM_Base_Start_IT(&htim2) != HAL_OK)
 80041ea:	4806      	ldr	r0, [pc, #24]	; (8004204 <MX_TIM2_Init+0xa8>)
 80041ec:	f003 fae8 	bl	80077c0 <HAL_TIM_Base_Start_IT>
 80041f0:	4603      	mov	r3, r0
 80041f2:	2b00      	cmp	r3, #0
 80041f4:	d001      	beq.n	80041fa <MX_TIM2_Init+0x9e>
  {
    Error_Handler();
 80041f6:	f000 f967 	bl	80044c8 <Error_Handler>
  }


  /* USER CODE END TIM2_Init 2 */

}
 80041fa:	bf00      	nop
 80041fc:	3718      	adds	r7, #24
 80041fe:	46bd      	mov	sp, r7
 8004200:	bd80      	pop	{r7, pc}
 8004202:	bf00      	nop
 8004204:	20000504 	.word	0x20000504

08004208 <MX_USART1_UART_Init>:
  * @brief USART1 Initialization Function
  * @param None
  * @retval None
  */
static void MX_USART1_UART_Init(void)
{
 8004208:	b580      	push	{r7, lr}
 800420a:	af00      	add	r7, sp, #0
  /* USER CODE END USART1_Init 0 */

  /* USER CODE BEGIN USART1_Init 1 */

  /* USER CODE END USART1_Init 1 */
  huart1.Instance = USART1;
 800420c:	4b11      	ldr	r3, [pc, #68]	; (8004254 <MX_USART1_UART_Init+0x4c>)
 800420e:	4a12      	ldr	r2, [pc, #72]	; (8004258 <MX_USART1_UART_Init+0x50>)
 8004210:	601a      	str	r2, [r3, #0]
  huart1.Init.BaudRate = 9600;
 8004212:	4b10      	ldr	r3, [pc, #64]	; (8004254 <MX_USART1_UART_Init+0x4c>)
 8004214:	f44f 5216 	mov.w	r2, #9600	; 0x2580
 8004218:	605a      	str	r2, [r3, #4]
  huart1.Init.WordLength = UART_WORDLENGTH_8B;
 800421a:	4b0e      	ldr	r3, [pc, #56]	; (8004254 <MX_USART1_UART_Init+0x4c>)
 800421c:	2200      	movs	r2, #0
 800421e:	609a      	str	r2, [r3, #8]
  huart1.Init.StopBits = UART_STOPBITS_1;
 8004220:	4b0c      	ldr	r3, [pc, #48]	; (8004254 <MX_USART1_UART_Init+0x4c>)
 8004222:	2200      	movs	r2, #0
 8004224:	60da      	str	r2, [r3, #12]
  huart1.Init.Parity = UART_PARITY_NONE;
 8004226:	4b0b      	ldr	r3, [pc, #44]	; (8004254 <MX_USART1_UART_Init+0x4c>)
 8004228:	2200      	movs	r2, #0
 800422a:	611a      	str	r2, [r3, #16]
  huart1.Init.Mode = UART_MODE_TX_RX;
 800422c:	4b09      	ldr	r3, [pc, #36]	; (8004254 <MX_USART1_UART_Init+0x4c>)
 800422e:	220c      	movs	r2, #12
 8004230:	615a      	str	r2, [r3, #20]
  huart1.Init.HwFlowCtl = UART_HWCONTROL_NONE;
 8004232:	4b08      	ldr	r3, [pc, #32]	; (8004254 <MX_USART1_UART_Init+0x4c>)
 8004234:	2200      	movs	r2, #0
 8004236:	619a      	str	r2, [r3, #24]
  huart1.Init.OverSampling = UART_OVERSAMPLING_16;
 8004238:	4b06      	ldr	r3, [pc, #24]	; (8004254 <MX_USART1_UART_Init+0x4c>)
 800423a:	2200      	movs	r2, #0
 800423c:	61da      	str	r2, [r3, #28]
  if (HAL_UART_Init(&huart1) != HAL_OK)
 800423e:	4805      	ldr	r0, [pc, #20]	; (8004254 <MX_USART1_UART_Init+0x4c>)
 8004240:	f003 fe96 	bl	8007f70 <HAL_UART_Init>
 8004244:	4603      	mov	r3, r0
 8004246:	2b00      	cmp	r3, #0
 8004248:	d001      	beq.n	800424e <MX_USART1_UART_Init+0x46>
  {
    Error_Handler();
 800424a:	f000 f93d 	bl	80044c8 <Error_Handler>
  }
  /* USER CODE BEGIN USART1_Init 2 */

  /* USER CODE END USART1_Init 2 */

}
 800424e:	bf00      	nop
 8004250:	bd80      	pop	{r7, pc}
 8004252:	bf00      	nop
 8004254:	200004c0 	.word	0x200004c0
 8004258:	40013800 	.word	0x40013800

0800425c <MX_USART3_UART_Init>:
  * @brief USART3 Initialization Function
  * @param None
  * @retval None
  */
static void MX_USART3_UART_Init(void)
{
 800425c:	b580      	push	{r7, lr}
 800425e:	af00      	add	r7, sp, #0
  /* USER CODE END USART3_Init 0 */

  /* USER CODE BEGIN USART3_Init 1 */

  /* USER CODE END USART3_Init 1 */
  huart3.Instance = USART3;
 8004260:	4b11      	ldr	r3, [pc, #68]	; (80042a8 <MX_USART3_UART_Init+0x4c>)
 8004262:	4a12      	ldr	r2, [pc, #72]	; (80042ac <MX_USART3_UART_Init+0x50>)
 8004264:	601a      	str	r2, [r3, #0]
  huart3.Init.BaudRate = 115200;
 8004266:	4b10      	ldr	r3, [pc, #64]	; (80042a8 <MX_USART3_UART_Init+0x4c>)
 8004268:	f44f 32e1 	mov.w	r2, #115200	; 0x1c200
 800426c:	605a      	str	r2, [r3, #4]
  huart3.Init.WordLength = UART_WORDLENGTH_8B;
 800426e:	4b0e      	ldr	r3, [pc, #56]	; (80042a8 <MX_USART3_UART_Init+0x4c>)
 8004270:	2200      	movs	r2, #0
 8004272:	609a      	str	r2, [r3, #8]
  huart3.Init.StopBits = UART_STOPBITS_1;
 8004274:	4b0c      	ldr	r3, [pc, #48]	; (80042a8 <MX_USART3_UART_Init+0x4c>)
 8004276:	2200      	movs	r2, #0
 8004278:	60da      	str	r2, [r3, #12]
  huart3.Init.Parity = UART_PARITY_NONE;
 800427a:	4b0b      	ldr	r3, [pc, #44]	; (80042a8 <MX_USART3_UART_Init+0x4c>)
 800427c:	2200      	movs	r2, #0
 800427e:	611a      	str	r2, [r3, #16]
  huart3.Init.Mode = UART_MODE_TX_RX;
 8004280:	4b09      	ldr	r3, [pc, #36]	; (80042a8 <MX_USART3_UART_Init+0x4c>)
 8004282:	220c      	movs	r2, #12
 8004284:	615a      	str	r2, [r3, #20]
  huart3.Init.HwFlowCtl = UART_HWCONTROL_NONE;
 8004286:	4b08      	ldr	r3, [pc, #32]	; (80042a8 <MX_USART3_UART_Init+0x4c>)
 8004288:	2200      	movs	r2, #0
 800428a:	619a      	str	r2, [r3, #24]
  huart3.Init.OverSampling = UART_OVERSAMPLING_16;
 800428c:	4b06      	ldr	r3, [pc, #24]	; (80042a8 <MX_USART3_UART_Init+0x4c>)
 800428e:	2200      	movs	r2, #0
 8004290:	61da      	str	r2, [r3, #28]
  if (HAL_UART_Init(&huart3) != HAL_OK)
 8004292:	4805      	ldr	r0, [pc, #20]	; (80042a8 <MX_USART3_UART_Init+0x4c>)
 8004294:	f003 fe6c 	bl	8007f70 <HAL_UART_Init>
 8004298:	4603      	mov	r3, r0
 800429a:	2b00      	cmp	r3, #0
 800429c:	d001      	beq.n	80042a2 <MX_USART3_UART_Init+0x46>
  {
    Error_Handler();
 800429e:	f000 f913 	bl	80044c8 <Error_Handler>
  }
  /* USER CODE BEGIN USART3_Init 2 */

  /* USER CODE END USART3_Init 2 */

}
 80042a2:	bf00      	nop
 80042a4:	bd80      	pop	{r7, pc}
 80042a6:	bf00      	nop
 80042a8:	2000044c 	.word	0x2000044c
 80042ac:	40004800 	.word	0x40004800

080042b0 <MX_GPIO_Init>:
  * @brief GPIO Initialization Function
  * @param None
  * @retval None
  */
static void MX_GPIO_Init(void)
{
 80042b0:	b580      	push	{r7, lr}
 80042b2:	b088      	sub	sp, #32
 80042b4:	af00      	add	r7, sp, #0
  GPIO_InitTypeDef GPIO_InitStruct = {0};
 80042b6:	f107 0310 	add.w	r3, r7, #16
 80042ba:	2200      	movs	r2, #0
 80042bc:	601a      	str	r2, [r3, #0]
 80042be:	605a      	str	r2, [r3, #4]
 80042c0:	609a      	str	r2, [r3, #8]
 80042c2:	60da      	str	r2, [r3, #12]

  /* GPIO Ports Clock Enable */
  __HAL_RCC_GPIOC_CLK_ENABLE();
 80042c4:	4b28      	ldr	r3, [pc, #160]	; (8004368 <MX_GPIO_Init+0xb8>)
 80042c6:	699b      	ldr	r3, [r3, #24]
 80042c8:	4a27      	ldr	r2, [pc, #156]	; (8004368 <MX_GPIO_Init+0xb8>)
 80042ca:	f043 0310 	orr.w	r3, r3, #16
 80042ce:	6193      	str	r3, [r2, #24]
 80042d0:	4b25      	ldr	r3, [pc, #148]	; (8004368 <MX_GPIO_Init+0xb8>)
 80042d2:	699b      	ldr	r3, [r3, #24]
 80042d4:	f003 0310 	and.w	r3, r3, #16
 80042d8:	60fb      	str	r3, [r7, #12]
 80042da:	68fb      	ldr	r3, [r7, #12]
  __HAL_RCC_GPIOA_CLK_ENABLE();
 80042dc:	4b22      	ldr	r3, [pc, #136]	; (8004368 <MX_GPIO_Init+0xb8>)
 80042de:	699b      	ldr	r3, [r3, #24]
 80042e0:	4a21      	ldr	r2, [pc, #132]	; (8004368 <MX_GPIO_Init+0xb8>)
 80042e2:	f043 0304 	orr.w	r3, r3, #4
 80042e6:	6193      	str	r3, [r2, #24]
 80042e8:	4b1f      	ldr	r3, [pc, #124]	; (8004368 <MX_GPIO_Init+0xb8>)
 80042ea:	699b      	ldr	r3, [r3, #24]
 80042ec:	f003 0304 	and.w	r3, r3, #4
 80042f0:	60bb      	str	r3, [r7, #8]
 80042f2:	68bb      	ldr	r3, [r7, #8]
  __HAL_RCC_GPIOB_CLK_ENABLE();
 80042f4:	4b1c      	ldr	r3, [pc, #112]	; (8004368 <MX_GPIO_Init+0xb8>)
 80042f6:	699b      	ldr	r3, [r3, #24]
 80042f8:	4a1b      	ldr	r2, [pc, #108]	; (8004368 <MX_GPIO_Init+0xb8>)
 80042fa:	f043 0308 	orr.w	r3, r3, #8
 80042fe:	6193      	str	r3, [r2, #24]
 8004300:	4b19      	ldr	r3, [pc, #100]	; (8004368 <MX_GPIO_Init+0xb8>)
 8004302:	699b      	ldr	r3, [r3, #24]
 8004304:	f003 0308 	and.w	r3, r3, #8
 8004308:	607b      	str	r3, [r7, #4]
 800430a:	687b      	ldr	r3, [r7, #4]

  /*Configure GPIO pin Output Level */
  HAL_GPIO_WritePin(RADIO_NSS_GPIO_Port, RADIO_NSS_Pin, GPIO_PIN_RESET);
 800430c:	2200      	movs	r2, #0
 800430e:	f44f 5100 	mov.w	r1, #8192	; 0x2000
 8004312:	4816      	ldr	r0, [pc, #88]	; (800436c <MX_GPIO_Init+0xbc>)
 8004314:	f001 ff58 	bl	80061c8 <HAL_GPIO_WritePin>

  /*Configure GPIO pin Output Level */
  HAL_GPIO_WritePin(GPIOB, PRESSURE_NSS_Pin|GREEN_LED_Pin|RED_LED_Pin, GPIO_PIN_RESET);
 8004318:	2200      	movs	r2, #0
 800431a:	f44f 71c2 	mov.w	r1, #388	; 0x184
 800431e:	4814      	ldr	r0, [pc, #80]	; (8004370 <MX_GPIO_Init+0xc0>)
 8004320:	f001 ff52 	bl	80061c8 <HAL_GPIO_WritePin>

  /*Configure GPIO pin : RADIO_NSS_Pin */
  GPIO_InitStruct.Pin = RADIO_NSS_Pin;
 8004324:	f44f 5300 	mov.w	r3, #8192	; 0x2000
 8004328:	613b      	str	r3, [r7, #16]
  GPIO_InitStruct.Mode = GPIO_MODE_OUTPUT_PP;
 800432a:	2301      	movs	r3, #1
 800432c:	617b      	str	r3, [r7, #20]
  GPIO_InitStruct.Pull = GPIO_NOPULL;
 800432e:	2300      	movs	r3, #0
 8004330:	61bb      	str	r3, [r7, #24]
  GPIO_InitStruct.Speed = GPIO_SPEED_FREQ_LOW;
 8004332:	2302      	movs	r3, #2
 8004334:	61fb      	str	r3, [r7, #28]
  HAL_GPIO_Init(RADIO_NSS_GPIO_Port, &GPIO_InitStruct);
 8004336:	f107 0310 	add.w	r3, r7, #16
 800433a:	4619      	mov	r1, r3
 800433c:	480b      	ldr	r0, [pc, #44]	; (800436c <MX_GPIO_Init+0xbc>)
 800433e:	f001 fdbf 	bl	8005ec0 <HAL_GPIO_Init>

  /*Configure GPIO pins : PRESSURE_NSS_Pin GREEN_LED_Pin RED_LED_Pin */
  GPIO_InitStruct.Pin = PRESSURE_NSS_Pin|GREEN_LED_Pin|RED_LED_Pin;
 8004342:	f44f 73c2 	mov.w	r3, #388	; 0x184
 8004346:	613b      	str	r3, [r7, #16]
  GPIO_InitStruct.Mode = GPIO_MODE_OUTPUT_PP;
 8004348:	2301      	movs	r3, #1
 800434a:	617b      	str	r3, [r7, #20]
  GPIO_InitStruct.Pull = GPIO_NOPULL;
 800434c:	2300      	movs	r3, #0
 800434e:	61bb      	str	r3, [r7, #24]
  GPIO_InitStruct.Speed = GPIO_SPEED_FREQ_LOW;
 8004350:	2302      	movs	r3, #2
 8004352:	61fb      	str	r3, [r7, #28]
  HAL_GPIO_Init(GPIOB, &GPIO_InitStruct);
 8004354:	f107 0310 	add.w	r3, r7, #16
 8004358:	4619      	mov	r1, r3
 800435a:	4805      	ldr	r0, [pc, #20]	; (8004370 <MX_GPIO_Init+0xc0>)
 800435c:	f001 fdb0 	bl	8005ec0 <HAL_GPIO_Init>

}
 8004360:	bf00      	nop
 8004362:	3720      	adds	r7, #32
 8004364:	46bd      	mov	sp, r7
 8004366:	bd80      	pop	{r7, pc}
 8004368:	40021000 	.word	0x40021000
 800436c:	40011000 	.word	0x40011000
 8004370:	40010c00 	.word	0x40010c00

08004374 <HAL_TIM_PeriodElapsedCallback>:
  * a global variable "uwTick" used as application time base.
  * @param  htim : TIM handle
  * @retval None
  */
void HAL_TIM_PeriodElapsedCallback(TIM_HandleTypeDef *htim)
{
 8004374:	b580      	push	{r7, lr}
 8004376:	b082      	sub	sp, #8
 8004378:	af00      	add	r7, sp, #0
 800437a:	6078      	str	r0, [r7, #4]
  /* USER CODE BEGIN Callback 0 */

  /* USER CODE END Callback 0 */
  if (htim->Instance == TIM6) {
 800437c:	687b      	ldr	r3, [r7, #4]
 800437e:	681b      	ldr	r3, [r3, #0]
 8004380:	4a41      	ldr	r2, [pc, #260]	; (8004488 <HAL_TIM_PeriodElapsedCallback+0x114>)
 8004382:	4293      	cmp	r3, r2
 8004384:	d101      	bne.n	800438a <HAL_TIM_PeriodElapsedCallback+0x16>
    HAL_IncTick();
 8004386:	f001 f85d 	bl	8005444 <HAL_IncTick>
  }
  /* USER CODE BEGIN Callback 1 */

  if (htim->Instance == TIM2)
 800438a:	687b      	ldr	r3, [r7, #4]
 800438c:	681b      	ldr	r3, [r3, #0]
 800438e:	f1b3 4f80 	cmp.w	r3, #1073741824	; 0x40000000
 8004392:	d174      	bne.n	800447e <HAL_TIM_PeriodElapsedCallback+0x10a>
  {
	  collectGPSData = 1;
 8004394:	4b3d      	ldr	r3, [pc, #244]	; (800448c <HAL_TIM_PeriodElapsedCallback+0x118>)
 8004396:	2201      	movs	r2, #1
 8004398:	601a      	str	r2, [r3, #0]
	  HAL_GPIO_TogglePin(GPIOB, GREEN_LED_Pin);
 800439a:	2180      	movs	r1, #128	; 0x80
 800439c:	483c      	ldr	r0, [pc, #240]	; (8004490 <HAL_TIM_PeriodElapsedCallback+0x11c>)
 800439e:	f001 ff2b 	bl	80061f8 <HAL_GPIO_TogglePin>

	  callSignTic++;
 80043a2:	4b3c      	ldr	r3, [pc, #240]	; (8004494 <HAL_TIM_PeriodElapsedCallback+0x120>)
 80043a4:	681b      	ldr	r3, [r3, #0]
 80043a6:	3301      	adds	r3, #1
 80043a8:	4a3a      	ldr	r2, [pc, #232]	; (8004494 <HAL_TIM_PeriodElapsedCallback+0x120>)
 80043aa:	6013      	str	r3, [r2, #0]
	  sendInfoTic++;
 80043ac:	4b3a      	ldr	r3, [pc, #232]	; (8004498 <HAL_TIM_PeriodElapsedCallback+0x124>)
 80043ae:	681b      	ldr	r3, [r3, #0]
 80043b0:	3301      	adds	r3, #1
 80043b2:	4a39      	ldr	r2, [pc, #228]	; (8004498 <HAL_TIM_PeriodElapsedCallback+0x124>)
 80043b4:	6013      	str	r3, [r2, #0]
	  sendBattInfoTic++;
 80043b6:	4b39      	ldr	r3, [pc, #228]	; (800449c <HAL_TIM_PeriodElapsedCallback+0x128>)
 80043b8:	681b      	ldr	r3, [r3, #0]
 80043ba:	3301      	adds	r3, #1
 80043bc:	4a37      	ldr	r2, [pc, #220]	; (800449c <HAL_TIM_PeriodElapsedCallback+0x128>)
 80043be:	6013      	str	r3, [r2, #0]
	  sendInternalTemperatureTic++;
 80043c0:	4b37      	ldr	r3, [pc, #220]	; (80044a0 <HAL_TIM_PeriodElapsedCallback+0x12c>)
 80043c2:	681b      	ldr	r3, [r3, #0]
 80043c4:	3301      	adds	r3, #1
 80043c6:	4a36      	ldr	r2, [pc, #216]	; (80044a0 <HAL_TIM_PeriodElapsedCallback+0x12c>)
 80043c8:	6013      	str	r3, [r2, #0]
	  sendExtTempHumPressTic++;
 80043ca:	4b36      	ldr	r3, [pc, #216]	; (80044a4 <HAL_TIM_PeriodElapsedCallback+0x130>)
 80043cc:	681b      	ldr	r3, [r3, #0]
 80043ce:	3301      	adds	r3, #1
 80043d0:	4a34      	ldr	r2, [pc, #208]	; (80044a4 <HAL_TIM_PeriodElapsedCallback+0x130>)
 80043d2:	6013      	str	r3, [r2, #0]
	  resetTic++;
 80043d4:	4b34      	ldr	r3, [pc, #208]	; (80044a8 <HAL_TIM_PeriodElapsedCallback+0x134>)
 80043d6:	681b      	ldr	r3, [r3, #0]
 80043d8:	3301      	adds	r3, #1
 80043da:	4a33      	ldr	r2, [pc, #204]	; (80044a8 <HAL_TIM_PeriodElapsedCallback+0x134>)
 80043dc:	6013      	str	r3, [r2, #0]

	  if(callSignTic % 40 == 0)
 80043de:	4b2d      	ldr	r3, [pc, #180]	; (8004494 <HAL_TIM_PeriodElapsedCallback+0x120>)
 80043e0:	6819      	ldr	r1, [r3, #0]
 80043e2:	4b32      	ldr	r3, [pc, #200]	; (80044ac <HAL_TIM_PeriodElapsedCallback+0x138>)
 80043e4:	fb83 2301 	smull	r2, r3, r3, r1
 80043e8:	111a      	asrs	r2, r3, #4
 80043ea:	17cb      	asrs	r3, r1, #31
 80043ec:	1ad2      	subs	r2, r2, r3
 80043ee:	4613      	mov	r3, r2
 80043f0:	009b      	lsls	r3, r3, #2
 80043f2:	4413      	add	r3, r2
 80043f4:	00db      	lsls	r3, r3, #3
 80043f6:	1aca      	subs	r2, r1, r3
 80043f8:	2a00      	cmp	r2, #0
 80043fa:	d102      	bne.n	8004402 <HAL_TIM_PeriodElapsedCallback+0x8e>
	  {
		  sendCallSign = 1;
 80043fc:	4b2c      	ldr	r3, [pc, #176]	; (80044b0 <HAL_TIM_PeriodElapsedCallback+0x13c>)
 80043fe:	2201      	movs	r2, #1
 8004400:	601a      	str	r2, [r3, #0]
	  }

	  if(sendBattInfoTic % 20 == 0)
 8004402:	4b26      	ldr	r3, [pc, #152]	; (800449c <HAL_TIM_PeriodElapsedCallback+0x128>)
 8004404:	6819      	ldr	r1, [r3, #0]
 8004406:	4b29      	ldr	r3, [pc, #164]	; (80044ac <HAL_TIM_PeriodElapsedCallback+0x138>)
 8004408:	fb83 2301 	smull	r2, r3, r3, r1
 800440c:	10da      	asrs	r2, r3, #3
 800440e:	17cb      	asrs	r3, r1, #31
 8004410:	1ad2      	subs	r2, r2, r3
 8004412:	4613      	mov	r3, r2
 8004414:	009b      	lsls	r3, r3, #2
 8004416:	4413      	add	r3, r2
 8004418:	009b      	lsls	r3, r3, #2
 800441a:	1aca      	subs	r2, r1, r3
 800441c:	2a00      	cmp	r2, #0
 800441e:	d102      	bne.n	8004426 <HAL_TIM_PeriodElapsedCallback+0xb2>
	  {
		  sendBattInfo = 1;
 8004420:	4b24      	ldr	r3, [pc, #144]	; (80044b4 <HAL_TIM_PeriodElapsedCallback+0x140>)
 8004422:	2201      	movs	r2, #1
 8004424:	601a      	str	r2, [r3, #0]
	  }
	  if(sendInternalTemperatureTic % 15 == 0)
 8004426:	4b1e      	ldr	r3, [pc, #120]	; (80044a0 <HAL_TIM_PeriodElapsedCallback+0x12c>)
 8004428:	681a      	ldr	r2, [r3, #0]
 800442a:	4b23      	ldr	r3, [pc, #140]	; (80044b8 <HAL_TIM_PeriodElapsedCallback+0x144>)
 800442c:	fb83 1302 	smull	r1, r3, r3, r2
 8004430:	4413      	add	r3, r2
 8004432:	10d9      	asrs	r1, r3, #3
 8004434:	17d3      	asrs	r3, r2, #31
 8004436:	1ac9      	subs	r1, r1, r3
 8004438:	460b      	mov	r3, r1
 800443a:	011b      	lsls	r3, r3, #4
 800443c:	1a5b      	subs	r3, r3, r1
 800443e:	1ad1      	subs	r1, r2, r3
 8004440:	2900      	cmp	r1, #0
 8004442:	d102      	bne.n	800444a <HAL_TIM_PeriodElapsedCallback+0xd6>
	  {
		  sendInternalTemperature = 1;
 8004444:	4b1d      	ldr	r3, [pc, #116]	; (80044bc <HAL_TIM_PeriodElapsedCallback+0x148>)
 8004446:	2201      	movs	r2, #1
 8004448:	601a      	str	r2, [r3, #0]
	  }

	  if(sendExtTempHumPressTic % 2 == 0)
 800444a:	4b16      	ldr	r3, [pc, #88]	; (80044a4 <HAL_TIM_PeriodElapsedCallback+0x130>)
 800444c:	681b      	ldr	r3, [r3, #0]
 800444e:	f003 0301 	and.w	r3, r3, #1
 8004452:	2b00      	cmp	r3, #0
 8004454:	d102      	bne.n	800445c <HAL_TIM_PeriodElapsedCallback+0xe8>
	  {
		  sendExtTempHumPress = 1;
 8004456:	4b1a      	ldr	r3, [pc, #104]	; (80044c0 <HAL_TIM_PeriodElapsedCallback+0x14c>)
 8004458:	2201      	movs	r2, #1
 800445a:	601a      	str	r2, [r3, #0]
	  }

	  if(resetTic % 5 == 0)
 800445c:	4b12      	ldr	r3, [pc, #72]	; (80044a8 <HAL_TIM_PeriodElapsedCallback+0x134>)
 800445e:	6819      	ldr	r1, [r3, #0]
 8004460:	4b12      	ldr	r3, [pc, #72]	; (80044ac <HAL_TIM_PeriodElapsedCallback+0x138>)
 8004462:	fb83 2301 	smull	r2, r3, r3, r1
 8004466:	105a      	asrs	r2, r3, #1
 8004468:	17cb      	asrs	r3, r1, #31
 800446a:	1ad2      	subs	r2, r2, r3
 800446c:	4613      	mov	r3, r2
 800446e:	009b      	lsls	r3, r3, #2
 8004470:	4413      	add	r3, r2
 8004472:	1aca      	subs	r2, r1, r3
 8004474:	2a00      	cmp	r2, #0
 8004476:	d102      	bne.n	800447e <HAL_TIM_PeriodElapsedCallback+0x10a>
	  {
		  resetSI4032 = 1;
 8004478:	4b12      	ldr	r3, [pc, #72]	; (80044c4 <HAL_TIM_PeriodElapsedCallback+0x150>)
 800447a:	2201      	movs	r2, #1
 800447c:	601a      	str	r2, [r3, #0]
	  }
  }

  /* USER CODE END Callback 1 */
}
 800447e:	bf00      	nop
 8004480:	3708      	adds	r7, #8
 8004482:	46bd      	mov	sp, r7
 8004484:	bd80      	pop	{r7, pc}
 8004486:	bf00      	nop
 8004488:	40001000 	.word	0x40001000
 800448c:	20000350 	.word	0x20000350
 8004490:	40010c00 	.word	0x40010c00
 8004494:	20000354 	.word	0x20000354
 8004498:	20000358 	.word	0x20000358
 800449c:	2000035c 	.word	0x2000035c
 80044a0:	20000360 	.word	0x20000360
 80044a4:	20000364 	.word	0x20000364
 80044a8:	20000368 	.word	0x20000368
 80044ac:	66666667 	.word	0x66666667
 80044b0:	2000001c 	.word	0x2000001c
 80044b4:	20000024 	.word	0x20000024
 80044b8:	88888889 	.word	0x88888889
 80044bc:	20000028 	.word	0x20000028
 80044c0:	2000002c 	.word	0x2000002c
 80044c4:	20000030 	.word	0x20000030

080044c8 <Error_Handler>:
/**
  * @brief  This function is executed in case of error occurrence.
  * @retval None
  */
void Error_Handler(void)
{
 80044c8:	b480      	push	{r7}
 80044ca:	af00      	add	r7, sp, #0
  \details Disables IRQ interrupts by setting the I-bit in the CPSR.
           Can only be executed in Privileged modes.
 */
__STATIC_FORCEINLINE void __disable_irq(void)
{
  __ASM volatile ("cpsid i" : : : "memory");
 80044cc:	b672      	cpsid	i
}
 80044ce:	bf00      	nop
  /* USER CODE BEGIN Error_Handler_Debug */
  /* User can add his own implementation to report the HAL error return state */
  __disable_irq();
  while (1)
 80044d0:	e7fe      	b.n	80044d0 <Error_Handler+0x8>

080044d2 <processPressure>:
#include "packetDefs.h"
#include "pressure.h"
#include "stm32f1xx_hal.h"

int processPressure(struct rscode_driver *rsDriver, float pressureParm)
{
 80044d2:	b590      	push	{r4, r7, lr}
 80044d4:	b099      	sub	sp, #100	; 0x64
 80044d6:	af00      	add	r7, sp, #0
 80044d8:	6078      	str	r0, [r7, #4]
 80044da:	6039      	str	r1, [r7, #0]
	HAL_StatusTypeDef HAL_Status;
	int status   = 1;
 80044dc:	2301      	movs	r3, #1
 80044de:	65fb      	str	r3, [r7, #92]	; 0x5c
	uint16_t len = 0;
 80044e0:	2300      	movs	r3, #0
 80044e2:	f8a7 305a 	strh.w	r3, [r7, #90]	; 0x5a
	uint8_t txBuf[MTU_SIZE];

	struct HABPacketPressureInfoDataType HABPacketPressureInfoData;

	memset(&HABPacketPressureInfoData, '\0', sizeof(HABPacketPressureInfoData));
 80044e6:	f107 0308 	add.w	r3, r7, #8
 80044ea:	2210      	movs	r2, #16
 80044ec:	2100      	movs	r1, #0
 80044ee:	4618      	mov	r0, r3
 80044f0:	f004 f85a 	bl	80085a8 <memset>

	HABPacketPressureInfoData.packetType  		= PRESS_INFO;
 80044f4:	2377      	movs	r3, #119	; 0x77
 80044f6:	813b      	strh	r3, [r7, #8]
	HABPacketPressureInfoData.pressureInfoData  = pressureParm;
 80044f8:	683b      	ldr	r3, [r7, #0]
 80044fa:	f8c7 300a 	str.w	r3, [r7, #10]

	len = sizeof(HABPacketPressureInfoData)-sizeof(HABPacketPressureInfoData.crc16)-NPAR;
 80044fe:	2306      	movs	r3, #6
 8004500:	f8a7 305a 	strh.w	r3, [r7, #90]	; 0x5a
	HABPacketPressureInfoData.crc16 = crc_16((unsigned char *)&HABPacketPressureInfoData,len);
 8004504:	f8b7 205a 	ldrh.w	r2, [r7, #90]	; 0x5a
 8004508:	f107 0308 	add.w	r3, r7, #8
 800450c:	4611      	mov	r1, r2
 800450e:	4618      	mov	r0, r3
 8004510:	f7fe fd96 	bl	8003040 <crc_16>
 8004514:	4603      	mov	r3, r0
 8004516:	81fb      	strh	r3, [r7, #14]
	rscode_encode(rsDriver, (unsigned char *)&HABPacketPressureInfoData, sizeof(HABPacketPressureInfoData)-NPAR, (unsigned char *)&HABPacketPressureInfoData);
 8004518:	f107 0308 	add.w	r3, r7, #8
 800451c:	f107 0108 	add.w	r1, r7, #8
 8004520:	2208      	movs	r2, #8
 8004522:	6878      	ldr	r0, [r7, #4]
 8004524:	f7ff f83c 	bl	80035a0 <rscode_encode>
	memcpy(txBuf,&HABPacketPressureInfoData,sizeof(HABPacketPressureInfoData));
 8004528:	f107 0418 	add.w	r4, r7, #24
 800452c:	f107 0308 	add.w	r3, r7, #8
 8004530:	cb0f      	ldmia	r3, {r0, r1, r2, r3}
 8004532:	e884 000f 	stmia.w	r4, {r0, r1, r2, r3}
	HAL_Status =  radioTxData(txBuf,sizeof(HABPacketPressureInfoData));
 8004536:	f107 0318 	add.w	r3, r7, #24
 800453a:	2110      	movs	r1, #16
 800453c:	4618      	mov	r0, r3
 800453e:	f000 fa63 	bl	8004a08 <radioTxData>
 8004542:	4603      	mov	r3, r0
 8004544:	f887 3059 	strb.w	r3, [r7, #89]	; 0x59
	HAL_Delay(PROTOCOL_DELAY);
 8004548:	2064      	movs	r0, #100	; 0x64
 800454a:	f000 ff97 	bl	800547c <HAL_Delay>
	if(HAL_Status != HAL_OK)
	{

	}

	return status;
 800454e:	6dfb      	ldr	r3, [r7, #92]	; 0x5c
}
 8004550:	4618      	mov	r0, r3
 8004552:	3764      	adds	r7, #100	; 0x64
 8004554:	46bd      	mov	sp, r7
 8004556:	bd90      	pop	{r4, r7, pc}

08004558 <setupRadio>:
#include "main.h"

static SPI_HandleTypeDef *hspi;

HAL_StatusTypeDef setupRadio(SPI_HandleTypeDef *hspiParam)
{
 8004558:	b580      	push	{r7, lr}
 800455a:	b084      	sub	sp, #16
 800455c:	af00      	add	r7, sp, #0
 800455e:	6078      	str	r0, [r7, #4]
	  HAL_StatusTypeDef HAL_Status;
	  hspi = hspiParam;
 8004560:	4a37      	ldr	r2, [pc, #220]	; (8004640 <setupRadio+0xe8>)
 8004562:	687b      	ldr	r3, [r7, #4]
 8004564:	6013      	str	r3, [r2, #0]

	  //Soft Reset
	  HAL_Status = radio_write_register(0x07, 0x80);
 8004566:	2180      	movs	r1, #128	; 0x80
 8004568:	2007      	movs	r0, #7
 800456a:	f000 f8d9 	bl	8004720 <radio_write_register>
 800456e:	4603      	mov	r3, r0
 8004570:	73fb      	strb	r3, [r7, #15]
	  HAL_Delay(1000);
 8004572:	f44f 707a 	mov.w	r0, #1000	; 0x3e8
 8004576:	f000 ff81 	bl	800547c <HAL_Delay>

	  //Set Tx Power
	  HAL_Status = radio_write_register(0x6D, 00 | (TX_POWER & 0x0007));
 800457a:	2107      	movs	r1, #7
 800457c:	206d      	movs	r0, #109	; 0x6d
 800457e:	f000 f8cf 	bl	8004720 <radio_write_register>
 8004582:	4603      	mov	r3, r0
 8004584:	73fb      	strb	r3, [r7, #15]

	  HAL_Status = radio_set_tx_frequency(TRANSMIT_FREQUENCY);
 8004586:	482f      	ldr	r0, [pc, #188]	; (8004644 <setupRadio+0xec>)
 8004588:	f000 f978 	bl	800487c <radio_set_tx_frequency>
 800458c:	4603      	mov	r3, r0
 800458e:	73fb      	strb	r3, [r7, #15]

	  //Data Rate 9.6kbps
	  HAL_Status = radio_write_register(0x6E, Si4032_TX_DATA_RATE_1);
 8004590:	2159      	movs	r1, #89	; 0x59
 8004592:	206e      	movs	r0, #110	; 0x6e
 8004594:	f000 f8c4 	bl	8004720 <radio_write_register>
 8004598:	4603      	mov	r3, r0
 800459a:	73fb      	strb	r3, [r7, #15]
	  HAL_Status = radio_write_register(0x6F, Si4032_TX_DATA_RATE_0);
 800459c:	2121      	movs	r1, #33	; 0x21
 800459e:	206f      	movs	r0, #111	; 0x6f
 80045a0:	f000 f8be 	bl	8004720 <radio_write_register>
 80045a4:	4603      	mov	r3, r0
 80045a6:	73fb      	strb	r3, [r7, #15]
	  HAL_Status = radio_write_register(0x70, Si4032_MODULATION_MODE_CONTROL_1);
 80045a8:	212c      	movs	r1, #44	; 0x2c
 80045aa:	2070      	movs	r0, #112	; 0x70
 80045ac:	f000 f8b8 	bl	8004720 <radio_write_register>
 80045b0:	4603      	mov	r3, r0
 80045b2:	73fb      	strb	r3, [r7, #15]
	  //HAL_Status = radio_write_register(0x70, 0x20);

	  // 10KHz Dev
		HAL_Status = radio_write_register(0x72, Si4032_FREQUENCY_DEVIATION);
 80045b4:	210d      	movs	r1, #13
 80045b6:	2072      	movs	r0, #114	; 0x72
 80045b8:	f000 f8b2 	bl	8004720 <radio_write_register>
 80045bc:	4603      	mov	r3, r0
 80045be:	73fb      	strb	r3, [r7, #15]

	  //Preamble
	  HAL_Status = setPreamble();
 80045c0:	f000 f860 	bl	8004684 <setPreamble>
 80045c4:	4603      	mov	r3, r0
 80045c6:	73fb      	strb	r3, [r7, #15]

	  //Header Control 2  sync b11 Fix Packet Length no header 4 sync words
	  HAL_Status = radio_write_register(0x33, 0x0E);
 80045c8:	210e      	movs	r1, #14
 80045ca:	2033      	movs	r0, #51	; 0x33
 80045cc:	f000 f8a8 	bl	8004720 <radio_write_register>
 80045d0:	4603      	mov	r3, r0
 80045d2:	73fb      	strb	r3, [r7, #15]


	  HAL_Status = radio_write_register(0x36, 0x08);
 80045d4:	2108      	movs	r1, #8
 80045d6:	2036      	movs	r0, #54	; 0x36
 80045d8:	f000 f8a2 	bl	8004720 <radio_write_register>
 80045dc:	4603      	mov	r3, r0
 80045de:	73fb      	strb	r3, [r7, #15]
	  HAL_Status = radio_write_register(0x37, 0x6D);
 80045e0:	216d      	movs	r1, #109	; 0x6d
 80045e2:	2037      	movs	r0, #55	; 0x37
 80045e4:	f000 f89c 	bl	8004720 <radio_write_register>
 80045e8:	4603      	mov	r3, r0
 80045ea:	73fb      	strb	r3, [r7, #15]
	  HAL_Status = radio_write_register(0x38, 0x53);
 80045ec:	2153      	movs	r1, #83	; 0x53
 80045ee:	2038      	movs	r0, #56	; 0x38
 80045f0:	f000 f896 	bl	8004720 <radio_write_register>
 80045f4:	4603      	mov	r3, r0
 80045f6:	73fb      	strb	r3, [r7, #15]
	  HAL_Status = radio_write_register(0x39, 0x88);
 80045f8:	2188      	movs	r1, #136	; 0x88
 80045fa:	2039      	movs	r0, #57	; 0x39
 80045fc:	f000 f890 	bl	8004720 <radio_write_register>
 8004600:	4603      	mov	r3, r0
 8004602:	73fb      	strb	r3, [r7, #15]

	  //enable the TX packet handler  CCITT
	  radio_write_register(0x30, 0x08);
 8004604:	2108      	movs	r1, #8
 8004606:	2030      	movs	r0, #48	; 0x30
 8004608:	f000 f88a 	bl	8004720 <radio_write_register>
	  //radio_write_register(0x30, 0x80); // no packet handling no CRC

	  // GFSK FIFO Mode FIFO Mode
	  HAL_Status = setGFSK();
 800460c:	f000 f82c 	bl	8004668 <setGFSK>
 8004610:	4603      	mov	r3, r0
 8004612:	73fb      	strb	r3, [r7, #15]

	  //HAL_Status = radio_write_register(0x71, 0x63);

	 //write 0x04 to the Interrupt Enable 1 register
	 HAL_Status = radio_write_register(0x05, 0x04);
 8004614:	2104      	movs	r1, #4
 8004616:	2005      	movs	r0, #5
 8004618:	f000 f882 	bl	8004720 <radio_write_register>
 800461c:	4603      	mov	r3, r0
 800461e:	73fb      	strb	r3, [r7, #15]
	 //write 0x00 to the Interrupt Enable 2 register
	 HAL_Status = radio_write_register(0x06, 0x00);
 8004620:	2100      	movs	r1, #0
 8004622:	2006      	movs	r0, #6
 8004624:	f000 f87c 	bl	8004720 <radio_write_register>
 8004628:	4603      	mov	r3, r0
 800462a:	73fb      	strb	r3, [r7, #15]

	 HAL_GPIO_WritePin(GPIOB, GREEN_LED_Pin, GPIO_PIN_RESET);
 800462c:	2200      	movs	r2, #0
 800462e:	2180      	movs	r1, #128	; 0x80
 8004630:	4805      	ldr	r0, [pc, #20]	; (8004648 <setupRadio+0xf0>)
 8004632:	f001 fdc9 	bl	80061c8 <HAL_GPIO_WritePin>

	 return HAL_Status;
 8004636:	7bfb      	ldrb	r3, [r7, #15]
}
 8004638:	4618      	mov	r0, r3
 800463a:	3710      	adds	r7, #16
 800463c:	46bd      	mov	sp, r7
 800463e:	bd80      	pop	{r7, pc}
 8004640:	20000370 	.word	0x20000370
 8004644:	43d94000 	.word	0x43d94000
 8004648:	40010c00 	.word	0x40010c00

0800464c <setCW>:

	  return HAL_Status;
}

HAL_StatusTypeDef setCW()
{
 800464c:	b580      	push	{r7, lr}
 800464e:	b082      	sub	sp, #8
 8004650:	af00      	add	r7, sp, #0
	  HAL_StatusTypeDef HAL_Status;

	  HAL_Status = radio_write_register(0x71, 0x20);
 8004652:	2120      	movs	r1, #32
 8004654:	2071      	movs	r0, #113	; 0x71
 8004656:	f000 f863 	bl	8004720 <radio_write_register>
 800465a:	4603      	mov	r3, r0
 800465c:	71fb      	strb	r3, [r7, #7]

	  return HAL_Status;
 800465e:	79fb      	ldrb	r3, [r7, #7]
}
 8004660:	4618      	mov	r0, r3
 8004662:	3708      	adds	r7, #8
 8004664:	46bd      	mov	sp, r7
 8004666:	bd80      	pop	{r7, pc}

08004668 <setGFSK>:

HAL_StatusTypeDef setGFSK()
{
 8004668:	b580      	push	{r7, lr}
 800466a:	b082      	sub	sp, #8
 800466c:	af00      	add	r7, sp, #0
	  HAL_StatusTypeDef HAL_Status;

	  // GFSK FIFO Mode FIFO Mode
	  HAL_Status = radio_write_register(0x71, Si4032_MODULATION_MODE_CONTROL_2);
 800466e:	2123      	movs	r1, #35	; 0x23
 8004670:	2071      	movs	r0, #113	; 0x71
 8004672:	f000 f855 	bl	8004720 <radio_write_register>
 8004676:	4603      	mov	r3, r0
 8004678:	71fb      	strb	r3, [r7, #7]

	  return HAL_Status;
 800467a:	79fb      	ldrb	r3, [r7, #7]
}
 800467c:	4618      	mov	r0, r3
 800467e:	3708      	adds	r7, #8
 8004680:	46bd      	mov	sp, r7
 8004682:	bd80      	pop	{r7, pc}

08004684 <setPreamble>:

HAL_StatusTypeDef setPreamble()
{
 8004684:	b580      	push	{r7, lr}
 8004686:	b082      	sub	sp, #8
 8004688:	af00      	add	r7, sp, #0
	  HAL_StatusTypeDef HAL_Status;

	  // GFSK FIFO Mode FIFO Mode
	  //Preamble
	  HAL_Status = radio_write_register(0x34, 0x10);
 800468a:	2110      	movs	r1, #16
 800468c:	2034      	movs	r0, #52	; 0x34
 800468e:	f000 f847 	bl	8004720 <radio_write_register>
 8004692:	4603      	mov	r3, r0
 8004694:	71fb      	strb	r3, [r7, #7]

	  return HAL_Status;
 8004696:	79fb      	ldrb	r3, [r7, #7]
}
 8004698:	4618      	mov	r0, r3
 800469a:	3708      	adds	r7, #8
 800469c:	46bd      	mov	sp, r7
 800469e:	bd80      	pop	{r7, pc}

080046a0 <radio_read_register>:

HAL_StatusTypeDef radio_read_register(const uint8_t register_addr, uint8_t *pData)
{
 80046a0:	b580      	push	{r7, lr}
 80046a2:	b084      	sub	sp, #16
 80046a4:	af00      	add	r7, sp, #0
 80046a6:	4603      	mov	r3, r0
 80046a8:	6039      	str	r1, [r7, #0]
 80046aa:	71fb      	strb	r3, [r7, #7]
  HAL_StatusTypeDef HAL_Status;
  uint16_t data_word;
  uint8_t addr;
  uint8_t val;

  HAL_GPIO_WritePin(RADIO_NSS_GPIO_Port, RADIO_NSS_Pin, GPIO_PIN_RESET);
 80046ac:	2200      	movs	r2, #0
 80046ae:	f44f 5100 	mov.w	r1, #8192	; 0x2000
 80046b2:	4819      	ldr	r0, [pc, #100]	; (8004718 <radio_read_register+0x78>)
 80046b4:	f001 fd88 	bl	80061c8 <HAL_GPIO_WritePin>

  data_word = ((register_addr | 0x0) << 8);
 80046b8:	79fb      	ldrb	r3, [r7, #7]
 80046ba:	b29b      	uxth	r3, r3
 80046bc:	021b      	lsls	r3, r3, #8
 80046be:	81fb      	strh	r3, [r7, #14]
  addr = data_word >> 8;
 80046c0:	89fb      	ldrh	r3, [r7, #14]
 80046c2:	0a1b      	lsrs	r3, r3, #8
 80046c4:	b29b      	uxth	r3, r3
 80046c6:	b2db      	uxtb	r3, r3
 80046c8:	733b      	strb	r3, [r7, #12]

  HAL_Status = HAL_SPI_Transmit(hspi, (uint8_t *)&addr, 1, 1000);
 80046ca:	4b14      	ldr	r3, [pc, #80]	; (800471c <radio_read_register+0x7c>)
 80046cc:	6818      	ldr	r0, [r3, #0]
 80046ce:	f107 010c 	add.w	r1, r7, #12
 80046d2:	f44f 737a 	mov.w	r3, #1000	; 0x3e8
 80046d6:	2201      	movs	r2, #1
 80046d8:	f002 fb3a 	bl	8006d50 <HAL_SPI_Transmit>
 80046dc:	4603      	mov	r3, r0
 80046de:	737b      	strb	r3, [r7, #13]
  HAL_Delay(1);
 80046e0:	2001      	movs	r0, #1
 80046e2:	f000 fecb 	bl	800547c <HAL_Delay>
  HAL_Status = HAL_SPI_Receive(hspi, &val, 1, 1000);
 80046e6:	4b0d      	ldr	r3, [pc, #52]	; (800471c <radio_read_register+0x7c>)
 80046e8:	6818      	ldr	r0, [r3, #0]
 80046ea:	f107 010b 	add.w	r1, r7, #11
 80046ee:	f44f 737a 	mov.w	r3, #1000	; 0x3e8
 80046f2:	2201      	movs	r2, #1
 80046f4:	f002 fc68 	bl	8006fc8 <HAL_SPI_Receive>
 80046f8:	4603      	mov	r3, r0
 80046fa:	737b      	strb	r3, [r7, #13]
 80046fc:	7afa      	ldrb	r2, [r7, #11]

  memcpy(pData,&val,1);
 80046fe:	683b      	ldr	r3, [r7, #0]
 8004700:	701a      	strb	r2, [r3, #0]

  HAL_GPIO_WritePin(RADIO_NSS_GPIO_Port, RADIO_NSS_Pin, GPIO_PIN_SET);
 8004702:	2201      	movs	r2, #1
 8004704:	f44f 5100 	mov.w	r1, #8192	; 0x2000
 8004708:	4803      	ldr	r0, [pc, #12]	; (8004718 <radio_read_register+0x78>)
 800470a:	f001 fd5d 	bl	80061c8 <HAL_GPIO_WritePin>

  return HAL_Status;
 800470e:	7b7b      	ldrb	r3, [r7, #13]
}
 8004710:	4618      	mov	r0, r3
 8004712:	3710      	adds	r7, #16
 8004714:	46bd      	mov	sp, r7
 8004716:	bd80      	pop	{r7, pc}
 8004718:	40011000 	.word	0x40011000
 800471c:	20000370 	.word	0x20000370

08004720 <radio_write_register>:

HAL_StatusTypeDef radio_write_register(const uint8_t register_addr, uint8_t value)
{
 8004720:	b580      	push	{r7, lr}
 8004722:	b084      	sub	sp, #16
 8004724:	af00      	add	r7, sp, #0
 8004726:	4603      	mov	r3, r0
 8004728:	460a      	mov	r2, r1
 800472a:	71fb      	strb	r3, [r7, #7]
 800472c:	4613      	mov	r3, r2
 800472e:	71bb      	strb	r3, [r7, #6]
  HAL_StatusTypeDef HAL_Status;

  uint8_t WR = 0x80;
 8004730:	2380      	movs	r3, #128	; 0x80
 8004732:	73fb      	strb	r3, [r7, #15]
  uint16_t data_word;
  uint8_t addr;
  uint8_t val;

  HAL_GPIO_WritePin(RADIO_NSS_GPIO_Port, RADIO_NSS_Pin, GPIO_PIN_RESET);
 8004734:	2200      	movs	r2, #0
 8004736:	f44f 5100 	mov.w	r1, #8192	; 0x2000
 800473a:	481d      	ldr	r0, [pc, #116]	; (80047b0 <radio_write_register+0x90>)
 800473c:	f001 fd44 	bl	80061c8 <HAL_GPIO_WritePin>

  data_word = ((register_addr | WR) << 8) | value;
 8004740:	79fa      	ldrb	r2, [r7, #7]
 8004742:	7bfb      	ldrb	r3, [r7, #15]
 8004744:	4313      	orrs	r3, r2
 8004746:	b2db      	uxtb	r3, r3
 8004748:	021b      	lsls	r3, r3, #8
 800474a:	b21a      	sxth	r2, r3
 800474c:	79bb      	ldrb	r3, [r7, #6]
 800474e:	b21b      	sxth	r3, r3
 8004750:	4313      	orrs	r3, r2
 8004752:	b21b      	sxth	r3, r3
 8004754:	81bb      	strh	r3, [r7, #12]
  addr = data_word >> 8;
 8004756:	89bb      	ldrh	r3, [r7, #12]
 8004758:	0a1b      	lsrs	r3, r3, #8
 800475a:	b29b      	uxth	r3, r3
 800475c:	b2db      	uxtb	r3, r3
 800475e:	72bb      	strb	r3, [r7, #10]
  val  = (uint8_t)data_word;
 8004760:	89bb      	ldrh	r3, [r7, #12]
 8004762:	b2db      	uxtb	r3, r3
 8004764:	727b      	strb	r3, [r7, #9]


  HAL_Status = HAL_SPI_Transmit(hspi, (uint8_t *)&addr, 1, 1000);
 8004766:	4b13      	ldr	r3, [pc, #76]	; (80047b4 <radio_write_register+0x94>)
 8004768:	6818      	ldr	r0, [r3, #0]
 800476a:	f107 010a 	add.w	r1, r7, #10
 800476e:	f44f 737a 	mov.w	r3, #1000	; 0x3e8
 8004772:	2201      	movs	r2, #1
 8004774:	f002 faec 	bl	8006d50 <HAL_SPI_Transmit>
 8004778:	4603      	mov	r3, r0
 800477a:	72fb      	strb	r3, [r7, #11]
  HAL_Delay(1);
 800477c:	2001      	movs	r0, #1
 800477e:	f000 fe7d 	bl	800547c <HAL_Delay>
  HAL_Status = HAL_SPI_Transmit(hspi, (uint8_t *)&val, 1, 1000);
 8004782:	4b0c      	ldr	r3, [pc, #48]	; (80047b4 <radio_write_register+0x94>)
 8004784:	6818      	ldr	r0, [r3, #0]
 8004786:	f107 0109 	add.w	r1, r7, #9
 800478a:	f44f 737a 	mov.w	r3, #1000	; 0x3e8
 800478e:	2201      	movs	r2, #1
 8004790:	f002 fade 	bl	8006d50 <HAL_SPI_Transmit>
 8004794:	4603      	mov	r3, r0
 8004796:	72fb      	strb	r3, [r7, #11]

  HAL_GPIO_WritePin(RADIO_NSS_GPIO_Port, RADIO_NSS_Pin, GPIO_PIN_SET);
 8004798:	2201      	movs	r2, #1
 800479a:	f44f 5100 	mov.w	r1, #8192	; 0x2000
 800479e:	4804      	ldr	r0, [pc, #16]	; (80047b0 <radio_write_register+0x90>)
 80047a0:	f001 fd12 	bl	80061c8 <HAL_GPIO_WritePin>

  return HAL_Status;
 80047a4:	7afb      	ldrb	r3, [r7, #11]
}
 80047a6:	4618      	mov	r0, r3
 80047a8:	3710      	adds	r7, #16
 80047aa:	46bd      	mov	sp, r7
 80047ac:	bd80      	pop	{r7, pc}
 80047ae:	bf00      	nop
 80047b0:	40011000 	.word	0x40011000
 80047b4:	20000370 	.word	0x20000370

080047b8 <radio_write_register_burst>:

HAL_StatusTypeDef radio_write_register_burst(const uint8_t register_addr, uint8_t txData[],uint8_t len)
{
 80047b8:	b580      	push	{r7, lr}
 80047ba:	b086      	sub	sp, #24
 80047bc:	af00      	add	r7, sp, #0
 80047be:	4603      	mov	r3, r0
 80047c0:	6039      	str	r1, [r7, #0]
 80047c2:	71fb      	strb	r3, [r7, #7]
 80047c4:	4613      	mov	r3, r2
 80047c6:	71bb      	strb	r3, [r7, #6]
  HAL_StatusTypeDef HAL_Status;

  uint8_t WR = 0x80;
 80047c8:	2380      	movs	r3, #128	; 0x80
 80047ca:	73fb      	strb	r3, [r7, #15]
  uint16_t data_word;
  uint8_t addr;
  uint8_t val;
  int i;

  HAL_GPIO_WritePin(RADIO_NSS_GPIO_Port, RADIO_NSS_Pin, GPIO_PIN_RESET);
 80047cc:	2200      	movs	r2, #0
 80047ce:	f44f 5100 	mov.w	r1, #8192	; 0x2000
 80047d2:	4828      	ldr	r0, [pc, #160]	; (8004874 <radio_write_register_burst+0xbc>)
 80047d4:	f001 fcf8 	bl	80061c8 <HAL_GPIO_WritePin>

  data_word = ((register_addr | WR) << 8) | txData[0];
 80047d8:	79fa      	ldrb	r2, [r7, #7]
 80047da:	7bfb      	ldrb	r3, [r7, #15]
 80047dc:	4313      	orrs	r3, r2
 80047de:	b2db      	uxtb	r3, r3
 80047e0:	021b      	lsls	r3, r3, #8
 80047e2:	b21a      	sxth	r2, r3
 80047e4:	683b      	ldr	r3, [r7, #0]
 80047e6:	781b      	ldrb	r3, [r3, #0]
 80047e8:	b21b      	sxth	r3, r3
 80047ea:	4313      	orrs	r3, r2
 80047ec:	b21b      	sxth	r3, r3
 80047ee:	81bb      	strh	r3, [r7, #12]
  addr = data_word >> 8;
 80047f0:	89bb      	ldrh	r3, [r7, #12]
 80047f2:	0a1b      	lsrs	r3, r3, #8
 80047f4:	b29b      	uxth	r3, r3
 80047f6:	b2db      	uxtb	r3, r3
 80047f8:	72fb      	strb	r3, [r7, #11]
  val  = (uint8_t)data_word;
 80047fa:	89bb      	ldrh	r3, [r7, #12]
 80047fc:	b2db      	uxtb	r3, r3
 80047fe:	72bb      	strb	r3, [r7, #10]


  HAL_Status = HAL_SPI_Transmit(hspi, (uint8_t *)&addr, 1, 1000);
 8004800:	4b1d      	ldr	r3, [pc, #116]	; (8004878 <radio_write_register_burst+0xc0>)
 8004802:	6818      	ldr	r0, [r3, #0]
 8004804:	f107 010b 	add.w	r1, r7, #11
 8004808:	f44f 737a 	mov.w	r3, #1000	; 0x3e8
 800480c:	2201      	movs	r2, #1
 800480e:	f002 fa9f 	bl	8006d50 <HAL_SPI_Transmit>
 8004812:	4603      	mov	r3, r0
 8004814:	75fb      	strb	r3, [r7, #23]
  HAL_Delay(1);
 8004816:	2001      	movs	r0, #1
 8004818:	f000 fe30 	bl	800547c <HAL_Delay>
  HAL_Status = HAL_SPI_Transmit(hspi, (uint8_t *)&val, 1, 1000);
 800481c:	4b16      	ldr	r3, [pc, #88]	; (8004878 <radio_write_register_burst+0xc0>)
 800481e:	6818      	ldr	r0, [r3, #0]
 8004820:	f107 010a 	add.w	r1, r7, #10
 8004824:	f44f 737a 	mov.w	r3, #1000	; 0x3e8
 8004828:	2201      	movs	r2, #1
 800482a:	f002 fa91 	bl	8006d50 <HAL_SPI_Transmit>
 800482e:	4603      	mov	r3, r0
 8004830:	75fb      	strb	r3, [r7, #23]

  for(i=1;i<len;i++)
 8004832:	2301      	movs	r3, #1
 8004834:	613b      	str	r3, [r7, #16]
 8004836:	e00e      	b.n	8004856 <radio_write_register_burst+0x9e>
  {
	  HAL_Status = HAL_SPI_Transmit(hspi, (uint8_t *)&txData[i], 1, 1000);
 8004838:	4b0f      	ldr	r3, [pc, #60]	; (8004878 <radio_write_register_burst+0xc0>)
 800483a:	6818      	ldr	r0, [r3, #0]
 800483c:	693b      	ldr	r3, [r7, #16]
 800483e:	683a      	ldr	r2, [r7, #0]
 8004840:	18d1      	adds	r1, r2, r3
 8004842:	f44f 737a 	mov.w	r3, #1000	; 0x3e8
 8004846:	2201      	movs	r2, #1
 8004848:	f002 fa82 	bl	8006d50 <HAL_SPI_Transmit>
 800484c:	4603      	mov	r3, r0
 800484e:	75fb      	strb	r3, [r7, #23]
  for(i=1;i<len;i++)
 8004850:	693b      	ldr	r3, [r7, #16]
 8004852:	3301      	adds	r3, #1
 8004854:	613b      	str	r3, [r7, #16]
 8004856:	79bb      	ldrb	r3, [r7, #6]
 8004858:	693a      	ldr	r2, [r7, #16]
 800485a:	429a      	cmp	r2, r3
 800485c:	dbec      	blt.n	8004838 <radio_write_register_burst+0x80>
  }

  HAL_GPIO_WritePin(RADIO_NSS_GPIO_Port, RADIO_NSS_Pin, GPIO_PIN_SET);
 800485e:	2201      	movs	r2, #1
 8004860:	f44f 5100 	mov.w	r1, #8192	; 0x2000
 8004864:	4803      	ldr	r0, [pc, #12]	; (8004874 <radio_write_register_burst+0xbc>)
 8004866:	f001 fcaf 	bl	80061c8 <HAL_GPIO_WritePin>

  return HAL_Status;
 800486a:	7dfb      	ldrb	r3, [r7, #23]
}
 800486c:	4618      	mov	r0, r3
 800486e:	3718      	adds	r7, #24
 8004870:	46bd      	mov	sp, r7
 8004872:	bd80      	pop	{r7, pc}
 8004874:	40011000 	.word	0x40011000
 8004878:	20000370 	.word	0x20000370

0800487c <radio_set_tx_frequency>:

HAL_StatusTypeDef radio_set_tx_frequency(float freq_in_mhz)
{
 800487c:	b590      	push	{r4, r7, lr}
 800487e:	b087      	sub	sp, #28
 8004880:	af00      	add	r7, sp, #0
 8004882:	6078      	str	r0, [r7, #4]
  HAL_StatusTypeDef HAL_Status;
  float SI4032_CLOCK = 26.0;
 8004884:	4b5a      	ldr	r3, [pc, #360]	; (80049f0 <radio_set_tx_frequency+0x174>)
 8004886:	617b      	str	r3, [r7, #20]

  uint8_t hbsel = (uint8_t) ((freq_in_mhz * (30.0f / SI4032_CLOCK)) >= 480.0f ? 1 : 0);
 8004888:	6979      	ldr	r1, [r7, #20]
 800488a:	485a      	ldr	r0, [pc, #360]	; (80049f4 <radio_set_tx_frequency+0x178>)
 800488c:	f7fc faa8 	bl	8000de0 <__aeabi_fdiv>
 8004890:	4603      	mov	r3, r0
 8004892:	6879      	ldr	r1, [r7, #4]
 8004894:	4618      	mov	r0, r3
 8004896:	f7fc f9ef 	bl	8000c78 <__aeabi_fmul>
 800489a:	4603      	mov	r3, r0
 800489c:	4956      	ldr	r1, [pc, #344]	; (80049f8 <radio_set_tx_frequency+0x17c>)
 800489e:	4618      	mov	r0, r3
 80048a0:	f7fc fb9c 	bl	8000fdc <__aeabi_fcmpge>
 80048a4:	4603      	mov	r3, r0
 80048a6:	2b00      	cmp	r3, #0
 80048a8:	d001      	beq.n	80048ae <radio_set_tx_frequency+0x32>
 80048aa:	2301      	movs	r3, #1
 80048ac:	e000      	b.n	80048b0 <radio_set_tx_frequency+0x34>
 80048ae:	2300      	movs	r3, #0
 80048b0:	74fb      	strb	r3, [r7, #19]

  uint8_t fb = (uint8_t) ((((uint8_t)((freq_in_mhz * (30.0f / SI4032_CLOCK)) / 10) - 24) - (24 * hbsel)) / (1 + hbsel));
 80048b2:	6979      	ldr	r1, [r7, #20]
 80048b4:	484f      	ldr	r0, [pc, #316]	; (80049f4 <radio_set_tx_frequency+0x178>)
 80048b6:	f7fc fa93 	bl	8000de0 <__aeabi_fdiv>
 80048ba:	4603      	mov	r3, r0
 80048bc:	6879      	ldr	r1, [r7, #4]
 80048be:	4618      	mov	r0, r3
 80048c0:	f7fc f9da 	bl	8000c78 <__aeabi_fmul>
 80048c4:	4603      	mov	r3, r0
 80048c6:	494d      	ldr	r1, [pc, #308]	; (80049fc <radio_set_tx_frequency+0x180>)
 80048c8:	4618      	mov	r0, r3
 80048ca:	f7fc fa89 	bl	8000de0 <__aeabi_fdiv>
 80048ce:	4603      	mov	r3, r0
 80048d0:	4618      	mov	r0, r3
 80048d2:	f7fc fb97 	bl	8001004 <__aeabi_f2uiz>
 80048d6:	4603      	mov	r3, r0
 80048d8:	b2db      	uxtb	r3, r3
 80048da:	f1a3 0118 	sub.w	r1, r3, #24
 80048de:	7cfa      	ldrb	r2, [r7, #19]
 80048e0:	4613      	mov	r3, r2
 80048e2:	0092      	lsls	r2, r2, #2
 80048e4:	1a9b      	subs	r3, r3, r2
 80048e6:	00db      	lsls	r3, r3, #3
 80048e8:	18ca      	adds	r2, r1, r3
 80048ea:	7cfb      	ldrb	r3, [r7, #19]
 80048ec:	3301      	adds	r3, #1
 80048ee:	fb92 f3f3 	sdiv	r3, r2, r3
 80048f2:	74bb      	strb	r3, [r7, #18]
  uint8_t gen_div  =  3;  // constant - not possible to change!
 80048f4:	2303      	movs	r3, #3
 80048f6:	747b      	strb	r3, [r7, #17]
  uint16_t fc = (uint16_t) (((freq_in_mhz / ((SI4032_CLOCK / gen_div) * (hbsel + 1))) - fb - 24) * 64000);
 80048f8:	7c7b      	ldrb	r3, [r7, #17]
 80048fa:	4618      	mov	r0, r3
 80048fc:	f7fc f968 	bl	8000bd0 <__aeabi_i2f>
 8004900:	4603      	mov	r3, r0
 8004902:	4619      	mov	r1, r3
 8004904:	6978      	ldr	r0, [r7, #20]
 8004906:	f7fc fa6b 	bl	8000de0 <__aeabi_fdiv>
 800490a:	4603      	mov	r3, r0
 800490c:	461c      	mov	r4, r3
 800490e:	7cfb      	ldrb	r3, [r7, #19]
 8004910:	3301      	adds	r3, #1
 8004912:	4618      	mov	r0, r3
 8004914:	f7fc f95c 	bl	8000bd0 <__aeabi_i2f>
 8004918:	4603      	mov	r3, r0
 800491a:	4619      	mov	r1, r3
 800491c:	4620      	mov	r0, r4
 800491e:	f7fc f9ab 	bl	8000c78 <__aeabi_fmul>
 8004922:	4603      	mov	r3, r0
 8004924:	4619      	mov	r1, r3
 8004926:	6878      	ldr	r0, [r7, #4]
 8004928:	f7fc fa5a 	bl	8000de0 <__aeabi_fdiv>
 800492c:	4603      	mov	r3, r0
 800492e:	461c      	mov	r4, r3
 8004930:	7cbb      	ldrb	r3, [r7, #18]
 8004932:	4618      	mov	r0, r3
 8004934:	f7fc f94c 	bl	8000bd0 <__aeabi_i2f>
 8004938:	4603      	mov	r3, r0
 800493a:	4619      	mov	r1, r3
 800493c:	4620      	mov	r0, r4
 800493e:	f7fc f891 	bl	8000a64 <__aeabi_fsub>
 8004942:	4603      	mov	r3, r0
 8004944:	492e      	ldr	r1, [pc, #184]	; (8004a00 <radio_set_tx_frequency+0x184>)
 8004946:	4618      	mov	r0, r3
 8004948:	f7fc f88c 	bl	8000a64 <__aeabi_fsub>
 800494c:	4603      	mov	r3, r0
 800494e:	492d      	ldr	r1, [pc, #180]	; (8004a04 <radio_set_tx_frequency+0x188>)
 8004950:	4618      	mov	r0, r3
 8004952:	f7fc f991 	bl	8000c78 <__aeabi_fmul>
 8004956:	4603      	mov	r3, r0
 8004958:	4618      	mov	r0, r3
 800495a:	f7fc fb53 	bl	8001004 <__aeabi_f2uiz>
 800495e:	4603      	mov	r3, r0
 8004960:	81fb      	strh	r3, [r7, #14]
  HAL_Status = radio_write_register(0x75, (uint8_t) (0b01000000 | (fb & 0b11111) | ((hbsel & 0b1) << 5)));
 8004962:	f997 3012 	ldrsb.w	r3, [r7, #18]
 8004966:	f003 031f 	and.w	r3, r3, #31
 800496a:	b25b      	sxtb	r3, r3
 800496c:	f043 0340 	orr.w	r3, r3, #64	; 0x40
 8004970:	b25a      	sxtb	r2, r3
 8004972:	7cfb      	ldrb	r3, [r7, #19]
 8004974:	015b      	lsls	r3, r3, #5
 8004976:	b25b      	sxtb	r3, r3
 8004978:	f003 0320 	and.w	r3, r3, #32
 800497c:	b25b      	sxtb	r3, r3
 800497e:	4313      	orrs	r3, r2
 8004980:	b25b      	sxtb	r3, r3
 8004982:	b2db      	uxtb	r3, r3
 8004984:	4619      	mov	r1, r3
 8004986:	2075      	movs	r0, #117	; 0x75
 8004988:	f7ff feca 	bl	8004720 <radio_write_register>
 800498c:	4603      	mov	r3, r0
 800498e:	737b      	strb	r3, [r7, #13]
  HAL_Status = radio_write_register(0x76, (uint8_t) (((uint16_t)fc >> 8) & 0xff));
 8004990:	89fb      	ldrh	r3, [r7, #14]
 8004992:	0a1b      	lsrs	r3, r3, #8
 8004994:	b29b      	uxth	r3, r3
 8004996:	b2db      	uxtb	r3, r3
 8004998:	4619      	mov	r1, r3
 800499a:	2076      	movs	r0, #118	; 0x76
 800499c:	f7ff fec0 	bl	8004720 <radio_write_register>
 80049a0:	4603      	mov	r3, r0
 80049a2:	737b      	strb	r3, [r7, #13]
  HAL_Status = radio_write_register(0x77, (uint8_t) ((uint16_t)fc & 0xff));
 80049a4:	89fb      	ldrh	r3, [r7, #14]
 80049a6:	b2db      	uxtb	r3, r3
 80049a8:	4619      	mov	r1, r3
 80049aa:	2077      	movs	r0, #119	; 0x77
 80049ac:	f7ff feb8 	bl	8004720 <radio_write_register>
 80049b0:	4603      	mov	r3, r0
 80049b2:	737b      	strb	r3, [r7, #13]

  HAL_Status = radio_write_register(0x73, Si4032_FREQUENCY_OFFSET_1);
 80049b4:	2100      	movs	r1, #0
 80049b6:	2073      	movs	r0, #115	; 0x73
 80049b8:	f7ff feb2 	bl	8004720 <radio_write_register>
 80049bc:	4603      	mov	r3, r0
 80049be:	737b      	strb	r3, [r7, #13]
  HAL_Status = radio_write_register(0x74, Si4032_FREQUENCY_OFFSET_2);
 80049c0:	2100      	movs	r1, #0
 80049c2:	2074      	movs	r0, #116	; 0x74
 80049c4:	f7ff feac 	bl	8004720 <radio_write_register>
 80049c8:	4603      	mov	r3, r0
 80049ca:	737b      	strb	r3, [r7, #13]
  HAL_Status = radio_write_register(0x7A, Si4032_FREQUENCY_HOPPING_STEP_SIZE);
 80049cc:	2100      	movs	r1, #0
 80049ce:	207a      	movs	r0, #122	; 0x7a
 80049d0:	f7ff fea6 	bl	8004720 <radio_write_register>
 80049d4:	4603      	mov	r3, r0
 80049d6:	737b      	strb	r3, [r7, #13]
  HAL_Status = radio_write_register(0x79, Si4032_FREQUENCY_HOPPING_CHANNEL);
 80049d8:	2100      	movs	r1, #0
 80049da:	2079      	movs	r0, #121	; 0x79
 80049dc:	f7ff fea0 	bl	8004720 <radio_write_register>
 80049e0:	4603      	mov	r3, r0
 80049e2:	737b      	strb	r3, [r7, #13]

  return HAL_Status;
 80049e4:	7b7b      	ldrb	r3, [r7, #13]
}
 80049e6:	4618      	mov	r0, r3
 80049e8:	371c      	adds	r7, #28
 80049ea:	46bd      	mov	sp, r7
 80049ec:	bd90      	pop	{r4, r7, pc}
 80049ee:	bf00      	nop
 80049f0:	41d00000 	.word	0x41d00000
 80049f4:	41f00000 	.word	0x41f00000
 80049f8:	43f00000 	.word	0x43f00000
 80049fc:	41200000 	.word	0x41200000
 8004a00:	41c00000 	.word	0x41c00000
 8004a04:	477a0000 	.word	0x477a0000

08004a08 <radioTxData>:

HAL_StatusTypeDef radioTxData(uint8_t txData[],uint8_t len)
{
 8004a08:	b580      	push	{r7, lr}
 8004a0a:	b084      	sub	sp, #16
 8004a0c:	af00      	add	r7, sp, #0
 8004a0e:	6078      	str	r0, [r7, #4]
 8004a10:	460b      	mov	r3, r1
 8004a12:	70fb      	strb	r3, [r7, #3]
	HAL_StatusTypeDef HAL_Status;
	uint8_t  regData;
	int retryCount = 0;
 8004a14:	2300      	movs	r3, #0
 8004a16:	60fb      	str	r3, [r7, #12]

	HAL_Status = radio_write_register(0x3E, len);
 8004a18:	78fb      	ldrb	r3, [r7, #3]
 8004a1a:	4619      	mov	r1, r3
 8004a1c:	203e      	movs	r0, #62	; 0x3e
 8004a1e:	f7ff fe7f 	bl	8004720 <radio_write_register>
 8004a22:	4603      	mov	r3, r0
 8004a24:	72fb      	strb	r3, [r7, #11]
	HAL_Status = radio_write_register_burst(0x7F, &txData[0],len);
 8004a26:	78fb      	ldrb	r3, [r7, #3]
 8004a28:	461a      	mov	r2, r3
 8004a2a:	6879      	ldr	r1, [r7, #4]
 8004a2c:	207f      	movs	r0, #127	; 0x7f
 8004a2e:	f7ff fec3 	bl	80047b8 <radio_write_register_burst>
 8004a32:	4603      	mov	r3, r0
 8004a34:	72fb      	strb	r3, [r7, #11]

	//read the Interrupt Status1 register
	HAL_Status =  radio_read_register(0x3,&regData);
 8004a36:	f107 030a 	add.w	r3, r7, #10
 8004a3a:	4619      	mov	r1, r3
 8004a3c:	2003      	movs	r0, #3
 8004a3e:	f7ff fe2f 	bl	80046a0 <radio_read_register>
 8004a42:	4603      	mov	r3, r0
 8004a44:	72fb      	strb	r3, [r7, #11]
	//read the Interrupt Status2 register
	HAL_Status =  radio_read_register(0x4,&regData);
 8004a46:	f107 030a 	add.w	r3, r7, #10
 8004a4a:	4619      	mov	r1, r3
 8004a4c:	2004      	movs	r0, #4
 8004a4e:	f7ff fe27 	bl	80046a0 <radio_read_register>
 8004a52:	4603      	mov	r3, r0
 8004a54:	72fb      	strb	r3, [r7, #11]

	HAL_GPIO_WritePin(GPIOB, RED_LED_Pin, GPIO_PIN_RESET);
 8004a56:	2200      	movs	r2, #0
 8004a58:	f44f 7180 	mov.w	r1, #256	; 0x100
 8004a5c:	4818      	ldr	r0, [pc, #96]	; (8004ac0 <radioTxData+0xb8>)
 8004a5e:	f001 fbb3 	bl	80061c8 <HAL_GPIO_WritePin>
	HAL_Status = radio_write_register(0x07, Si4032_OPERATING_AND_FUNCTION_CONTROL_1);
 8004a62:	2108      	movs	r1, #8
 8004a64:	2007      	movs	r0, #7
 8004a66:	f7ff fe5b 	bl	8004720 <radio_write_register>
 8004a6a:	4603      	mov	r3, r0
 8004a6c:	72fb      	strb	r3, [r7, #11]
	//HAL_Status = radio_write_register(0x07, 0x09);
	regData = 0;
 8004a6e:	2300      	movs	r3, #0
 8004a70:	72bb      	strb	r3, [r7, #10]
	while((regData & 0x04) != 0x4 && (retryCount < 50))
 8004a72:	e00a      	b.n	8004a8a <radioTxData+0x82>
	{
		//read the Interrupt Status1 register
		HAL_Status =  radio_read_register(0x3,&regData);
 8004a74:	f107 030a 	add.w	r3, r7, #10
 8004a78:	4619      	mov	r1, r3
 8004a7a:	2003      	movs	r0, #3
 8004a7c:	f7ff fe10 	bl	80046a0 <radio_read_register>
 8004a80:	4603      	mov	r3, r0
 8004a82:	72fb      	strb	r3, [r7, #11]
		retryCount++;
 8004a84:	68fb      	ldr	r3, [r7, #12]
 8004a86:	3301      	adds	r3, #1
 8004a88:	60fb      	str	r3, [r7, #12]
	while((regData & 0x04) != 0x4 && (retryCount < 50))
 8004a8a:	7abb      	ldrb	r3, [r7, #10]
 8004a8c:	f003 0304 	and.w	r3, r3, #4
 8004a90:	2b00      	cmp	r3, #0
 8004a92:	d102      	bne.n	8004a9a <radioTxData+0x92>
 8004a94:	68fb      	ldr	r3, [r7, #12]
 8004a96:	2b31      	cmp	r3, #49	; 0x31
 8004a98:	ddec      	ble.n	8004a74 <radioTxData+0x6c>
//		{
//			HAL_Delay(PROTOCOL_DELAY*3);
//		}
	}

	HAL_GPIO_WritePin(GPIOB, RED_LED_Pin, GPIO_PIN_SET);
 8004a9a:	2201      	movs	r2, #1
 8004a9c:	f44f 7180 	mov.w	r1, #256	; 0x100
 8004aa0:	4807      	ldr	r0, [pc, #28]	; (8004ac0 <radioTxData+0xb8>)
 8004aa2:	f001 fb91 	bl	80061c8 <HAL_GPIO_WritePin>

	//read the Interrupt Status2 register
	HAL_Status =  radio_read_register(0x4,&regData);
 8004aa6:	f107 030a 	add.w	r3, r7, #10
 8004aaa:	4619      	mov	r1, r3
 8004aac:	2004      	movs	r0, #4
 8004aae:	f7ff fdf7 	bl	80046a0 <radio_read_register>
 8004ab2:	4603      	mov	r3, r0
 8004ab4:	72fb      	strb	r3, [r7, #11]

	return HAL_Status;
 8004ab6:	7afb      	ldrb	r3, [r7, #11]

}
 8004ab8:	4618      	mov	r0, r3
 8004aba:	3710      	adds	r7, #16
 8004abc:	46bd      	mov	sp, r7
 8004abe:	bd80      	pop	{r7, pc}
 8004ac0:	40010c00 	.word	0x40010c00

08004ac4 <initialize_ecc>:
compute_genpoly (struct rscode_driver * driver, int nbytes, int * genpoly);

/* Initialize lookup tables, polynomials, etc. */
void
initialize_ecc (struct rscode_driver * driver)
{
 8004ac4:	b580      	push	{r7, lr}
 8004ac6:	b082      	sub	sp, #8
 8004ac8:	af00      	add	r7, sp, #0
 8004aca:	6078      	str	r0, [r7, #4]
  /* Compute the encoder generator polynomial */
  compute_genpoly(driver, NPAR, driver->genPoly);
 8004acc:	687b      	ldr	r3, [r7, #4]
 8004ace:	461a      	mov	r2, r3
 8004ad0:	2108      	movs	r1, #8
 8004ad2:	6878      	ldr	r0, [r7, #4]
 8004ad4:	f000 f856 	bl	8004b84 <compute_genpoly>
}
 8004ad8:	bf00      	nop
 8004ada:	3708      	adds	r7, #8
 8004adc:	46bd      	mov	sp, r7
 8004ade:	bd80      	pop	{r7, pc}

08004ae0 <zero_fill_from>:

void
zero_fill_from (unsigned char * buf, int from, int to)
{
 8004ae0:	b480      	push	{r7}
 8004ae2:	b087      	sub	sp, #28
 8004ae4:	af00      	add	r7, sp, #0
 8004ae6:	60f8      	str	r0, [r7, #12]
 8004ae8:	60b9      	str	r1, [r7, #8]
 8004aea:	607a      	str	r2, [r7, #4]
  int i;
  for (i = from; i < to; i++) buf[i] = 0;
 8004aec:	68bb      	ldr	r3, [r7, #8]
 8004aee:	617b      	str	r3, [r7, #20]
 8004af0:	e007      	b.n	8004b02 <zero_fill_from+0x22>
 8004af2:	697b      	ldr	r3, [r7, #20]
 8004af4:	68fa      	ldr	r2, [r7, #12]
 8004af6:	4413      	add	r3, r2
 8004af8:	2200      	movs	r2, #0
 8004afa:	701a      	strb	r2, [r3, #0]
 8004afc:	697b      	ldr	r3, [r7, #20]
 8004afe:	3301      	adds	r3, #1
 8004b00:	617b      	str	r3, [r7, #20]
 8004b02:	697a      	ldr	r2, [r7, #20]
 8004b04:	687b      	ldr	r3, [r7, #4]
 8004b06:	429a      	cmp	r2, r3
 8004b08:	dbf3      	blt.n	8004af2 <zero_fill_from+0x12>
}
 8004b0a:	bf00      	nop
 8004b0c:	bf00      	nop
 8004b0e:	371c      	adds	r7, #28
 8004b10:	46bd      	mov	sp, r7
 8004b12:	bc80      	pop	{r7}
 8004b14:	4770      	bx	lr

08004b16 <build_codeword>:
#endif

/* Append the parity bytes onto the end of the message */
void
build_codeword (struct rscode_driver * driver, unsigned char * msg, int nbytes, unsigned char * dst)
{
 8004b16:	b480      	push	{r7}
 8004b18:	b087      	sub	sp, #28
 8004b1a:	af00      	add	r7, sp, #0
 8004b1c:	60f8      	str	r0, [r7, #12]
 8004b1e:	60b9      	str	r1, [r7, #8]
 8004b20:	607a      	str	r2, [r7, #4]
 8004b22:	603b      	str	r3, [r7, #0]
  int i;
	
  for (i = 0; i < nbytes; i++) dst[i] = msg[i];
 8004b24:	2300      	movs	r3, #0
 8004b26:	617b      	str	r3, [r7, #20]
 8004b28:	e00a      	b.n	8004b40 <build_codeword+0x2a>
 8004b2a:	697b      	ldr	r3, [r7, #20]
 8004b2c:	68ba      	ldr	r2, [r7, #8]
 8004b2e:	441a      	add	r2, r3
 8004b30:	697b      	ldr	r3, [r7, #20]
 8004b32:	6839      	ldr	r1, [r7, #0]
 8004b34:	440b      	add	r3, r1
 8004b36:	7812      	ldrb	r2, [r2, #0]
 8004b38:	701a      	strb	r2, [r3, #0]
 8004b3a:	697b      	ldr	r3, [r7, #20]
 8004b3c:	3301      	adds	r3, #1
 8004b3e:	617b      	str	r3, [r7, #20]
 8004b40:	697a      	ldr	r2, [r7, #20]
 8004b42:	687b      	ldr	r3, [r7, #4]
 8004b44:	429a      	cmp	r2, r3
 8004b46:	dbf0      	blt.n	8004b2a <build_codeword+0x14>
	
  for (i = 0; i < NPAR; i++) {
 8004b48:	2300      	movs	r3, #0
 8004b4a:	617b      	str	r3, [r7, #20]
 8004b4c:	e011      	b.n	8004b72 <build_codeword+0x5c>
    dst[i+nbytes] = driver->pBytes[NPAR-1-i];
 8004b4e:	697b      	ldr	r3, [r7, #20]
 8004b50:	f1c3 0207 	rsb	r2, r3, #7
 8004b54:	68fb      	ldr	r3, [r7, #12]
 8004b56:	3220      	adds	r2, #32
 8004b58:	f853 1022 	ldr.w	r1, [r3, r2, lsl #2]
 8004b5c:	697a      	ldr	r2, [r7, #20]
 8004b5e:	687b      	ldr	r3, [r7, #4]
 8004b60:	4413      	add	r3, r2
 8004b62:	461a      	mov	r2, r3
 8004b64:	683b      	ldr	r3, [r7, #0]
 8004b66:	4413      	add	r3, r2
 8004b68:	b2ca      	uxtb	r2, r1
 8004b6a:	701a      	strb	r2, [r3, #0]
  for (i = 0; i < NPAR; i++) {
 8004b6c:	697b      	ldr	r3, [r7, #20]
 8004b6e:	3301      	adds	r3, #1
 8004b70:	617b      	str	r3, [r7, #20]
 8004b72:	697b      	ldr	r3, [r7, #20]
 8004b74:	2b07      	cmp	r3, #7
 8004b76:	ddea      	ble.n	8004b4e <build_codeword+0x38>
  }
}
 8004b78:	bf00      	nop
 8004b7a:	bf00      	nop
 8004b7c:	371c      	adds	r7, #28
 8004b7e:	46bd      	mov	sp, r7
 8004b80:	bc80      	pop	{r7}
 8004b82:	4770      	bx	lr

08004b84 <compute_genpoly>:
 * at least n+1 bytes long.
 */

static void
compute_genpoly (struct rscode_driver * driver, int nbytes, int * genpoly)
{
 8004b84:	b580      	push	{r7, lr}
 8004b86:	f6ad 0d18 	subw	sp, sp, #2072	; 0x818
 8004b8a:	af00      	add	r7, sp, #0
 8004b8c:	f107 030c 	add.w	r3, r7, #12
 8004b90:	6018      	str	r0, [r3, #0]
 8004b92:	f107 0308 	add.w	r3, r7, #8
 8004b96:	6019      	str	r1, [r3, #0]
 8004b98:	1d3b      	adds	r3, r7, #4
 8004b9a:	601a      	str	r2, [r3, #0]
  int i, tp[256], tp1[256];
	
  /* multiply (x + a^n) for n = 1 to nbytes */

  zero_poly(driver, tp1);
 8004b9c:	f107 0214 	add.w	r2, r7, #20
 8004ba0:	f107 030c 	add.w	r3, r7, #12
 8004ba4:	4611      	mov	r1, r2
 8004ba6:	6818      	ldr	r0, [r3, #0]
 8004ba8:	f7fc fcd5 	bl	8001556 <zero_poly>
  tp1[0] = 1;
 8004bac:	f107 0314 	add.w	r3, r7, #20
 8004bb0:	2201      	movs	r2, #1
 8004bb2:	601a      	str	r2, [r3, #0]

  for (i = 1; i <= nbytes; i++) {
 8004bb4:	2301      	movs	r3, #1
 8004bb6:	f8c7 3814 	str.w	r3, [r7, #2068]	; 0x814
 8004bba:	e02f      	b.n	8004c1c <compute_genpoly+0x98>
    zero_poly(driver, tp);
 8004bbc:	f207 4214 	addw	r2, r7, #1044	; 0x414
 8004bc0:	f107 030c 	add.w	r3, r7, #12
 8004bc4:	4611      	mov	r1, r2
 8004bc6:	6818      	ldr	r0, [r3, #0]
 8004bc8:	f7fc fcc5 	bl	8001556 <zero_poly>
    tp[0] = gexp(driver,i);		/* set up x+a^n */
 8004bcc:	f107 030c 	add.w	r3, r7, #12
 8004bd0:	f8d7 1814 	ldr.w	r1, [r7, #2068]	; 0x814
 8004bd4:	6818      	ldr	r0, [r3, #0]
 8004bd6:	f7fe fd37 	bl	8003648 <gexp>
 8004bda:	4602      	mov	r2, r0
 8004bdc:	f207 4314 	addw	r3, r7, #1044	; 0x414
 8004be0:	601a      	str	r2, [r3, #0]
    tp[1] = 1;
 8004be2:	f207 4314 	addw	r3, r7, #1044	; 0x414
 8004be6:	2201      	movs	r2, #1
 8004be8:	605a      	str	r2, [r3, #4]
	  
    mult_polys(driver, genpoly, tp, tp1);
 8004bea:	f107 0314 	add.w	r3, r7, #20
 8004bee:	f207 4214 	addw	r2, r7, #1044	; 0x414
 8004bf2:	1d39      	adds	r1, r7, #4
 8004bf4:	f107 000c 	add.w	r0, r7, #12
 8004bf8:	6809      	ldr	r1, [r1, #0]
 8004bfa:	6800      	ldr	r0, [r0, #0]
 8004bfc:	f7fc fcc5 	bl	800158a <mult_polys>
    copy_poly(driver, tp1, genpoly);
 8004c00:	1d3a      	adds	r2, r7, #4
 8004c02:	f107 0114 	add.w	r1, r7, #20
 8004c06:	f107 030c 	add.w	r3, r7, #12
 8004c0a:	6812      	ldr	r2, [r2, #0]
 8004c0c:	6818      	ldr	r0, [r3, #0]
 8004c0e:	f7fc fc83 	bl	8001518 <copy_poly>
  for (i = 1; i <= nbytes; i++) {
 8004c12:	f8d7 3814 	ldr.w	r3, [r7, #2068]	; 0x814
 8004c16:	3301      	adds	r3, #1
 8004c18:	f8c7 3814 	str.w	r3, [r7, #2068]	; 0x814
 8004c1c:	f107 0308 	add.w	r3, r7, #8
 8004c20:	f8d7 2814 	ldr.w	r2, [r7, #2068]	; 0x814
 8004c24:	681b      	ldr	r3, [r3, #0]
 8004c26:	429a      	cmp	r2, r3
 8004c28:	ddc8      	ble.n	8004bbc <compute_genpoly+0x38>
  }
}
 8004c2a:	bf00      	nop
 8004c2c:	bf00      	nop
 8004c2e:	f607 0718 	addw	r7, r7, #2072	; 0x818
 8004c32:	46bd      	mov	sp, r7
 8004c34:	bd80      	pop	{r7, pc}

08004c36 <encode_data>:
 * 
 */

void
encode_data (struct rscode_driver * driver, unsigned char *msg, int nbytes, unsigned char *dst)
{
 8004c36:	b590      	push	{r4, r7, lr}
 8004c38:	b091      	sub	sp, #68	; 0x44
 8004c3a:	af00      	add	r7, sp, #0
 8004c3c:	60f8      	str	r0, [r7, #12]
 8004c3e:	60b9      	str	r1, [r7, #8]
 8004c40:	607a      	str	r2, [r7, #4]
 8004c42:	603b      	str	r3, [r7, #0]
  int i, LFSR[NPAR+1],dbyte, j;
	
  for(i=0; i < NPAR+1; i++) LFSR[i]=0;
 8004c44:	2300      	movs	r3, #0
 8004c46:	63fb      	str	r3, [r7, #60]	; 0x3c
 8004c48:	e00a      	b.n	8004c60 <encode_data+0x2a>
 8004c4a:	6bfb      	ldr	r3, [r7, #60]	; 0x3c
 8004c4c:	009b      	lsls	r3, r3, #2
 8004c4e:	f107 0240 	add.w	r2, r7, #64	; 0x40
 8004c52:	4413      	add	r3, r2
 8004c54:	2200      	movs	r2, #0
 8004c56:	f843 2c30 	str.w	r2, [r3, #-48]
 8004c5a:	6bfb      	ldr	r3, [r7, #60]	; 0x3c
 8004c5c:	3301      	adds	r3, #1
 8004c5e:	63fb      	str	r3, [r7, #60]	; 0x3c
 8004c60:	6bfb      	ldr	r3, [r7, #60]	; 0x3c
 8004c62:	2b08      	cmp	r3, #8
 8004c64:	ddf1      	ble.n	8004c4a <encode_data+0x14>

  for (i = 0; i < nbytes; i++) {
 8004c66:	2300      	movs	r3, #0
 8004c68:	63fb      	str	r3, [r7, #60]	; 0x3c
 8004c6a:	e037      	b.n	8004cdc <encode_data+0xa6>
    dbyte = msg[i] ^ LFSR[NPAR-1];
 8004c6c:	6bfb      	ldr	r3, [r7, #60]	; 0x3c
 8004c6e:	68ba      	ldr	r2, [r7, #8]
 8004c70:	4413      	add	r3, r2
 8004c72:	781b      	ldrb	r3, [r3, #0]
 8004c74:	461a      	mov	r2, r3
 8004c76:	6afb      	ldr	r3, [r7, #44]	; 0x2c
 8004c78:	4053      	eors	r3, r2
 8004c7a:	637b      	str	r3, [r7, #52]	; 0x34
    for (j = NPAR-1; j > 0; j--) {
 8004c7c:	2307      	movs	r3, #7
 8004c7e:	63bb      	str	r3, [r7, #56]	; 0x38
 8004c80:	e01d      	b.n	8004cbe <encode_data+0x88>
      LFSR[j] = LFSR[j-1] ^ gmult(driver, driver->genPoly[j], dbyte);
 8004c82:	6bbb      	ldr	r3, [r7, #56]	; 0x38
 8004c84:	3b01      	subs	r3, #1
 8004c86:	009b      	lsls	r3, r3, #2
 8004c88:	f107 0240 	add.w	r2, r7, #64	; 0x40
 8004c8c:	4413      	add	r3, r2
 8004c8e:	f853 4c30 	ldr.w	r4, [r3, #-48]
 8004c92:	68fb      	ldr	r3, [r7, #12]
 8004c94:	6bba      	ldr	r2, [r7, #56]	; 0x38
 8004c96:	f853 3022 	ldr.w	r3, [r3, r2, lsl #2]
 8004c9a:	6b7a      	ldr	r2, [r7, #52]	; 0x34
 8004c9c:	4619      	mov	r1, r3
 8004c9e:	68f8      	ldr	r0, [r7, #12]
 8004ca0:	f7fe fd2d 	bl	80036fe <gmult>
 8004ca4:	4603      	mov	r3, r0
 8004ca6:	ea84 0203 	eor.w	r2, r4, r3
 8004caa:	6bbb      	ldr	r3, [r7, #56]	; 0x38
 8004cac:	009b      	lsls	r3, r3, #2
 8004cae:	f107 0140 	add.w	r1, r7, #64	; 0x40
 8004cb2:	440b      	add	r3, r1
 8004cb4:	f843 2c30 	str.w	r2, [r3, #-48]
    for (j = NPAR-1; j > 0; j--) {
 8004cb8:	6bbb      	ldr	r3, [r7, #56]	; 0x38
 8004cba:	3b01      	subs	r3, #1
 8004cbc:	63bb      	str	r3, [r7, #56]	; 0x38
 8004cbe:	6bbb      	ldr	r3, [r7, #56]	; 0x38
 8004cc0:	2b00      	cmp	r3, #0
 8004cc2:	dcde      	bgt.n	8004c82 <encode_data+0x4c>
    }
    LFSR[0] = gmult(driver, driver->genPoly[0], dbyte);
 8004cc4:	68fb      	ldr	r3, [r7, #12]
 8004cc6:	681b      	ldr	r3, [r3, #0]
 8004cc8:	6b7a      	ldr	r2, [r7, #52]	; 0x34
 8004cca:	4619      	mov	r1, r3
 8004ccc:	68f8      	ldr	r0, [r7, #12]
 8004cce:	f7fe fd16 	bl	80036fe <gmult>
 8004cd2:	4603      	mov	r3, r0
 8004cd4:	613b      	str	r3, [r7, #16]
  for (i = 0; i < nbytes; i++) {
 8004cd6:	6bfb      	ldr	r3, [r7, #60]	; 0x3c
 8004cd8:	3301      	adds	r3, #1
 8004cda:	63fb      	str	r3, [r7, #60]	; 0x3c
 8004cdc:	6bfa      	ldr	r2, [r7, #60]	; 0x3c
 8004cde:	687b      	ldr	r3, [r7, #4]
 8004ce0:	429a      	cmp	r2, r3
 8004ce2:	dbc3      	blt.n	8004c6c <encode_data+0x36>
  }

  for (i = 0; i < NPAR; i++) 
 8004ce4:	2300      	movs	r3, #0
 8004ce6:	63fb      	str	r3, [r7, #60]	; 0x3c
 8004ce8:	e00e      	b.n	8004d08 <encode_data+0xd2>
    driver->pBytes[i] = LFSR[i];
 8004cea:	6bfb      	ldr	r3, [r7, #60]	; 0x3c
 8004cec:	009b      	lsls	r3, r3, #2
 8004cee:	f107 0240 	add.w	r2, r7, #64	; 0x40
 8004cf2:	4413      	add	r3, r2
 8004cf4:	f853 1c30 	ldr.w	r1, [r3, #-48]
 8004cf8:	68fb      	ldr	r3, [r7, #12]
 8004cfa:	6bfa      	ldr	r2, [r7, #60]	; 0x3c
 8004cfc:	3220      	adds	r2, #32
 8004cfe:	f843 1022 	str.w	r1, [r3, r2, lsl #2]
  for (i = 0; i < NPAR; i++) 
 8004d02:	6bfb      	ldr	r3, [r7, #60]	; 0x3c
 8004d04:	3301      	adds	r3, #1
 8004d06:	63fb      	str	r3, [r7, #60]	; 0x3c
 8004d08:	6bfb      	ldr	r3, [r7, #60]	; 0x3c
 8004d0a:	2b07      	cmp	r3, #7
 8004d0c:	dded      	ble.n	8004cea <encode_data+0xb4>
	
  build_codeword(driver, msg, nbytes, dst);
 8004d0e:	683b      	ldr	r3, [r7, #0]
 8004d10:	687a      	ldr	r2, [r7, #4]
 8004d12:	68b9      	ldr	r1, [r7, #8]
 8004d14:	68f8      	ldr	r0, [r7, #12]
 8004d16:	f7ff fefe 	bl	8004b16 <build_codeword>
}
 8004d1a:	bf00      	nop
 8004d1c:	3744      	adds	r7, #68	; 0x44
 8004d1e:	46bd      	mov	sp, r7
 8004d20:	bd90      	pop	{r4, r7, pc}
	...

08004d24 <HAL_MspInit>:
/* USER CODE END 0 */
/**
  * Initializes the Global MSP.
  */
void HAL_MspInit(void)
{
 8004d24:	b480      	push	{r7}
 8004d26:	b085      	sub	sp, #20
 8004d28:	af00      	add	r7, sp, #0
  /* USER CODE BEGIN MspInit 0 */

  /* USER CODE END MspInit 0 */

  __HAL_RCC_AFIO_CLK_ENABLE();
 8004d2a:	4b15      	ldr	r3, [pc, #84]	; (8004d80 <HAL_MspInit+0x5c>)
 8004d2c:	699b      	ldr	r3, [r3, #24]
 8004d2e:	4a14      	ldr	r2, [pc, #80]	; (8004d80 <HAL_MspInit+0x5c>)
 8004d30:	f043 0301 	orr.w	r3, r3, #1
 8004d34:	6193      	str	r3, [r2, #24]
 8004d36:	4b12      	ldr	r3, [pc, #72]	; (8004d80 <HAL_MspInit+0x5c>)
 8004d38:	699b      	ldr	r3, [r3, #24]
 8004d3a:	f003 0301 	and.w	r3, r3, #1
 8004d3e:	60bb      	str	r3, [r7, #8]
 8004d40:	68bb      	ldr	r3, [r7, #8]
  __HAL_RCC_PWR_CLK_ENABLE();
 8004d42:	4b0f      	ldr	r3, [pc, #60]	; (8004d80 <HAL_MspInit+0x5c>)
 8004d44:	69db      	ldr	r3, [r3, #28]
 8004d46:	4a0e      	ldr	r2, [pc, #56]	; (8004d80 <HAL_MspInit+0x5c>)
 8004d48:	f043 5380 	orr.w	r3, r3, #268435456	; 0x10000000
 8004d4c:	61d3      	str	r3, [r2, #28]
 8004d4e:	4b0c      	ldr	r3, [pc, #48]	; (8004d80 <HAL_MspInit+0x5c>)
 8004d50:	69db      	ldr	r3, [r3, #28]
 8004d52:	f003 5380 	and.w	r3, r3, #268435456	; 0x10000000
 8004d56:	607b      	str	r3, [r7, #4]
 8004d58:	687b      	ldr	r3, [r7, #4]

  /* System interrupt init*/

  /** NOJTAG: JTAG-DP Disabled and SW-DP Enabled
  */
  __HAL_AFIO_REMAP_SWJ_NOJTAG();
 8004d5a:	4b0a      	ldr	r3, [pc, #40]	; (8004d84 <HAL_MspInit+0x60>)
 8004d5c:	685b      	ldr	r3, [r3, #4]
 8004d5e:	60fb      	str	r3, [r7, #12]
 8004d60:	68fb      	ldr	r3, [r7, #12]
 8004d62:	f023 63e0 	bic.w	r3, r3, #117440512	; 0x7000000
 8004d66:	60fb      	str	r3, [r7, #12]
 8004d68:	68fb      	ldr	r3, [r7, #12]
 8004d6a:	f043 7300 	orr.w	r3, r3, #33554432	; 0x2000000
 8004d6e:	60fb      	str	r3, [r7, #12]
 8004d70:	4a04      	ldr	r2, [pc, #16]	; (8004d84 <HAL_MspInit+0x60>)
 8004d72:	68fb      	ldr	r3, [r7, #12]
 8004d74:	6053      	str	r3, [r2, #4]

  /* USER CODE BEGIN MspInit 1 */

  /* USER CODE END MspInit 1 */
}
 8004d76:	bf00      	nop
 8004d78:	3714      	adds	r7, #20
 8004d7a:	46bd      	mov	sp, r7
 8004d7c:	bc80      	pop	{r7}
 8004d7e:	4770      	bx	lr
 8004d80:	40021000 	.word	0x40021000
 8004d84:	40010000 	.word	0x40010000

08004d88 <HAL_ADC_MspInit>:
* This function configures the hardware resources used in this example
* @param hadc: ADC handle pointer
* @retval None
*/
void HAL_ADC_MspInit(ADC_HandleTypeDef* hadc)
{
 8004d88:	b580      	push	{r7, lr}
 8004d8a:	b088      	sub	sp, #32
 8004d8c:	af00      	add	r7, sp, #0
 8004d8e:	6078      	str	r0, [r7, #4]
  GPIO_InitTypeDef GPIO_InitStruct = {0};
 8004d90:	f107 0310 	add.w	r3, r7, #16
 8004d94:	2200      	movs	r2, #0
 8004d96:	601a      	str	r2, [r3, #0]
 8004d98:	605a      	str	r2, [r3, #4]
 8004d9a:	609a      	str	r2, [r3, #8]
 8004d9c:	60da      	str	r2, [r3, #12]
  if(hadc->Instance==ADC1)
 8004d9e:	687b      	ldr	r3, [r7, #4]
 8004da0:	681b      	ldr	r3, [r3, #0]
 8004da2:	4a14      	ldr	r2, [pc, #80]	; (8004df4 <HAL_ADC_MspInit+0x6c>)
 8004da4:	4293      	cmp	r3, r2
 8004da6:	d121      	bne.n	8004dec <HAL_ADC_MspInit+0x64>
  {
  /* USER CODE BEGIN ADC1_MspInit 0 */

  /* USER CODE END ADC1_MspInit 0 */
    /* Peripheral clock enable */
    __HAL_RCC_ADC1_CLK_ENABLE();
 8004da8:	4b13      	ldr	r3, [pc, #76]	; (8004df8 <HAL_ADC_MspInit+0x70>)
 8004daa:	699b      	ldr	r3, [r3, #24]
 8004dac:	4a12      	ldr	r2, [pc, #72]	; (8004df8 <HAL_ADC_MspInit+0x70>)
 8004dae:	f443 7300 	orr.w	r3, r3, #512	; 0x200
 8004db2:	6193      	str	r3, [r2, #24]
 8004db4:	4b10      	ldr	r3, [pc, #64]	; (8004df8 <HAL_ADC_MspInit+0x70>)
 8004db6:	699b      	ldr	r3, [r3, #24]
 8004db8:	f403 7300 	and.w	r3, r3, #512	; 0x200
 8004dbc:	60fb      	str	r3, [r7, #12]
 8004dbe:	68fb      	ldr	r3, [r7, #12]

    __HAL_RCC_GPIOA_CLK_ENABLE();
 8004dc0:	4b0d      	ldr	r3, [pc, #52]	; (8004df8 <HAL_ADC_MspInit+0x70>)
 8004dc2:	699b      	ldr	r3, [r3, #24]
 8004dc4:	4a0c      	ldr	r2, [pc, #48]	; (8004df8 <HAL_ADC_MspInit+0x70>)
 8004dc6:	f043 0304 	orr.w	r3, r3, #4
 8004dca:	6193      	str	r3, [r2, #24]
 8004dcc:	4b0a      	ldr	r3, [pc, #40]	; (8004df8 <HAL_ADC_MspInit+0x70>)
 8004dce:	699b      	ldr	r3, [r3, #24]
 8004dd0:	f003 0304 	and.w	r3, r3, #4
 8004dd4:	60bb      	str	r3, [r7, #8]
 8004dd6:	68bb      	ldr	r3, [r7, #8]
    /**ADC1 GPIO Configuration
    PA5     ------> ADC1_IN5
    */
    GPIO_InitStruct.Pin = Batt_Volt_Pin;
 8004dd8:	2320      	movs	r3, #32
 8004dda:	613b      	str	r3, [r7, #16]
    GPIO_InitStruct.Mode = GPIO_MODE_ANALOG;
 8004ddc:	2303      	movs	r3, #3
 8004dde:	617b      	str	r3, [r7, #20]
    HAL_GPIO_Init(Batt_Volt_GPIO_Port, &GPIO_InitStruct);
 8004de0:	f107 0310 	add.w	r3, r7, #16
 8004de4:	4619      	mov	r1, r3
 8004de6:	4805      	ldr	r0, [pc, #20]	; (8004dfc <HAL_ADC_MspInit+0x74>)
 8004de8:	f001 f86a 	bl	8005ec0 <HAL_GPIO_Init>
  /* USER CODE BEGIN ADC1_MspInit 1 */

  /* USER CODE END ADC1_MspInit 1 */
  }

}
 8004dec:	bf00      	nop
 8004dee:	3720      	adds	r7, #32
 8004df0:	46bd      	mov	sp, r7
 8004df2:	bd80      	pop	{r7, pc}
 8004df4:	40012400 	.word	0x40012400
 8004df8:	40021000 	.word	0x40021000
 8004dfc:	40010800 	.word	0x40010800

08004e00 <HAL_SPI_MspInit>:
* This function configures the hardware resources used in this example
* @param hspi: SPI handle pointer
* @retval None
*/
void HAL_SPI_MspInit(SPI_HandleTypeDef* hspi)
{
 8004e00:	b580      	push	{r7, lr}
 8004e02:	b088      	sub	sp, #32
 8004e04:	af00      	add	r7, sp, #0
 8004e06:	6078      	str	r0, [r7, #4]
  GPIO_InitTypeDef GPIO_InitStruct = {0};
 8004e08:	f107 0310 	add.w	r3, r7, #16
 8004e0c:	2200      	movs	r2, #0
 8004e0e:	601a      	str	r2, [r3, #0]
 8004e10:	605a      	str	r2, [r3, #4]
 8004e12:	609a      	str	r2, [r3, #8]
 8004e14:	60da      	str	r2, [r3, #12]
  if(hspi->Instance==SPI2)
 8004e16:	687b      	ldr	r3, [r7, #4]
 8004e18:	681b      	ldr	r3, [r3, #0]
 8004e1a:	4a1c      	ldr	r2, [pc, #112]	; (8004e8c <HAL_SPI_MspInit+0x8c>)
 8004e1c:	4293      	cmp	r3, r2
 8004e1e:	d131      	bne.n	8004e84 <HAL_SPI_MspInit+0x84>
  {
  /* USER CODE BEGIN SPI2_MspInit 0 */

  /* USER CODE END SPI2_MspInit 0 */
    /* Peripheral clock enable */
    __HAL_RCC_SPI2_CLK_ENABLE();
 8004e20:	4b1b      	ldr	r3, [pc, #108]	; (8004e90 <HAL_SPI_MspInit+0x90>)
 8004e22:	69db      	ldr	r3, [r3, #28]
 8004e24:	4a1a      	ldr	r2, [pc, #104]	; (8004e90 <HAL_SPI_MspInit+0x90>)
 8004e26:	f443 4380 	orr.w	r3, r3, #16384	; 0x4000
 8004e2a:	61d3      	str	r3, [r2, #28]
 8004e2c:	4b18      	ldr	r3, [pc, #96]	; (8004e90 <HAL_SPI_MspInit+0x90>)
 8004e2e:	69db      	ldr	r3, [r3, #28]
 8004e30:	f403 4380 	and.w	r3, r3, #16384	; 0x4000
 8004e34:	60fb      	str	r3, [r7, #12]
 8004e36:	68fb      	ldr	r3, [r7, #12]

    __HAL_RCC_GPIOB_CLK_ENABLE();
 8004e38:	4b15      	ldr	r3, [pc, #84]	; (8004e90 <HAL_SPI_MspInit+0x90>)
 8004e3a:	699b      	ldr	r3, [r3, #24]
 8004e3c:	4a14      	ldr	r2, [pc, #80]	; (8004e90 <HAL_SPI_MspInit+0x90>)
 8004e3e:	f043 0308 	orr.w	r3, r3, #8
 8004e42:	6193      	str	r3, [r2, #24]
 8004e44:	4b12      	ldr	r3, [pc, #72]	; (8004e90 <HAL_SPI_MspInit+0x90>)
 8004e46:	699b      	ldr	r3, [r3, #24]
 8004e48:	f003 0308 	and.w	r3, r3, #8
 8004e4c:	60bb      	str	r3, [r7, #8]
 8004e4e:	68bb      	ldr	r3, [r7, #8]
    /**SPI2 GPIO Configuration
    PB13     ------> SPI2_SCK
    PB14     ------> SPI2_MISO
    PB15     ------> SPI2_MOSI
    */
    GPIO_InitStruct.Pin = GPIO_PIN_13|GPIO_PIN_15;
 8004e50:	f44f 4320 	mov.w	r3, #40960	; 0xa000
 8004e54:	613b      	str	r3, [r7, #16]
    GPIO_InitStruct.Mode = GPIO_MODE_AF_PP;
 8004e56:	2302      	movs	r3, #2
 8004e58:	617b      	str	r3, [r7, #20]
    GPIO_InitStruct.Speed = GPIO_SPEED_FREQ_HIGH;
 8004e5a:	2303      	movs	r3, #3
 8004e5c:	61fb      	str	r3, [r7, #28]
    HAL_GPIO_Init(GPIOB, &GPIO_InitStruct);
 8004e5e:	f107 0310 	add.w	r3, r7, #16
 8004e62:	4619      	mov	r1, r3
 8004e64:	480b      	ldr	r0, [pc, #44]	; (8004e94 <HAL_SPI_MspInit+0x94>)
 8004e66:	f001 f82b 	bl	8005ec0 <HAL_GPIO_Init>

    GPIO_InitStruct.Pin = GPIO_PIN_14;
 8004e6a:	f44f 4380 	mov.w	r3, #16384	; 0x4000
 8004e6e:	613b      	str	r3, [r7, #16]
    GPIO_InitStruct.Mode = GPIO_MODE_INPUT;
 8004e70:	2300      	movs	r3, #0
 8004e72:	617b      	str	r3, [r7, #20]
    GPIO_InitStruct.Pull = GPIO_NOPULL;
 8004e74:	2300      	movs	r3, #0
 8004e76:	61bb      	str	r3, [r7, #24]
    HAL_GPIO_Init(GPIOB, &GPIO_InitStruct);
 8004e78:	f107 0310 	add.w	r3, r7, #16
 8004e7c:	4619      	mov	r1, r3
 8004e7e:	4805      	ldr	r0, [pc, #20]	; (8004e94 <HAL_SPI_MspInit+0x94>)
 8004e80:	f001 f81e 	bl	8005ec0 <HAL_GPIO_Init>
  /* USER CODE BEGIN SPI2_MspInit 1 */

  /* USER CODE END SPI2_MspInit 1 */
  }

}
 8004e84:	bf00      	nop
 8004e86:	3720      	adds	r7, #32
 8004e88:	46bd      	mov	sp, r7
 8004e8a:	bd80      	pop	{r7, pc}
 8004e8c:	40003800 	.word	0x40003800
 8004e90:	40021000 	.word	0x40021000
 8004e94:	40010c00 	.word	0x40010c00

08004e98 <HAL_TIM_Base_MspInit>:
* This function configures the hardware resources used in this example
* @param htim_base: TIM_Base handle pointer
* @retval None
*/
void HAL_TIM_Base_MspInit(TIM_HandleTypeDef* htim_base)
{
 8004e98:	b580      	push	{r7, lr}
 8004e9a:	b084      	sub	sp, #16
 8004e9c:	af00      	add	r7, sp, #0
 8004e9e:	6078      	str	r0, [r7, #4]
  if(htim_base->Instance==TIM2)
 8004ea0:	687b      	ldr	r3, [r7, #4]
 8004ea2:	681b      	ldr	r3, [r3, #0]
 8004ea4:	f1b3 4f80 	cmp.w	r3, #1073741824	; 0x40000000
 8004ea8:	d113      	bne.n	8004ed2 <HAL_TIM_Base_MspInit+0x3a>
  {
  /* USER CODE BEGIN TIM2_MspInit 0 */

  /* USER CODE END TIM2_MspInit 0 */
    /* Peripheral clock enable */
    __HAL_RCC_TIM2_CLK_ENABLE();
 8004eaa:	4b0c      	ldr	r3, [pc, #48]	; (8004edc <HAL_TIM_Base_MspInit+0x44>)
 8004eac:	69db      	ldr	r3, [r3, #28]
 8004eae:	4a0b      	ldr	r2, [pc, #44]	; (8004edc <HAL_TIM_Base_MspInit+0x44>)
 8004eb0:	f043 0301 	orr.w	r3, r3, #1
 8004eb4:	61d3      	str	r3, [r2, #28]
 8004eb6:	4b09      	ldr	r3, [pc, #36]	; (8004edc <HAL_TIM_Base_MspInit+0x44>)
 8004eb8:	69db      	ldr	r3, [r3, #28]
 8004eba:	f003 0301 	and.w	r3, r3, #1
 8004ebe:	60fb      	str	r3, [r7, #12]
 8004ec0:	68fb      	ldr	r3, [r7, #12]
    /* TIM2 interrupt Init */
    HAL_NVIC_SetPriority(TIM2_IRQn, 0, 0);
 8004ec2:	2200      	movs	r2, #0
 8004ec4:	2100      	movs	r1, #0
 8004ec6:	201c      	movs	r0, #28
 8004ec8:	f000 ffcf 	bl	8005e6a <HAL_NVIC_SetPriority>
    HAL_NVIC_EnableIRQ(TIM2_IRQn);
 8004ecc:	201c      	movs	r0, #28
 8004ece:	f000 ffe8 	bl	8005ea2 <HAL_NVIC_EnableIRQ>
  /* USER CODE BEGIN TIM2_MspInit 1 */

  /* USER CODE END TIM2_MspInit 1 */
  }

}
 8004ed2:	bf00      	nop
 8004ed4:	3710      	adds	r7, #16
 8004ed6:	46bd      	mov	sp, r7
 8004ed8:	bd80      	pop	{r7, pc}
 8004eda:	bf00      	nop
 8004edc:	40021000 	.word	0x40021000

08004ee0 <HAL_UART_MspInit>:
* This function configures the hardware resources used in this example
* @param huart: UART handle pointer
* @retval None
*/
void HAL_UART_MspInit(UART_HandleTypeDef* huart)
{
 8004ee0:	b580      	push	{r7, lr}
 8004ee2:	b08a      	sub	sp, #40	; 0x28
 8004ee4:	af00      	add	r7, sp, #0
 8004ee6:	6078      	str	r0, [r7, #4]
  GPIO_InitTypeDef GPIO_InitStruct = {0};
 8004ee8:	f107 0318 	add.w	r3, r7, #24
 8004eec:	2200      	movs	r2, #0
 8004eee:	601a      	str	r2, [r3, #0]
 8004ef0:	605a      	str	r2, [r3, #4]
 8004ef2:	609a      	str	r2, [r3, #8]
 8004ef4:	60da      	str	r2, [r3, #12]
  if(huart->Instance==USART1)
 8004ef6:	687b      	ldr	r3, [r7, #4]
 8004ef8:	681b      	ldr	r3, [r3, #0]
 8004efa:	4a38      	ldr	r2, [pc, #224]	; (8004fdc <HAL_UART_MspInit+0xfc>)
 8004efc:	4293      	cmp	r3, r2
 8004efe:	d132      	bne.n	8004f66 <HAL_UART_MspInit+0x86>
  {
  /* USER CODE BEGIN USART1_MspInit 0 */

  /* USER CODE END USART1_MspInit 0 */
    /* Peripheral clock enable */
    __HAL_RCC_USART1_CLK_ENABLE();
 8004f00:	4b37      	ldr	r3, [pc, #220]	; (8004fe0 <HAL_UART_MspInit+0x100>)
 8004f02:	699b      	ldr	r3, [r3, #24]
 8004f04:	4a36      	ldr	r2, [pc, #216]	; (8004fe0 <HAL_UART_MspInit+0x100>)
 8004f06:	f443 4380 	orr.w	r3, r3, #16384	; 0x4000
 8004f0a:	6193      	str	r3, [r2, #24]
 8004f0c:	4b34      	ldr	r3, [pc, #208]	; (8004fe0 <HAL_UART_MspInit+0x100>)
 8004f0e:	699b      	ldr	r3, [r3, #24]
 8004f10:	f403 4380 	and.w	r3, r3, #16384	; 0x4000
 8004f14:	617b      	str	r3, [r7, #20]
 8004f16:	697b      	ldr	r3, [r7, #20]

    __HAL_RCC_GPIOA_CLK_ENABLE();
 8004f18:	4b31      	ldr	r3, [pc, #196]	; (8004fe0 <HAL_UART_MspInit+0x100>)
 8004f1a:	699b      	ldr	r3, [r3, #24]
 8004f1c:	4a30      	ldr	r2, [pc, #192]	; (8004fe0 <HAL_UART_MspInit+0x100>)
 8004f1e:	f043 0304 	orr.w	r3, r3, #4
 8004f22:	6193      	str	r3, [r2, #24]
 8004f24:	4b2e      	ldr	r3, [pc, #184]	; (8004fe0 <HAL_UART_MspInit+0x100>)
 8004f26:	699b      	ldr	r3, [r3, #24]
 8004f28:	f003 0304 	and.w	r3, r3, #4
 8004f2c:	613b      	str	r3, [r7, #16]
 8004f2e:	693b      	ldr	r3, [r7, #16]
    /**USART1 GPIO Configuration
    PA9     ------> USART1_TX
    PA10     ------> USART1_RX
    */
    GPIO_InitStruct.Pin = GPIO_PIN_9;
 8004f30:	f44f 7300 	mov.w	r3, #512	; 0x200
 8004f34:	61bb      	str	r3, [r7, #24]
    GPIO_InitStruct.Mode = GPIO_MODE_AF_PP;
 8004f36:	2302      	movs	r3, #2
 8004f38:	61fb      	str	r3, [r7, #28]
    GPIO_InitStruct.Speed = GPIO_SPEED_FREQ_HIGH;
 8004f3a:	2303      	movs	r3, #3
 8004f3c:	627b      	str	r3, [r7, #36]	; 0x24
    HAL_GPIO_Init(GPIOA, &GPIO_InitStruct);
 8004f3e:	f107 0318 	add.w	r3, r7, #24
 8004f42:	4619      	mov	r1, r3
 8004f44:	4827      	ldr	r0, [pc, #156]	; (8004fe4 <HAL_UART_MspInit+0x104>)
 8004f46:	f000 ffbb 	bl	8005ec0 <HAL_GPIO_Init>

    GPIO_InitStruct.Pin = GPIO_PIN_10;
 8004f4a:	f44f 6380 	mov.w	r3, #1024	; 0x400
 8004f4e:	61bb      	str	r3, [r7, #24]
    GPIO_InitStruct.Mode = GPIO_MODE_INPUT;
 8004f50:	2300      	movs	r3, #0
 8004f52:	61fb      	str	r3, [r7, #28]
    GPIO_InitStruct.Pull = GPIO_NOPULL;
 8004f54:	2300      	movs	r3, #0
 8004f56:	623b      	str	r3, [r7, #32]
    HAL_GPIO_Init(GPIOA, &GPIO_InitStruct);
 8004f58:	f107 0318 	add.w	r3, r7, #24
 8004f5c:	4619      	mov	r1, r3
 8004f5e:	4821      	ldr	r0, [pc, #132]	; (8004fe4 <HAL_UART_MspInit+0x104>)
 8004f60:	f000 ffae 	bl	8005ec0 <HAL_GPIO_Init>
  /* USER CODE BEGIN USART3_MspInit 1 */

  /* USER CODE END USART3_MspInit 1 */
  }

}
 8004f64:	e036      	b.n	8004fd4 <HAL_UART_MspInit+0xf4>
  else if(huart->Instance==USART3)
 8004f66:	687b      	ldr	r3, [r7, #4]
 8004f68:	681b      	ldr	r3, [r3, #0]
 8004f6a:	4a1f      	ldr	r2, [pc, #124]	; (8004fe8 <HAL_UART_MspInit+0x108>)
 8004f6c:	4293      	cmp	r3, r2
 8004f6e:	d131      	bne.n	8004fd4 <HAL_UART_MspInit+0xf4>
    __HAL_RCC_USART3_CLK_ENABLE();
 8004f70:	4b1b      	ldr	r3, [pc, #108]	; (8004fe0 <HAL_UART_MspInit+0x100>)
 8004f72:	69db      	ldr	r3, [r3, #28]
 8004f74:	4a1a      	ldr	r2, [pc, #104]	; (8004fe0 <HAL_UART_MspInit+0x100>)
 8004f76:	f443 2380 	orr.w	r3, r3, #262144	; 0x40000
 8004f7a:	61d3      	str	r3, [r2, #28]
 8004f7c:	4b18      	ldr	r3, [pc, #96]	; (8004fe0 <HAL_UART_MspInit+0x100>)
 8004f7e:	69db      	ldr	r3, [r3, #28]
 8004f80:	f403 2380 	and.w	r3, r3, #262144	; 0x40000
 8004f84:	60fb      	str	r3, [r7, #12]
 8004f86:	68fb      	ldr	r3, [r7, #12]
    __HAL_RCC_GPIOB_CLK_ENABLE();
 8004f88:	4b15      	ldr	r3, [pc, #84]	; (8004fe0 <HAL_UART_MspInit+0x100>)
 8004f8a:	699b      	ldr	r3, [r3, #24]
 8004f8c:	4a14      	ldr	r2, [pc, #80]	; (8004fe0 <HAL_UART_MspInit+0x100>)
 8004f8e:	f043 0308 	orr.w	r3, r3, #8
 8004f92:	6193      	str	r3, [r2, #24]
 8004f94:	4b12      	ldr	r3, [pc, #72]	; (8004fe0 <HAL_UART_MspInit+0x100>)
 8004f96:	699b      	ldr	r3, [r3, #24]
 8004f98:	f003 0308 	and.w	r3, r3, #8
 8004f9c:	60bb      	str	r3, [r7, #8]
 8004f9e:	68bb      	ldr	r3, [r7, #8]
    GPIO_InitStruct.Pin = GPIO_PIN_10;
 8004fa0:	f44f 6380 	mov.w	r3, #1024	; 0x400
 8004fa4:	61bb      	str	r3, [r7, #24]
    GPIO_InitStruct.Mode = GPIO_MODE_AF_PP;
 8004fa6:	2302      	movs	r3, #2
 8004fa8:	61fb      	str	r3, [r7, #28]
    GPIO_InitStruct.Speed = GPIO_SPEED_FREQ_HIGH;
 8004faa:	2303      	movs	r3, #3
 8004fac:	627b      	str	r3, [r7, #36]	; 0x24
    HAL_GPIO_Init(GPIOB, &GPIO_InitStruct);
 8004fae:	f107 0318 	add.w	r3, r7, #24
 8004fb2:	4619      	mov	r1, r3
 8004fb4:	480d      	ldr	r0, [pc, #52]	; (8004fec <HAL_UART_MspInit+0x10c>)
 8004fb6:	f000 ff83 	bl	8005ec0 <HAL_GPIO_Init>
    GPIO_InitStruct.Pin = GPIO_PIN_11;
 8004fba:	f44f 6300 	mov.w	r3, #2048	; 0x800
 8004fbe:	61bb      	str	r3, [r7, #24]
    GPIO_InitStruct.Mode = GPIO_MODE_INPUT;
 8004fc0:	2300      	movs	r3, #0
 8004fc2:	61fb      	str	r3, [r7, #28]
    GPIO_InitStruct.Pull = GPIO_NOPULL;
 8004fc4:	2300      	movs	r3, #0
 8004fc6:	623b      	str	r3, [r7, #32]
    HAL_GPIO_Init(GPIOB, &GPIO_InitStruct);
 8004fc8:	f107 0318 	add.w	r3, r7, #24
 8004fcc:	4619      	mov	r1, r3
 8004fce:	4807      	ldr	r0, [pc, #28]	; (8004fec <HAL_UART_MspInit+0x10c>)
 8004fd0:	f000 ff76 	bl	8005ec0 <HAL_GPIO_Init>
}
 8004fd4:	bf00      	nop
 8004fd6:	3728      	adds	r7, #40	; 0x28
 8004fd8:	46bd      	mov	sp, r7
 8004fda:	bd80      	pop	{r7, pc}
 8004fdc:	40013800 	.word	0x40013800
 8004fe0:	40021000 	.word	0x40021000
 8004fe4:	40010800 	.word	0x40010800
 8004fe8:	40004800 	.word	0x40004800
 8004fec:	40010c00 	.word	0x40010c00

08004ff0 <HAL_InitTick>:
  *         reset by HAL_Init() or at any time when clock is configured, by HAL_RCC_ClockConfig().
  * @param  TickPriority: Tick interrupt priority.
  * @retval HAL status
  */
HAL_StatusTypeDef HAL_InitTick(uint32_t TickPriority)
{
 8004ff0:	b580      	push	{r7, lr}
 8004ff2:	b08c      	sub	sp, #48	; 0x30
 8004ff4:	af00      	add	r7, sp, #0
 8004ff6:	6078      	str	r0, [r7, #4]
  RCC_ClkInitTypeDef    clkconfig;
  uint32_t              uwTimclock = 0;
 8004ff8:	2300      	movs	r3, #0
 8004ffa:	62fb      	str	r3, [r7, #44]	; 0x2c
  uint32_t              uwPrescalerValue = 0;
 8004ffc:	2300      	movs	r3, #0
 8004ffe:	62bb      	str	r3, [r7, #40]	; 0x28
  uint32_t              pFLatency;
  /*Configure the TIM6 IRQ priority */
  HAL_NVIC_SetPriority(TIM6_DAC_IRQn, TickPriority ,0);
 8005000:	2200      	movs	r2, #0
 8005002:	6879      	ldr	r1, [r7, #4]
 8005004:	2036      	movs	r0, #54	; 0x36
 8005006:	f000 ff30 	bl	8005e6a <HAL_NVIC_SetPriority>

  /* Enable the TIM6 global Interrupt */
  HAL_NVIC_EnableIRQ(TIM6_DAC_IRQn);
 800500a:	2036      	movs	r0, #54	; 0x36
 800500c:	f000 ff49 	bl	8005ea2 <HAL_NVIC_EnableIRQ>

  /* Enable TIM6 clock */
  __HAL_RCC_TIM6_CLK_ENABLE();
 8005010:	4b1e      	ldr	r3, [pc, #120]	; (800508c <HAL_InitTick+0x9c>)
 8005012:	69db      	ldr	r3, [r3, #28]
 8005014:	4a1d      	ldr	r2, [pc, #116]	; (800508c <HAL_InitTick+0x9c>)
 8005016:	f043 0310 	orr.w	r3, r3, #16
 800501a:	61d3      	str	r3, [r2, #28]
 800501c:	4b1b      	ldr	r3, [pc, #108]	; (800508c <HAL_InitTick+0x9c>)
 800501e:	69db      	ldr	r3, [r3, #28]
 8005020:	f003 0310 	and.w	r3, r3, #16
 8005024:	60fb      	str	r3, [r7, #12]
 8005026:	68fb      	ldr	r3, [r7, #12]

  /* Get clock configuration */
  HAL_RCC_GetClockConfig(&clkconfig, &pFLatency);
 8005028:	f107 0210 	add.w	r2, r7, #16
 800502c:	f107 0314 	add.w	r3, r7, #20
 8005030:	4611      	mov	r1, r2
 8005032:	4618      	mov	r0, r3
 8005034:	f001 fcc8 	bl	80069c8 <HAL_RCC_GetClockConfig>

  /* Compute TIM6 clock */
  uwTimclock = HAL_RCC_GetPCLK1Freq();
 8005038:	f001 fc9e 	bl	8006978 <HAL_RCC_GetPCLK1Freq>
 800503c:	62f8      	str	r0, [r7, #44]	; 0x2c
  /* Compute the prescaler value to have TIM6 counter clock equal to 1MHz */
  uwPrescalerValue = (uint32_t) ((uwTimclock / 1000000U) - 1U);
 800503e:	6afb      	ldr	r3, [r7, #44]	; 0x2c
 8005040:	4a13      	ldr	r2, [pc, #76]	; (8005090 <HAL_InitTick+0xa0>)
 8005042:	fba2 2303 	umull	r2, r3, r2, r3
 8005046:	0c9b      	lsrs	r3, r3, #18
 8005048:	3b01      	subs	r3, #1
 800504a:	62bb      	str	r3, [r7, #40]	; 0x28

  /* Initialize TIM6 */
  htim6.Instance = TIM6;
 800504c:	4b11      	ldr	r3, [pc, #68]	; (8005094 <HAL_InitTick+0xa4>)
 800504e:	4a12      	ldr	r2, [pc, #72]	; (8005098 <HAL_InitTick+0xa8>)
 8005050:	601a      	str	r2, [r3, #0]
  + Period = [(TIM6CLK/1000) - 1]. to have a (1/1000) s time base.
  + Prescaler = (uwTimclock/1000000 - 1) to have a 1MHz counter clock.
  + ClockDivision = 0
  + Counter direction = Up
  */
  htim6.Init.Period = (1000000U / 1000U) - 1U;
 8005052:	4b10      	ldr	r3, [pc, #64]	; (8005094 <HAL_InitTick+0xa4>)
 8005054:	f240 32e7 	movw	r2, #999	; 0x3e7
 8005058:	60da      	str	r2, [r3, #12]
  htim6.Init.Prescaler = uwPrescalerValue;
 800505a:	4a0e      	ldr	r2, [pc, #56]	; (8005094 <HAL_InitTick+0xa4>)
 800505c:	6abb      	ldr	r3, [r7, #40]	; 0x28
 800505e:	6053      	str	r3, [r2, #4]
  htim6.Init.ClockDivision = 0;
 8005060:	4b0c      	ldr	r3, [pc, #48]	; (8005094 <HAL_InitTick+0xa4>)
 8005062:	2200      	movs	r2, #0
 8005064:	611a      	str	r2, [r3, #16]
  htim6.Init.CounterMode = TIM_COUNTERMODE_UP;
 8005066:	4b0b      	ldr	r3, [pc, #44]	; (8005094 <HAL_InitTick+0xa4>)
 8005068:	2200      	movs	r2, #0
 800506a:	609a      	str	r2, [r3, #8]

  if(HAL_TIM_Base_Init(&htim6) == HAL_OK)
 800506c:	4809      	ldr	r0, [pc, #36]	; (8005094 <HAL_InitTick+0xa4>)
 800506e:	f002 fb57 	bl	8007720 <HAL_TIM_Base_Init>
 8005072:	4603      	mov	r3, r0
 8005074:	2b00      	cmp	r3, #0
 8005076:	d104      	bne.n	8005082 <HAL_InitTick+0x92>
  {
    /* Start the TIM time Base generation in interrupt mode */
    return HAL_TIM_Base_Start_IT(&htim6);
 8005078:	4806      	ldr	r0, [pc, #24]	; (8005094 <HAL_InitTick+0xa4>)
 800507a:	f002 fba1 	bl	80077c0 <HAL_TIM_Base_Start_IT>
 800507e:	4603      	mov	r3, r0
 8005080:	e000      	b.n	8005084 <HAL_InitTick+0x94>
  }

  /* Return function status */
  return HAL_ERROR;
 8005082:	2301      	movs	r3, #1
}
 8005084:	4618      	mov	r0, r3
 8005086:	3730      	adds	r7, #48	; 0x30
 8005088:	46bd      	mov	sp, r7
 800508a:	bd80      	pop	{r7, pc}
 800508c:	40021000 	.word	0x40021000
 8005090:	431bde83 	.word	0x431bde83
 8005094:	2000054c 	.word	0x2000054c
 8005098:	40001000 	.word	0x40001000

0800509c <NMI_Handler>:
/******************************************************************************/
/**
  * @brief This function handles Non maskable interrupt.
  */
void NMI_Handler(void)
{
 800509c:	b480      	push	{r7}
 800509e:	af00      	add	r7, sp, #0
  /* USER CODE BEGIN NonMaskableInt_IRQn 0 */

  /* USER CODE END NonMaskableInt_IRQn 0 */
  /* USER CODE BEGIN NonMaskableInt_IRQn 1 */
  while (1)
 80050a0:	e7fe      	b.n	80050a0 <NMI_Handler+0x4>

080050a2 <HardFault_Handler>:

/**
  * @brief This function handles Hard fault interrupt.
  */
void HardFault_Handler(void)
{
 80050a2:	b480      	push	{r7}
 80050a4:	af00      	add	r7, sp, #0
  /* USER CODE BEGIN HardFault_IRQn 0 */

  /* USER CODE END HardFault_IRQn 0 */
  while (1)
 80050a6:	e7fe      	b.n	80050a6 <HardFault_Handler+0x4>

080050a8 <MemManage_Handler>:

/**
  * @brief This function handles Memory management fault.
  */
void MemManage_Handler(void)
{
 80050a8:	b480      	push	{r7}
 80050aa:	af00      	add	r7, sp, #0
  /* USER CODE BEGIN MemoryManagement_IRQn 0 */

  /* USER CODE END MemoryManagement_IRQn 0 */
  while (1)
 80050ac:	e7fe      	b.n	80050ac <MemManage_Handler+0x4>

080050ae <BusFault_Handler>:

/**
  * @brief This function handles Prefetch fault, memory access fault.
  */
void BusFault_Handler(void)
{
 80050ae:	b480      	push	{r7}
 80050b0:	af00      	add	r7, sp, #0
  /* USER CODE BEGIN BusFault_IRQn 0 */

  /* USER CODE END BusFault_IRQn 0 */
  while (1)
 80050b2:	e7fe      	b.n	80050b2 <BusFault_Handler+0x4>

080050b4 <UsageFault_Handler>:

/**
  * @brief This function handles Undefined instruction or illegal state.
  */
void UsageFault_Handler(void)
{
 80050b4:	b480      	push	{r7}
 80050b6:	af00      	add	r7, sp, #0
  /* USER CODE BEGIN UsageFault_IRQn 0 */

  /* USER CODE END UsageFault_IRQn 0 */
  while (1)
 80050b8:	e7fe      	b.n	80050b8 <UsageFault_Handler+0x4>

080050ba <SVC_Handler>:

/**
  * @brief This function handles System service call via SWI instruction.
  */
void SVC_Handler(void)
{
 80050ba:	b480      	push	{r7}
 80050bc:	af00      	add	r7, sp, #0

  /* USER CODE END SVCall_IRQn 0 */
  /* USER CODE BEGIN SVCall_IRQn 1 */

  /* USER CODE END SVCall_IRQn 1 */
}
 80050be:	bf00      	nop
 80050c0:	46bd      	mov	sp, r7
 80050c2:	bc80      	pop	{r7}
 80050c4:	4770      	bx	lr

080050c6 <DebugMon_Handler>:

/**
  * @brief This function handles Debug monitor.
  */
void DebugMon_Handler(void)
{
 80050c6:	b480      	push	{r7}
 80050c8:	af00      	add	r7, sp, #0

  /* USER CODE END DebugMonitor_IRQn 0 */
  /* USER CODE BEGIN DebugMonitor_IRQn 1 */

  /* USER CODE END DebugMonitor_IRQn 1 */
}
 80050ca:	bf00      	nop
 80050cc:	46bd      	mov	sp, r7
 80050ce:	bc80      	pop	{r7}
 80050d0:	4770      	bx	lr

080050d2 <PendSV_Handler>:

/**
  * @brief This function handles Pendable request for system service.
  */
void PendSV_Handler(void)
{
 80050d2:	b480      	push	{r7}
 80050d4:	af00      	add	r7, sp, #0

  /* USER CODE END PendSV_IRQn 0 */
  /* USER CODE BEGIN PendSV_IRQn 1 */

  /* USER CODE END PendSV_IRQn 1 */
}
 80050d6:	bf00      	nop
 80050d8:	46bd      	mov	sp, r7
 80050da:	bc80      	pop	{r7}
 80050dc:	4770      	bx	lr

080050de <SysTick_Handler>:

/**
  * @brief This function handles System tick timer.
  */
void SysTick_Handler(void)
{
 80050de:	b480      	push	{r7}
 80050e0:	af00      	add	r7, sp, #0
  /* USER CODE END SysTick_IRQn 0 */

  /* USER CODE BEGIN SysTick_IRQn 1 */

  /* USER CODE END SysTick_IRQn 1 */
}
 80050e2:	bf00      	nop
 80050e4:	46bd      	mov	sp, r7
 80050e6:	bc80      	pop	{r7}
 80050e8:	4770      	bx	lr
	...

080050ec <TIM2_IRQHandler>:

/**
  * @brief This function handles TIM2 global interrupt.
  */
void TIM2_IRQHandler(void)
{
 80050ec:	b580      	push	{r7, lr}
 80050ee:	af00      	add	r7, sp, #0
  /* USER CODE BEGIN TIM2_IRQn 0 */

  /* USER CODE END TIM2_IRQn 0 */
  HAL_TIM_IRQHandler(&htim2);
 80050f0:	4802      	ldr	r0, [pc, #8]	; (80050fc <TIM2_IRQHandler+0x10>)
 80050f2:	f002 fbbf 	bl	8007874 <HAL_TIM_IRQHandler>
  /* USER CODE BEGIN TIM2_IRQn 1 */

  /* USER CODE END TIM2_IRQn 1 */
}
 80050f6:	bf00      	nop
 80050f8:	bd80      	pop	{r7, pc}
 80050fa:	bf00      	nop
 80050fc:	20000504 	.word	0x20000504

08005100 <TIM6_DAC_IRQHandler>:

/**
  * @brief This function handles TIM6 global interrupt and DAC underrun error interrupts.
  */
void TIM6_DAC_IRQHandler(void)
{
 8005100:	b580      	push	{r7, lr}
 8005102:	af00      	add	r7, sp, #0
  /* USER CODE BEGIN TIM6_DAC_IRQn 0 */

  /* USER CODE END TIM6_DAC_IRQn 0 */
  HAL_TIM_IRQHandler(&htim6);
 8005104:	4802      	ldr	r0, [pc, #8]	; (8005110 <TIM6_DAC_IRQHandler+0x10>)
 8005106:	f002 fbb5 	bl	8007874 <HAL_TIM_IRQHandler>
  /* USER CODE BEGIN TIM6_DAC_IRQn 1 */

  /* USER CODE END TIM6_DAC_IRQn 1 */
}
 800510a:	bf00      	nop
 800510c:	bd80      	pop	{r7, pc}
 800510e:	bf00      	nop
 8005110:	2000054c 	.word	0x2000054c

08005114 <SystemInit>:
  * @note   This function should be used only after reset.
  * @param  None
  * @retval None
  */
void SystemInit (void)
{
 8005114:	b480      	push	{r7}
 8005116:	af00      	add	r7, sp, #0

  /* Configure the Vector Table location -------------------------------------*/
#if defined(USER_VECT_TAB_ADDRESS)
  SCB->VTOR = VECT_TAB_BASE_ADDRESS | VECT_TAB_OFFSET; /* Vector Table Relocation in Internal SRAM. */
#endif /* USER_VECT_TAB_ADDRESS */
}
 8005118:	bf00      	nop
 800511a:	46bd      	mov	sp, r7
 800511c:	bc80      	pop	{r7}
 800511e:	4770      	bx	lr

08005120 <calcChecksum>:

#include <string.h>
#include <ublox.h>

struct ubxChecksumType calcChecksum(uint8_t *message, uint16_t size)
{
 8005120:	b480      	push	{r7}
 8005122:	b087      	sub	sp, #28
 8005124:	af00      	add	r7, sp, #0
 8005126:	6078      	str	r0, [r7, #4]
 8005128:	460b      	mov	r3, r1
 800512a:	807b      	strh	r3, [r7, #2]
	struct ubxChecksumType ck = {0, 0};
 800512c:	2300      	movs	r3, #0
 800512e:	733b      	strb	r3, [r7, #12]
 8005130:	2300      	movs	r3, #0
 8005132:	737b      	strb	r3, [r7, #13]

	for(int i = 0;i<size;i++)
 8005134:	2300      	movs	r3, #0
 8005136:	617b      	str	r3, [r7, #20]
 8005138:	e00f      	b.n	800515a <calcChecksum+0x3a>
	{
		ck.ck_a = ck.ck_a + message[i];
 800513a:	7b3a      	ldrb	r2, [r7, #12]
 800513c:	697b      	ldr	r3, [r7, #20]
 800513e:	6879      	ldr	r1, [r7, #4]
 8005140:	440b      	add	r3, r1
 8005142:	781b      	ldrb	r3, [r3, #0]
 8005144:	4413      	add	r3, r2
 8005146:	b2db      	uxtb	r3, r3
 8005148:	733b      	strb	r3, [r7, #12]
		ck.ck_b = ck.ck_b + ck.ck_a;
 800514a:	7b7a      	ldrb	r2, [r7, #13]
 800514c:	7b3b      	ldrb	r3, [r7, #12]
 800514e:	4413      	add	r3, r2
 8005150:	b2db      	uxtb	r3, r3
 8005152:	737b      	strb	r3, [r7, #13]
	for(int i = 0;i<size;i++)
 8005154:	697b      	ldr	r3, [r7, #20]
 8005156:	3301      	adds	r3, #1
 8005158:	617b      	str	r3, [r7, #20]
 800515a:	887b      	ldrh	r3, [r7, #2]
 800515c:	697a      	ldr	r2, [r7, #20]
 800515e:	429a      	cmp	r2, r3
 8005160:	dbeb      	blt.n	800513a <calcChecksum+0x1a>
	}

	return ck;
 8005162:	89bb      	ldrh	r3, [r7, #12]
 8005164:	823b      	strh	r3, [r7, #16]
 8005166:	2300      	movs	r3, #0
 8005168:	7c3a      	ldrb	r2, [r7, #16]
 800516a:	f362 0307 	bfi	r3, r2, #0, #8
 800516e:	7c7a      	ldrb	r2, [r7, #17]
 8005170:	f362 230f 	bfi	r3, r2, #8, #8
}
 8005174:	4618      	mov	r0, r3
 8005176:	371c      	adds	r7, #28
 8005178:	46bd      	mov	sp, r7
 800517a:	bc80      	pop	{r7}
 800517c:	4770      	bx	lr

0800517e <setGPS_DynamicModel6>:

// Configure flight mode - needed above 18km altitude
// Notes: Tweaked the PDOP limits a bit, to make it a bit more likely to report a position.
GPS_StatusTypeDef setGPS_DynamicModel6(UART_HandleTypeDef *huart)
{
 800517e:	b580      	push	{r7, lr}
 8005180:	b09a      	sub	sp, #104	; 0x68
 8005182:	af02      	add	r7, sp, #8
 8005184:	6078      	str	r0, [r7, #4]
	HAL_StatusTypeDef HAL_Status;
	GPS_StatusTypeDef gpsStatus  = GPS_OK;
 8005186:	2300      	movs	r3, #0
 8005188:	f887 305f 	strb.w	r3, [r7, #95]	; 0x5f

	uint8_t rspBuf[10];
	uint16_t received;
	uint8_t expectedRsp[10];

	uint8_t resetCmd = 0xff;
 800518c:	23ff      	movs	r3, #255	; 0xff
 800518e:	73fb      	strb	r3, [r7, #15]

	memset(&ubxNavPacket,'\0',sizeof(ubxNavPacket));
 8005190:	f107 0328 	add.w	r3, r7, #40	; 0x28
 8005194:	222c      	movs	r2, #44	; 0x2c
 8005196:	2100      	movs	r1, #0
 8005198:	4618      	mov	r0, r3
 800519a:	f003 fa05 	bl	80085a8 <memset>
	ubxNavPacket.ubxSync.sc1          = 0xb5;
 800519e:	23b5      	movs	r3, #181	; 0xb5
 80051a0:	f887 3028 	strb.w	r3, [r7, #40]	; 0x28
	ubxNavPacket.ubxSync.sc2          = 0x62;
 80051a4:	2362      	movs	r3, #98	; 0x62
 80051a6:	f887 3029 	strb.w	r3, [r7, #41]	; 0x29
	ubxNavPacket.ubxNavMsgData.messageClass = 0x06;
 80051aa:	2306      	movs	r3, #6
 80051ac:	f887 302a 	strb.w	r3, [r7, #42]	; 0x2a
	ubxNavPacket.ubxNavMsgData.messageId    = 0x24;
 80051b0:	2324      	movs	r3, #36	; 0x24
 80051b2:	f887 302b 	strb.w	r3, [r7, #43]	; 0x2b
	ubxNavPacket.ubxNavMsgData.payloadSize  = sizeof(ubxNavPacket.ubxNavMsgData.ubxNavPayload);
 80051b6:	2324      	movs	r3, #36	; 0x24
 80051b8:	85bb      	strh	r3, [r7, #44]	; 0x2c
	ubxNavPacket.ubxNavMsgData.ubxNavPayload.mask = 0b00000001111111111;
 80051ba:	f240 33ff 	movw	r3, #1023	; 0x3ff
 80051be:	85fb      	strh	r3, [r7, #46]	; 0x2e
	ubxNavPacket.ubxNavMsgData.ubxNavPayload.dynModel        =6;
 80051c0:	2306      	movs	r3, #6
 80051c2:	f887 3030 	strb.w	r3, [r7, #48]	; 0x30
	ubxNavPacket.ubxNavMsgData.ubxNavPayload.fixMode         =2;
 80051c6:	2302      	movs	r3, #2
 80051c8:	f887 3031 	strb.w	r3, [r7, #49]	; 0x31
	ubxNavPacket.ubxNavMsgData.ubxNavPayload.fixedAlt        =0;
 80051cc:	2300      	movs	r3, #0
 80051ce:	867b      	strh	r3, [r7, #50]	; 0x32
 80051d0:	2300      	movs	r3, #0
 80051d2:	86bb      	strh	r3, [r7, #52]	; 0x34
	ubxNavPacket.ubxNavMsgData.ubxNavPayload.fixedAltVar     =10000;
 80051d4:	2300      	movs	r3, #0
 80051d6:	f443 531c 	orr.w	r3, r3, #9984	; 0x2700
 80051da:	f043 0310 	orr.w	r3, r3, #16
 80051de:	86fb      	strh	r3, [r7, #54]	; 0x36
 80051e0:	2300      	movs	r3, #0
 80051e2:	873b      	strh	r3, [r7, #56]	; 0x38
	ubxNavPacket.ubxNavMsgData.ubxNavPayload.minElv          =5;
 80051e4:	2305      	movs	r3, #5
 80051e6:	f887 303a 	strb.w	r3, [r7, #58]	; 0x3a
	ubxNavPacket.ubxNavMsgData.ubxNavPayload.drLimit         =0;
 80051ea:	2300      	movs	r3, #0
 80051ec:	f887 303b 	strb.w	r3, [r7, #59]	; 0x3b
	ubxNavPacket.ubxNavMsgData.ubxNavPayload.pDop            =100;
 80051f0:	2364      	movs	r3, #100	; 0x64
 80051f2:	87bb      	strh	r3, [r7, #60]	; 0x3c
	ubxNavPacket.ubxNavMsgData.ubxNavPayload.tDop            =100;
 80051f4:	2364      	movs	r3, #100	; 0x64
 80051f6:	87fb      	strh	r3, [r7, #62]	; 0x3e
	ubxNavPacket.ubxNavMsgData.ubxNavPayload.pAcc            =100;
 80051f8:	2364      	movs	r3, #100	; 0x64
 80051fa:	f8a7 3040 	strh.w	r3, [r7, #64]	; 0x40
	ubxNavPacket.ubxNavMsgData.ubxNavPayload.tAcc            =200;
 80051fe:	23c8      	movs	r3, #200	; 0xc8
 8005200:	f8a7 3042 	strh.w	r3, [r7, #66]	; 0x42
	ubxNavPacket.ubxNavMsgData.ubxNavPayload.staticHoldThres =0;
 8005204:	2300      	movs	r3, #0
 8005206:	f887 3044 	strb.w	r3, [r7, #68]	; 0x44
	ubxNavPacket.ubxNavMsgData.ubxNavPayload.dgpsTimeOut     =2;
 800520a:	2302      	movs	r3, #2
 800520c:	f887 3045 	strb.w	r3, [r7, #69]	; 0x45
	ubxNavPacket.ubxNavMsgData.ubxNavPayload.reserved1       = 0;
 8005210:	2300      	movs	r3, #0
 8005212:	f8a7 3046 	strh.w	r3, [r7, #70]	; 0x46
 8005216:	2300      	movs	r3, #0
 8005218:	f8a7 3048 	strh.w	r3, [r7, #72]	; 0x48
	ubxNavPacket.ubxNavMsgData.ubxNavPayload.reserved2       = 0;
 800521c:	2300      	movs	r3, #0
 800521e:	f8a7 304a 	strh.w	r3, [r7, #74]	; 0x4a
 8005222:	2300      	movs	r3, #0
 8005224:	f8a7 304c 	strh.w	r3, [r7, #76]	; 0x4c
	ubxNavPacket.ubxNavMsgData.ubxNavPayload.reserved3       = 0;
 8005228:	2300      	movs	r3, #0
 800522a:	f8a7 304e 	strh.w	r3, [r7, #78]	; 0x4e
 800522e:	2300      	movs	r3, #0
 8005230:	f8a7 3050 	strh.w	r3, [r7, #80]	; 0x50

	ubxNavPacket.ubxChecksum = calcChecksum((uint8_t *)&ubxNavPacket.ubxNavMsgData,sizeof(ubxNavPacket.ubxNavMsgData));
 8005234:	f107 0328 	add.w	r3, r7, #40	; 0x28
 8005238:	3302      	adds	r3, #2
 800523a:	2128      	movs	r1, #40	; 0x28
 800523c:	4618      	mov	r0, r3
 800523e:	f7ff ff6f 	bl	8005120 <calcChecksum>
 8005242:	4603      	mov	r3, r0
 8005244:	f8a7 3052 	strh.w	r3, [r7, #82]	; 0x52

	expectedRsp[0] = ubxNavPacket.ubxSync.sc1; // header
 8005248:	f897 3028 	ldrb.w	r3, [r7, #40]	; 0x28
 800524c:	743b      	strb	r3, [r7, #16]
	expectedRsp[1] = ubxNavPacket.ubxSync.sc2; // header
 800524e:	f897 3029 	ldrb.w	r3, [r7, #41]	; 0x29
 8005252:	747b      	strb	r3, [r7, #17]
	expectedRsp[2] = 0x05; // class
 8005254:	2305      	movs	r3, #5
 8005256:	74bb      	strb	r3, [r7, #18]
	expectedRsp[3] = 0x01; // id
 8005258:	2301      	movs	r3, #1
 800525a:	74fb      	strb	r3, [r7, #19]
	expectedRsp[4] = 0x02; // length
 800525c:	2302      	movs	r3, #2
 800525e:	753b      	strb	r3, [r7, #20]
	expectedRsp[5] = 0x00;
 8005260:	2300      	movs	r3, #0
 8005262:	757b      	strb	r3, [r7, #21]
	expectedRsp[6] = ubxNavPacket.ubxNavMsgData.messageClass; // ACK class
 8005264:	f897 302a 	ldrb.w	r3, [r7, #42]	; 0x2a
 8005268:	75bb      	strb	r3, [r7, #22]
	expectedRsp[7] =ubxNavPacket.ubxNavMsgData.messageId; // ACK id
 800526a:	f897 302b 	ldrb.w	r3, [r7, #43]	; 0x2b
 800526e:	75fb      	strb	r3, [r7, #23]
	expectedRsp[8] = 0x32; // CK_A
 8005270:	2332      	movs	r3, #50	; 0x32
 8005272:	763b      	strb	r3, [r7, #24]
	expectedRsp[9] = 0x5b; // CK_B
 8005274:	235b      	movs	r3, #91	; 0x5b
 8005276:	767b      	strb	r3, [r7, #25]

	HAL_Status = HAL_UART_Transmit(huart,&resetCmd,sizeof(resetCmd),1000);
 8005278:	f107 010f 	add.w	r1, r7, #15
 800527c:	f44f 737a 	mov.w	r3, #1000	; 0x3e8
 8005280:	2201      	movs	r2, #1
 8005282:	6878      	ldr	r0, [r7, #4]
 8005284:	f002 fec1 	bl	800800a <HAL_UART_Transmit>
 8005288:	4603      	mov	r3, r0
 800528a:	f887 3057 	strb.w	r3, [r7, #87]	; 0x57
	HAL_Delay(1000);
 800528e:	f44f 707a 	mov.w	r0, #1000	; 0x3e8
 8005292:	f000 f8f3 	bl	800547c <HAL_Delay>
	if(HAL_Status != HAL_OK)
 8005296:	f897 3057 	ldrb.w	r3, [r7, #87]	; 0x57
 800529a:	2b00      	cmp	r3, #0
 800529c:	d003      	beq.n	80052a6 <setGPS_DynamicModel6+0x128>
	{
		gpsStatus = GPS_FAIL;
 800529e:	2301      	movs	r3, #1
 80052a0:	f887 305f 	strb.w	r3, [r7, #95]	; 0x5f
 80052a4:	e043      	b.n	800532e <setGPS_DynamicModel6+0x1b0>
	}
	else
	{
		HAL_Status = HAL_UART_Transmit(huart,(uint8_t *)&ubxNavPacket,sizeof(ubxNavPacket),1000);
 80052a6:	f107 0128 	add.w	r1, r7, #40	; 0x28
 80052aa:	f44f 737a 	mov.w	r3, #1000	; 0x3e8
 80052ae:	222c      	movs	r2, #44	; 0x2c
 80052b0:	6878      	ldr	r0, [r7, #4]
 80052b2:	f002 feaa 	bl	800800a <HAL_UART_Transmit>
 80052b6:	4603      	mov	r3, r0
 80052b8:	f887 3057 	strb.w	r3, [r7, #87]	; 0x57
		if(HAL_Status != HAL_OK)
 80052bc:	f897 3057 	ldrb.w	r3, [r7, #87]	; 0x57
 80052c0:	2b00      	cmp	r3, #0
 80052c2:	d003      	beq.n	80052cc <setGPS_DynamicModel6+0x14e>
		{
			gpsStatus = GPS_FAIL;
 80052c4:	2301      	movs	r3, #1
 80052c6:	f887 305f 	strb.w	r3, [r7, #95]	; 0x5f
 80052ca:	e030      	b.n	800532e <setGPS_DynamicModel6+0x1b0>
		}
		else
		{
			HAL_Status = HAL_UARTEx_ReceiveToIdle(huart, rspBuf, sizeof(rspBuf), &received, 3000);
 80052cc:	f107 031a 	add.w	r3, r7, #26
 80052d0:	f107 011c 	add.w	r1, r7, #28
 80052d4:	f640 32b8 	movw	r2, #3000	; 0xbb8
 80052d8:	9200      	str	r2, [sp, #0]
 80052da:	220a      	movs	r2, #10
 80052dc:	6878      	ldr	r0, [r7, #4]
 80052de:	f002 ff26 	bl	800812e <HAL_UARTEx_ReceiveToIdle>
 80052e2:	4603      	mov	r3, r0
 80052e4:	f887 3057 	strb.w	r3, [r7, #87]	; 0x57
			if(received != sizeof(rspBuf))
 80052e8:	8b7b      	ldrh	r3, [r7, #26]
 80052ea:	2b0a      	cmp	r3, #10
 80052ec:	d003      	beq.n	80052f6 <setGPS_DynamicModel6+0x178>
			{
				gpsStatus = GPS_FAIL;
 80052ee:	2301      	movs	r3, #1
 80052f0:	f887 305f 	strb.w	r3, [r7, #95]	; 0x5f
 80052f4:	e01b      	b.n	800532e <setGPS_DynamicModel6+0x1b0>
			}
			else
			{
				if(HAL_Status == HAL_OK)
 80052f6:	f897 3057 	ldrb.w	r3, [r7, #87]	; 0x57
 80052fa:	2b00      	cmp	r3, #0
 80052fc:	d117      	bne.n	800532e <setGPS_DynamicModel6+0x1b0>
				{
					for(int i=0;i<sizeof(rspBuf);i++)
 80052fe:	2300      	movs	r3, #0
 8005300:	65bb      	str	r3, [r7, #88]	; 0x58
 8005302:	e011      	b.n	8005328 <setGPS_DynamicModel6+0x1aa>
				    {
						if(rspBuf[i] != expectedRsp[i])
 8005304:	f107 021c 	add.w	r2, r7, #28
 8005308:	6dbb      	ldr	r3, [r7, #88]	; 0x58
 800530a:	4413      	add	r3, r2
 800530c:	781a      	ldrb	r2, [r3, #0]
 800530e:	f107 0110 	add.w	r1, r7, #16
 8005312:	6dbb      	ldr	r3, [r7, #88]	; 0x58
 8005314:	440b      	add	r3, r1
 8005316:	781b      	ldrb	r3, [r3, #0]
 8005318:	429a      	cmp	r2, r3
 800531a:	d002      	beq.n	8005322 <setGPS_DynamicModel6+0x1a4>
					    {
							gpsStatus = GPS_FAIL;
 800531c:	2301      	movs	r3, #1
 800531e:	f887 305f 	strb.w	r3, [r7, #95]	; 0x5f
					for(int i=0;i<sizeof(rspBuf);i++)
 8005322:	6dbb      	ldr	r3, [r7, #88]	; 0x58
 8005324:	3301      	adds	r3, #1
 8005326:	65bb      	str	r3, [r7, #88]	; 0x58
 8005328:	6dbb      	ldr	r3, [r7, #88]	; 0x58
 800532a:	2b09      	cmp	r3, #9
 800532c:	d9ea      	bls.n	8005304 <setGPS_DynamicModel6+0x186>
				}
			}
		}
	}

	return gpsStatus;
 800532e:	f897 305f 	ldrb.w	r3, [r7, #95]	; 0x5f
}
 8005332:	4618      	mov	r0, r3
 8005334:	3760      	adds	r7, #96	; 0x60
 8005336:	46bd      	mov	sp, r7
 8005338:	bd80      	pop	{r7, pc}
	...

0800533c <disableNMEA>:

GPS_StatusTypeDef disableNMEA(UART_HandleTypeDef *huart)
{
 800533c:	b580      	push	{r7, lr}
 800533e:	b08a      	sub	sp, #40	; 0x28
 8005340:	af00      	add	r7, sp, #0
 8005342:	6078      	str	r0, [r7, #4]
	HAL_StatusTypeDef HAL_Status;
	GPS_StatusTypeDef gpsStatus  = GPS_OK;
 8005344:	2300      	movs	r3, #0
 8005346:	f887 3027 	strb.w	r3, [r7, #39]	; 0x27
	uint8_t disableSentenceList[] = {0x01,  //GLL
 800534a:	4a24      	ldr	r2, [pc, #144]	; (80053dc <disableNMEA+0xa0>)
 800534c:	f107 0318 	add.w	r3, r7, #24
 8005350:	e892 0003 	ldmia.w	r2, {r0, r1}
 8005354:	6018      	str	r0, [r3, #0]
 8005356:	3304      	adds	r3, #4
 8005358:	7019      	strb	r1, [r3, #0]
									0x05,   //VTG
									0x08};  //ZDA

	struct ubxCFGMSGPacketType ubxCFGMSGPacket;

	ubxCFGMSGPacket.ubxSync.sc1                   = 0xb5;
 800535a:	23b5      	movs	r3, #181	; 0xb5
 800535c:	733b      	strb	r3, [r7, #12]
	ubxCFGMSGPacket.ubxSync.sc2                   = 0x62;
 800535e:	2362      	movs	r3, #98	; 0x62
 8005360:	737b      	strb	r3, [r7, #13]
	ubxCFGMSGPacket.ubxCFGMSGMsgData.messageClass = 0x06;
 8005362:	2306      	movs	r3, #6
 8005364:	73bb      	strb	r3, [r7, #14]
	ubxCFGMSGPacket.ubxCFGMSGMsgData.messageId    = 0x01;
 8005366:	2301      	movs	r3, #1
 8005368:	73fb      	strb	r3, [r7, #15]
	ubxCFGMSGPacket.ubxCFGMSGMsgData.payloadSize  = sizeof(ubxCFGMSGPacket.ubxCFGMSGMsgData.ubxCFGMSGPayload);
 800536a:	2303      	movs	r3, #3
 800536c:	823b      	strh	r3, [r7, #16]
	ubxCFGMSGPacket.ubxCFGMSGMsgData.ubxCFGMSGPayload.msgClass = 0xF0;
 800536e:	23f0      	movs	r3, #240	; 0xf0
 8005370:	74bb      	strb	r3, [r7, #18]
	ubxCFGMSGPacket.ubxCFGMSGMsgData.ubxCFGMSGPayload.rate     = 0;
 8005372:	2300      	movs	r3, #0
 8005374:	753b      	strb	r3, [r7, #20]
	for (int i =0; i < sizeof(disableSentenceList);i++)
 8005376:	2300      	movs	r3, #0
 8005378:	623b      	str	r3, [r7, #32]
 800537a:	e026      	b.n	80053ca <disableNMEA+0x8e>
	{
		ubxCFGMSGPacket.ubxCFGMSGMsgData.ubxCFGMSGPayload.msgID = disableSentenceList[i];
 800537c:	f107 0218 	add.w	r2, r7, #24
 8005380:	6a3b      	ldr	r3, [r7, #32]
 8005382:	4413      	add	r3, r2
 8005384:	781b      	ldrb	r3, [r3, #0]
 8005386:	74fb      	strb	r3, [r7, #19]
		ubxCFGMSGPacket.ubxChecksum = calcChecksum((uint8_t *)&ubxCFGMSGPacket.ubxCFGMSGMsgData,sizeof(ubxCFGMSGPacket.ubxCFGMSGMsgData));
 8005388:	f107 030c 	add.w	r3, r7, #12
 800538c:	3302      	adds	r3, #2
 800538e:	2107      	movs	r1, #7
 8005390:	4618      	mov	r0, r3
 8005392:	f7ff fec5 	bl	8005120 <calcChecksum>
 8005396:	4603      	mov	r3, r0
 8005398:	b21b      	sxth	r3, r3
 800539a:	461a      	mov	r2, r3
 800539c:	757a      	strb	r2, [r7, #21]
 800539e:	f3c3 2307 	ubfx	r3, r3, #8, #8
 80053a2:	75bb      	strb	r3, [r7, #22]
		HAL_Status = HAL_UART_Transmit(huart,(uint8_t *)&ubxCFGMSGPacket,sizeof(ubxCFGMSGPacket),1000);
 80053a4:	f107 010c 	add.w	r1, r7, #12
 80053a8:	f44f 737a 	mov.w	r3, #1000	; 0x3e8
 80053ac:	220b      	movs	r2, #11
 80053ae:	6878      	ldr	r0, [r7, #4]
 80053b0:	f002 fe2b 	bl	800800a <HAL_UART_Transmit>
 80053b4:	4603      	mov	r3, r0
 80053b6:	77fb      	strb	r3, [r7, #31]
		if(HAL_Status != HAL_OK)
 80053b8:	7ffb      	ldrb	r3, [r7, #31]
 80053ba:	2b00      	cmp	r3, #0
 80053bc:	d002      	beq.n	80053c4 <disableNMEA+0x88>
		{
			gpsStatus = GPS_FAIL;
 80053be:	2301      	movs	r3, #1
 80053c0:	f887 3027 	strb.w	r3, [r7, #39]	; 0x27
	for (int i =0; i < sizeof(disableSentenceList);i++)
 80053c4:	6a3b      	ldr	r3, [r7, #32]
 80053c6:	3301      	adds	r3, #1
 80053c8:	623b      	str	r3, [r7, #32]
 80053ca:	6a3b      	ldr	r3, [r7, #32]
 80053cc:	2b04      	cmp	r3, #4
 80053ce:	d9d5      	bls.n	800537c <disableNMEA+0x40>
		}

	}

	return gpsStatus;
 80053d0:	f897 3027 	ldrb.w	r3, [r7, #39]	; 0x27
}
 80053d4:	4618      	mov	r0, r3
 80053d6:	3728      	adds	r7, #40	; 0x28
 80053d8:	46bd      	mov	sp, r7
 80053da:	bd80      	pop	{r7, pc}
 80053dc:	080086f8 	.word	0x080086f8

080053e0 <Reset_Handler>:
  .weak Reset_Handler
  .type Reset_Handler, %function
Reset_Handler:

/* Copy the data segment initializers from flash to SRAM */
  ldr r0, =_sdata
 80053e0:	480c      	ldr	r0, [pc, #48]	; (8005414 <LoopFillZerobss+0x12>)
  ldr r1, =_edata
 80053e2:	490d      	ldr	r1, [pc, #52]	; (8005418 <LoopFillZerobss+0x16>)
  ldr r2, =_sidata
 80053e4:	4a0d      	ldr	r2, [pc, #52]	; (800541c <LoopFillZerobss+0x1a>)
  movs r3, #0
 80053e6:	2300      	movs	r3, #0
  b LoopCopyDataInit
 80053e8:	e002      	b.n	80053f0 <LoopCopyDataInit>

080053ea <CopyDataInit>:

CopyDataInit:
  ldr r4, [r2, r3]
 80053ea:	58d4      	ldr	r4, [r2, r3]
  str r4, [r0, r3]
 80053ec:	50c4      	str	r4, [r0, r3]
  adds r3, r3, #4
 80053ee:	3304      	adds	r3, #4

080053f0 <LoopCopyDataInit>:

LoopCopyDataInit:
  adds r4, r0, r3
 80053f0:	18c4      	adds	r4, r0, r3
  cmp r4, r1
 80053f2:	428c      	cmp	r4, r1
  bcc CopyDataInit
 80053f4:	d3f9      	bcc.n	80053ea <CopyDataInit>
  
/* Zero fill the bss segment. */
  ldr r2, =_sbss
 80053f6:	4a0a      	ldr	r2, [pc, #40]	; (8005420 <LoopFillZerobss+0x1e>)
  ldr r4, =_ebss
 80053f8:	4c0a      	ldr	r4, [pc, #40]	; (8005424 <LoopFillZerobss+0x22>)
  movs r3, #0
 80053fa:	2300      	movs	r3, #0
  b LoopFillZerobss
 80053fc:	e001      	b.n	8005402 <LoopFillZerobss>

080053fe <FillZerobss>:

FillZerobss:
  str  r3, [r2]
 80053fe:	6013      	str	r3, [r2, #0]
  adds r2, r2, #4
 8005400:	3204      	adds	r2, #4

08005402 <LoopFillZerobss>:

LoopFillZerobss:
  cmp r2, r4
 8005402:	42a2      	cmp	r2, r4
  bcc FillZerobss
 8005404:	d3fb      	bcc.n	80053fe <FillZerobss>

/* Call the clock system intitialization function.*/
    bl  SystemInit
 8005406:	f7ff fe85 	bl	8005114 <SystemInit>
/* Call static constructors */
    bl __libc_init_array
 800540a:	f003 f89b 	bl	8008544 <__libc_init_array>
/* Call the application's entry point.*/
  bl main
 800540e:	f7fe fcdd 	bl	8003dcc <main>
  bx lr
 8005412:	4770      	bx	lr
  ldr r0, =_sdata
 8005414:	20000000 	.word	0x20000000
  ldr r1, =_edata
 8005418:	20000040 	.word	0x20000040
  ldr r2, =_sidata
 800541c:	08008748 	.word	0x08008748
  ldr r2, =_sbss
 8005420:	20000040 	.word	0x20000040
  ldr r4, =_ebss
 8005424:	20000598 	.word	0x20000598

08005428 <ADC1_IRQHandler>:
 * @retval : None
*/
    .section .text.Default_Handler,"ax",%progbits
Default_Handler:
Infinite_Loop:
  b Infinite_Loop
 8005428:	e7fe      	b.n	8005428 <ADC1_IRQHandler>

0800542a <HAL_Init>:
  *         need to ensure that the SysTick time base is always set to 1 millisecond
  *         to have correct HAL operation.
  * @retval HAL status
  */
HAL_StatusTypeDef HAL_Init(void)
{
 800542a:	b580      	push	{r7, lr}
 800542c:	af00      	add	r7, sp, #0
  __HAL_FLASH_PREFETCH_BUFFER_ENABLE();
#endif
#endif /* PREFETCH_ENABLE */

  /* Set Interrupt Group Priority */
  HAL_NVIC_SetPriorityGrouping(NVIC_PRIORITYGROUP_4);
 800542e:	2003      	movs	r0, #3
 8005430:	f000 fd10 	bl	8005e54 <HAL_NVIC_SetPriorityGrouping>

  /* Use systick as time base source and configure 1ms tick (default clock after Reset is HSI) */
  HAL_InitTick(TICK_INT_PRIORITY);
 8005434:	200f      	movs	r0, #15
 8005436:	f7ff fddb 	bl	8004ff0 <HAL_InitTick>

  /* Init the low level hardware */
  HAL_MspInit();
 800543a:	f7ff fc73 	bl	8004d24 <HAL_MspInit>

  /* Return function status */
  return HAL_OK;
 800543e:	2300      	movs	r3, #0
}
 8005440:	4618      	mov	r0, r3
 8005442:	bd80      	pop	{r7, pc}

08005444 <HAL_IncTick>:
  * @note This function is declared as __weak to be overwritten in case of other
  *      implementations in user file.
  * @retval None
  */
__weak void HAL_IncTick(void)
{
 8005444:	b480      	push	{r7}
 8005446:	af00      	add	r7, sp, #0
  uwTick += uwTickFreq;
 8005448:	4b05      	ldr	r3, [pc, #20]	; (8005460 <HAL_IncTick+0x1c>)
 800544a:	781b      	ldrb	r3, [r3, #0]
 800544c:	461a      	mov	r2, r3
 800544e:	4b05      	ldr	r3, [pc, #20]	; (8005464 <HAL_IncTick+0x20>)
 8005450:	681b      	ldr	r3, [r3, #0]
 8005452:	4413      	add	r3, r2
 8005454:	4a03      	ldr	r2, [pc, #12]	; (8005464 <HAL_IncTick+0x20>)
 8005456:	6013      	str	r3, [r2, #0]
}
 8005458:	bf00      	nop
 800545a:	46bd      	mov	sp, r7
 800545c:	bc80      	pop	{r7}
 800545e:	4770      	bx	lr
 8005460:	2000003c 	.word	0x2000003c
 8005464:	20000594 	.word	0x20000594

08005468 <HAL_GetTick>:
  * @note  This function is declared as __weak to be overwritten in case of other
  *       implementations in user file.
  * @retval tick value
  */
__weak uint32_t HAL_GetTick(void)
{
 8005468:	b480      	push	{r7}
 800546a:	af00      	add	r7, sp, #0
  return uwTick;
 800546c:	4b02      	ldr	r3, [pc, #8]	; (8005478 <HAL_GetTick+0x10>)
 800546e:	681b      	ldr	r3, [r3, #0]
}
 8005470:	4618      	mov	r0, r3
 8005472:	46bd      	mov	sp, r7
 8005474:	bc80      	pop	{r7}
 8005476:	4770      	bx	lr
 8005478:	20000594 	.word	0x20000594

0800547c <HAL_Delay>:
  *       implementations in user file.
  * @param Delay specifies the delay time length, in milliseconds.
  * @retval None
  */
__weak void HAL_Delay(uint32_t Delay)
{
 800547c:	b580      	push	{r7, lr}
 800547e:	b084      	sub	sp, #16
 8005480:	af00      	add	r7, sp, #0
 8005482:	6078      	str	r0, [r7, #4]
  uint32_t tickstart = HAL_GetTick();
 8005484:	f7ff fff0 	bl	8005468 <HAL_GetTick>
 8005488:	60b8      	str	r0, [r7, #8]
  uint32_t wait = Delay;
 800548a:	687b      	ldr	r3, [r7, #4]
 800548c:	60fb      	str	r3, [r7, #12]

  /* Add a freq to guarantee minimum wait */
  if (wait < HAL_MAX_DELAY)
 800548e:	68fb      	ldr	r3, [r7, #12]
 8005490:	f1b3 3fff 	cmp.w	r3, #4294967295
 8005494:	d005      	beq.n	80054a2 <HAL_Delay+0x26>
  {
    wait += (uint32_t)(uwTickFreq);
 8005496:	4b0a      	ldr	r3, [pc, #40]	; (80054c0 <HAL_Delay+0x44>)
 8005498:	781b      	ldrb	r3, [r3, #0]
 800549a:	461a      	mov	r2, r3
 800549c:	68fb      	ldr	r3, [r7, #12]
 800549e:	4413      	add	r3, r2
 80054a0:	60fb      	str	r3, [r7, #12]
  }

  while ((HAL_GetTick() - tickstart) < wait)
 80054a2:	bf00      	nop
 80054a4:	f7ff ffe0 	bl	8005468 <HAL_GetTick>
 80054a8:	4602      	mov	r2, r0
 80054aa:	68bb      	ldr	r3, [r7, #8]
 80054ac:	1ad3      	subs	r3, r2, r3
 80054ae:	68fa      	ldr	r2, [r7, #12]
 80054b0:	429a      	cmp	r2, r3
 80054b2:	d8f7      	bhi.n	80054a4 <HAL_Delay+0x28>
  {
  }
}
 80054b4:	bf00      	nop
 80054b6:	bf00      	nop
 80054b8:	3710      	adds	r7, #16
 80054ba:	46bd      	mov	sp, r7
 80054bc:	bd80      	pop	{r7, pc}
 80054be:	bf00      	nop
 80054c0:	2000003c 	.word	0x2000003c

080054c4 <HAL_ADC_Init>:
  *         of structure "ADC_InitTypeDef".
  * @param  hadc: ADC handle
  * @retval HAL status
  */
HAL_StatusTypeDef HAL_ADC_Init(ADC_HandleTypeDef* hadc)
{
 80054c4:	b580      	push	{r7, lr}
 80054c6:	b086      	sub	sp, #24
 80054c8:	af00      	add	r7, sp, #0
 80054ca:	6078      	str	r0, [r7, #4]
  HAL_StatusTypeDef tmp_hal_status = HAL_OK;
 80054cc:	2300      	movs	r3, #0
 80054ce:	75fb      	strb	r3, [r7, #23]
  uint32_t tmp_cr1 = 0U;
 80054d0:	2300      	movs	r3, #0
 80054d2:	613b      	str	r3, [r7, #16]
  uint32_t tmp_cr2 = 0U;
 80054d4:	2300      	movs	r3, #0
 80054d6:	60bb      	str	r3, [r7, #8]
  uint32_t tmp_sqr1 = 0U;
 80054d8:	2300      	movs	r3, #0
 80054da:	60fb      	str	r3, [r7, #12]
  
  /* Check ADC handle */
  if(hadc == NULL)
 80054dc:	687b      	ldr	r3, [r7, #4]
 80054de:	2b00      	cmp	r3, #0
 80054e0:	d101      	bne.n	80054e6 <HAL_ADC_Init+0x22>
  {
    return HAL_ERROR;
 80054e2:	2301      	movs	r3, #1
 80054e4:	e0be      	b.n	8005664 <HAL_ADC_Init+0x1a0>
  assert_param(IS_ADC_DATA_ALIGN(hadc->Init.DataAlign));
  assert_param(IS_ADC_SCAN_MODE(hadc->Init.ScanConvMode));
  assert_param(IS_FUNCTIONAL_STATE(hadc->Init.ContinuousConvMode));
  assert_param(IS_ADC_EXTTRIG(hadc->Init.ExternalTrigConv));
  
  if(hadc->Init.ScanConvMode != ADC_SCAN_DISABLE)
 80054e6:	687b      	ldr	r3, [r7, #4]
 80054e8:	689b      	ldr	r3, [r3, #8]
 80054ea:	2b00      	cmp	r3, #0
  /* Refer to header of this file for more details on clock enabling          */
  /* procedure.                                                               */

  /* Actions performed only if ADC is coming from state reset:                */
  /* - Initialization of ADC MSP                                              */
  if (hadc->State == HAL_ADC_STATE_RESET)
 80054ec:	687b      	ldr	r3, [r7, #4]
 80054ee:	6a9b      	ldr	r3, [r3, #40]	; 0x28
 80054f0:	2b00      	cmp	r3, #0
 80054f2:	d109      	bne.n	8005508 <HAL_ADC_Init+0x44>
  {
    /* Initialize ADC error code */
    ADC_CLEAR_ERRORCODE(hadc);
 80054f4:	687b      	ldr	r3, [r7, #4]
 80054f6:	2200      	movs	r2, #0
 80054f8:	62da      	str	r2, [r3, #44]	; 0x2c
    
    /* Allocate lock resource and initialize it */
    hadc->Lock = HAL_UNLOCKED;
 80054fa:	687b      	ldr	r3, [r7, #4]
 80054fc:	2200      	movs	r2, #0
 80054fe:	f883 2024 	strb.w	r2, [r3, #36]	; 0x24
    
    /* Init the low level hardware */
    hadc->MspInitCallback(hadc);
#else
    /* Init the low level hardware */
    HAL_ADC_MspInit(hadc);
 8005502:	6878      	ldr	r0, [r7, #4]
 8005504:	f7ff fc40 	bl	8004d88 <HAL_ADC_MspInit>
  /* Stop potential conversion on going, on regular and injected groups */
  /* Disable ADC peripheral */
  /* Note: In case of ADC already enabled, precaution to not launch an        */
  /*       unwanted conversion while modifying register CR2 by writing 1 to   */
  /*       bit ADON.                                                          */
  tmp_hal_status = ADC_ConversionStop_Disable(hadc);
 8005508:	6878      	ldr	r0, [r7, #4]
 800550a:	f000 fbb7 	bl	8005c7c <ADC_ConversionStop_Disable>
 800550e:	4603      	mov	r3, r0
 8005510:	75fb      	strb	r3, [r7, #23]
  
  
  /* Configuration of ADC parameters if previous preliminary actions are      */ 
  /* correctly completed.                                                     */
  if (HAL_IS_BIT_CLR(hadc->State, HAL_ADC_STATE_ERROR_INTERNAL) &&
 8005512:	687b      	ldr	r3, [r7, #4]
 8005514:	6a9b      	ldr	r3, [r3, #40]	; 0x28
 8005516:	f003 0310 	and.w	r3, r3, #16
 800551a:	2b00      	cmp	r3, #0
 800551c:	f040 8099 	bne.w	8005652 <HAL_ADC_Init+0x18e>
 8005520:	7dfb      	ldrb	r3, [r7, #23]
 8005522:	2b00      	cmp	r3, #0
 8005524:	f040 8095 	bne.w	8005652 <HAL_ADC_Init+0x18e>
      (tmp_hal_status == HAL_OK)                                  )
  {
    /* Set ADC state */
    ADC_STATE_CLR_SET(hadc->State,
 8005528:	687b      	ldr	r3, [r7, #4]
 800552a:	6a9b      	ldr	r3, [r3, #40]	; 0x28
 800552c:	f423 5388 	bic.w	r3, r3, #4352	; 0x1100
 8005530:	f023 0302 	bic.w	r3, r3, #2
 8005534:	f043 0202 	orr.w	r2, r3, #2
 8005538:	687b      	ldr	r3, [r7, #4]
 800553a:	629a      	str	r2, [r3, #40]	; 0x28
    /*  - continuous conversion mode                                          */
    /* Note: External trigger polarity (ADC_CR2_EXTTRIG) is set into          */
    /*       HAL_ADC_Start_xxx functions because if set in this function,     */
    /*       a conversion on injected group would start a conversion also on  */
    /*       regular group after ADC enabling.                                */
    tmp_cr2 |= (hadc->Init.DataAlign                                          |
 800553c:	687b      	ldr	r3, [r7, #4]
 800553e:	685a      	ldr	r2, [r3, #4]
                ADC_CFGR_EXTSEL(hadc, hadc->Init.ExternalTrigConv)            |
 8005540:	687b      	ldr	r3, [r7, #4]
 8005542:	69db      	ldr	r3, [r3, #28]
    tmp_cr2 |= (hadc->Init.DataAlign                                          |
 8005544:	431a      	orrs	r2, r3
                ADC_CR2_CONTINUOUS((uint32_t)hadc->Init.ContinuousConvMode)   );
 8005546:	687b      	ldr	r3, [r7, #4]
 8005548:	7b1b      	ldrb	r3, [r3, #12]
 800554a:	005b      	lsls	r3, r3, #1
                ADC_CFGR_EXTSEL(hadc, hadc->Init.ExternalTrigConv)            |
 800554c:	4313      	orrs	r3, r2
    tmp_cr2 |= (hadc->Init.DataAlign                                          |
 800554e:	68ba      	ldr	r2, [r7, #8]
 8005550:	4313      	orrs	r3, r2
 8005552:	60bb      	str	r3, [r7, #8]

    /* Configuration of ADC:                                                  */
    /*  - scan mode                                                           */
    /*  - discontinuous mode disable/enable                                   */
    /*  - discontinuous mode number of conversions                            */
    tmp_cr1 |= (ADC_CR1_SCAN_SET(hadc->Init.ScanConvMode));
 8005554:	687b      	ldr	r3, [r7, #4]
 8005556:	689b      	ldr	r3, [r3, #8]
 8005558:	f5b3 7f80 	cmp.w	r3, #256	; 0x100
 800555c:	d003      	beq.n	8005566 <HAL_ADC_Init+0xa2>
 800555e:	687b      	ldr	r3, [r7, #4]
 8005560:	689b      	ldr	r3, [r3, #8]
 8005562:	2b01      	cmp	r3, #1
 8005564:	d102      	bne.n	800556c <HAL_ADC_Init+0xa8>
 8005566:	f44f 7380 	mov.w	r3, #256	; 0x100
 800556a:	e000      	b.n	800556e <HAL_ADC_Init+0xaa>
 800556c:	2300      	movs	r3, #0
 800556e:	693a      	ldr	r2, [r7, #16]
 8005570:	4313      	orrs	r3, r2
 8005572:	613b      	str	r3, [r7, #16]
    
    /* Enable discontinuous mode only if continuous mode is disabled */
    /* Note: If parameter "Init.ScanConvMode" is set to disable, parameter    */
    /*       discontinuous is set anyway, but will have no effect on ADC HW.  */
    if (hadc->Init.DiscontinuousConvMode == ENABLE)
 8005574:	687b      	ldr	r3, [r7, #4]
 8005576:	7d1b      	ldrb	r3, [r3, #20]
 8005578:	2b01      	cmp	r3, #1
 800557a:	d119      	bne.n	80055b0 <HAL_ADC_Init+0xec>
    {
      if (hadc->Init.ContinuousConvMode == DISABLE)
 800557c:	687b      	ldr	r3, [r7, #4]
 800557e:	7b1b      	ldrb	r3, [r3, #12]
 8005580:	2b00      	cmp	r3, #0
 8005582:	d109      	bne.n	8005598 <HAL_ADC_Init+0xd4>
      {
        /* Enable the selected ADC regular discontinuous mode */
        /* Set the number of channels to be converted in discontinuous mode */
        SET_BIT(tmp_cr1, ADC_CR1_DISCEN                                            |
 8005584:	687b      	ldr	r3, [r7, #4]
 8005586:	699b      	ldr	r3, [r3, #24]
 8005588:	3b01      	subs	r3, #1
 800558a:	035a      	lsls	r2, r3, #13
 800558c:	693b      	ldr	r3, [r7, #16]
 800558e:	4313      	orrs	r3, r2
 8005590:	f443 6300 	orr.w	r3, r3, #2048	; 0x800
 8005594:	613b      	str	r3, [r7, #16]
 8005596:	e00b      	b.n	80055b0 <HAL_ADC_Init+0xec>
      {
        /* ADC regular group settings continuous and sequencer discontinuous*/
        /* cannot be enabled simultaneously.                                */
        
        /* Update ADC state machine to error */
        SET_BIT(hadc->State, HAL_ADC_STATE_ERROR_CONFIG);
 8005598:	687b      	ldr	r3, [r7, #4]
 800559a:	6a9b      	ldr	r3, [r3, #40]	; 0x28
 800559c:	f043 0220 	orr.w	r2, r3, #32
 80055a0:	687b      	ldr	r3, [r7, #4]
 80055a2:	629a      	str	r2, [r3, #40]	; 0x28
        
        /* Set ADC error code to ADC IP internal error */
        SET_BIT(hadc->ErrorCode, HAL_ADC_ERROR_INTERNAL);
 80055a4:	687b      	ldr	r3, [r7, #4]
 80055a6:	6adb      	ldr	r3, [r3, #44]	; 0x2c
 80055a8:	f043 0201 	orr.w	r2, r3, #1
 80055ac:	687b      	ldr	r3, [r7, #4]
 80055ae:	62da      	str	r2, [r3, #44]	; 0x2c
      }
    }
    
    /* Update ADC configuration register CR1 with previous settings */
      MODIFY_REG(hadc->Instance->CR1,
 80055b0:	687b      	ldr	r3, [r7, #4]
 80055b2:	681b      	ldr	r3, [r3, #0]
 80055b4:	685b      	ldr	r3, [r3, #4]
 80055b6:	f423 4169 	bic.w	r1, r3, #59648	; 0xe900
 80055ba:	687b      	ldr	r3, [r7, #4]
 80055bc:	681b      	ldr	r3, [r3, #0]
 80055be:	693a      	ldr	r2, [r7, #16]
 80055c0:	430a      	orrs	r2, r1
 80055c2:	605a      	str	r2, [r3, #4]
                 ADC_CR1_DISCEN  |
                 ADC_CR1_DISCNUM    ,
                 tmp_cr1             );
    
    /* Update ADC configuration register CR2 with previous settings */
      MODIFY_REG(hadc->Instance->CR2,
 80055c4:	687b      	ldr	r3, [r7, #4]
 80055c6:	681b      	ldr	r3, [r3, #0]
 80055c8:	689a      	ldr	r2, [r3, #8]
 80055ca:	4b28      	ldr	r3, [pc, #160]	; (800566c <HAL_ADC_Init+0x1a8>)
 80055cc:	4013      	ands	r3, r2
 80055ce:	687a      	ldr	r2, [r7, #4]
 80055d0:	6812      	ldr	r2, [r2, #0]
 80055d2:	68b9      	ldr	r1, [r7, #8]
 80055d4:	430b      	orrs	r3, r1
 80055d6:	6093      	str	r3, [r2, #8]
    /*   Note: Scan mode is present by hardware on this device and, if        */
    /*   disabled, discards automatically nb of conversions. Anyway, nb of    */
    /*   conversions is forced to 0x00 for alignment over all STM32 devices.  */
    /* - if scan mode is enabled, regular channels sequence length is set to  */
    /*   parameter "NbrOfConversion"                                          */
    if (ADC_CR1_SCAN_SET(hadc->Init.ScanConvMode) == ADC_SCAN_ENABLE)
 80055d8:	687b      	ldr	r3, [r7, #4]
 80055da:	689b      	ldr	r3, [r3, #8]
 80055dc:	f5b3 7f80 	cmp.w	r3, #256	; 0x100
 80055e0:	d003      	beq.n	80055ea <HAL_ADC_Init+0x126>
 80055e2:	687b      	ldr	r3, [r7, #4]
 80055e4:	689b      	ldr	r3, [r3, #8]
 80055e6:	2b01      	cmp	r3, #1
 80055e8:	d104      	bne.n	80055f4 <HAL_ADC_Init+0x130>
    {
      tmp_sqr1 = ADC_SQR1_L_SHIFT(hadc->Init.NbrOfConversion);
 80055ea:	687b      	ldr	r3, [r7, #4]
 80055ec:	691b      	ldr	r3, [r3, #16]
 80055ee:	3b01      	subs	r3, #1
 80055f0:	051b      	lsls	r3, r3, #20
 80055f2:	60fb      	str	r3, [r7, #12]
    }
      
    MODIFY_REG(hadc->Instance->SQR1,
 80055f4:	687b      	ldr	r3, [r7, #4]
 80055f6:	681b      	ldr	r3, [r3, #0]
 80055f8:	6adb      	ldr	r3, [r3, #44]	; 0x2c
 80055fa:	f423 0170 	bic.w	r1, r3, #15728640	; 0xf00000
 80055fe:	687b      	ldr	r3, [r7, #4]
 8005600:	681b      	ldr	r3, [r3, #0]
 8005602:	68fa      	ldr	r2, [r7, #12]
 8005604:	430a      	orrs	r2, r1
 8005606:	62da      	str	r2, [r3, #44]	; 0x2c
    /* ensure of no potential problem of ADC core IP clocking.                */
    /* Check through register CR2 (excluding bits set in other functions:     */
    /* execution control bits (ADON, JSWSTART, SWSTART), regular group bits   */
    /* (DMA), injected group bits (JEXTTRIG and JEXTSEL), channel internal    */
    /* measurement path bit (TSVREFE).                                        */
    if (READ_BIT(hadc->Instance->CR2, ~(ADC_CR2_ADON | ADC_CR2_DMA |
 8005608:	687b      	ldr	r3, [r7, #4]
 800560a:	681b      	ldr	r3, [r3, #0]
 800560c:	689a      	ldr	r2, [r3, #8]
 800560e:	4b18      	ldr	r3, [pc, #96]	; (8005670 <HAL_ADC_Init+0x1ac>)
 8005610:	4013      	ands	r3, r2
 8005612:	68ba      	ldr	r2, [r7, #8]
 8005614:	429a      	cmp	r2, r3
 8005616:	d10b      	bne.n	8005630 <HAL_ADC_Init+0x16c>
                                        ADC_CR2_JEXTTRIG | ADC_CR2_JEXTSEL |
                                        ADC_CR2_TSVREFE                     ))
         == tmp_cr2)
    {
      /* Set ADC error code to none */
      ADC_CLEAR_ERRORCODE(hadc);
 8005618:	687b      	ldr	r3, [r7, #4]
 800561a:	2200      	movs	r2, #0
 800561c:	62da      	str	r2, [r3, #44]	; 0x2c
      
      /* Set the ADC state */
      ADC_STATE_CLR_SET(hadc->State,
 800561e:	687b      	ldr	r3, [r7, #4]
 8005620:	6a9b      	ldr	r3, [r3, #40]	; 0x28
 8005622:	f023 0303 	bic.w	r3, r3, #3
 8005626:	f043 0201 	orr.w	r2, r3, #1
 800562a:	687b      	ldr	r3, [r7, #4]
 800562c:	629a      	str	r2, [r3, #40]	; 0x28
    if (READ_BIT(hadc->Instance->CR2, ~(ADC_CR2_ADON | ADC_CR2_DMA |
 800562e:	e018      	b.n	8005662 <HAL_ADC_Init+0x19e>
                        HAL_ADC_STATE_READY);
    }
    else
    {
      /* Update ADC state machine to error */
      ADC_STATE_CLR_SET(hadc->State,
 8005630:	687b      	ldr	r3, [r7, #4]
 8005632:	6a9b      	ldr	r3, [r3, #40]	; 0x28
 8005634:	f023 0312 	bic.w	r3, r3, #18
 8005638:	f043 0210 	orr.w	r2, r3, #16
 800563c:	687b      	ldr	r3, [r7, #4]
 800563e:	629a      	str	r2, [r3, #40]	; 0x28
                        HAL_ADC_STATE_BUSY_INTERNAL,
                        HAL_ADC_STATE_ERROR_INTERNAL);
      
      /* Set ADC error code to ADC IP internal error */
      SET_BIT(hadc->ErrorCode, HAL_ADC_ERROR_INTERNAL);
 8005640:	687b      	ldr	r3, [r7, #4]
 8005642:	6adb      	ldr	r3, [r3, #44]	; 0x2c
 8005644:	f043 0201 	orr.w	r2, r3, #1
 8005648:	687b      	ldr	r3, [r7, #4]
 800564a:	62da      	str	r2, [r3, #44]	; 0x2c
      
      tmp_hal_status = HAL_ERROR;
 800564c:	2301      	movs	r3, #1
 800564e:	75fb      	strb	r3, [r7, #23]
    if (READ_BIT(hadc->Instance->CR2, ~(ADC_CR2_ADON | ADC_CR2_DMA |
 8005650:	e007      	b.n	8005662 <HAL_ADC_Init+0x19e>
  
  }
  else
  {
    /* Update ADC state machine to error */
    SET_BIT(hadc->State, HAL_ADC_STATE_ERROR_INTERNAL);
 8005652:	687b      	ldr	r3, [r7, #4]
 8005654:	6a9b      	ldr	r3, [r3, #40]	; 0x28
 8005656:	f043 0210 	orr.w	r2, r3, #16
 800565a:	687b      	ldr	r3, [r7, #4]
 800565c:	629a      	str	r2, [r3, #40]	; 0x28
        
    tmp_hal_status = HAL_ERROR;
 800565e:	2301      	movs	r3, #1
 8005660:	75fb      	strb	r3, [r7, #23]
  }
  
  /* Return function status */
  return tmp_hal_status;
 8005662:	7dfb      	ldrb	r3, [r7, #23]
}
 8005664:	4618      	mov	r0, r3
 8005666:	3718      	adds	r7, #24
 8005668:	46bd      	mov	sp, r7
 800566a:	bd80      	pop	{r7, pc}
 800566c:	ffe1f7fd 	.word	0xffe1f7fd
 8005670:	ff1f0efe 	.word	0xff1f0efe

08005674 <HAL_ADC_Start>:
  *         Interruptions enabled in this function: None.
  * @param  hadc: ADC handle
  * @retval HAL status
  */
HAL_StatusTypeDef HAL_ADC_Start(ADC_HandleTypeDef* hadc)
{
 8005674:	b580      	push	{r7, lr}
 8005676:	b084      	sub	sp, #16
 8005678:	af00      	add	r7, sp, #0
 800567a:	6078      	str	r0, [r7, #4]
  HAL_StatusTypeDef tmp_hal_status = HAL_OK;
 800567c:	2300      	movs	r3, #0
 800567e:	73fb      	strb	r3, [r7, #15]
  
  /* Check the parameters */
  assert_param(IS_ADC_ALL_INSTANCE(hadc->Instance));
  
  /* Process locked */
  __HAL_LOCK(hadc);
 8005680:	687b      	ldr	r3, [r7, #4]
 8005682:	f893 3024 	ldrb.w	r3, [r3, #36]	; 0x24
 8005686:	2b01      	cmp	r3, #1
 8005688:	d101      	bne.n	800568e <HAL_ADC_Start+0x1a>
 800568a:	2302      	movs	r3, #2
 800568c:	e062      	b.n	8005754 <HAL_ADC_Start+0xe0>
 800568e:	687b      	ldr	r3, [r7, #4]
 8005690:	2201      	movs	r2, #1
 8005692:	f883 2024 	strb.w	r2, [r3, #36]	; 0x24
   
  /* Enable the ADC peripheral */
  tmp_hal_status = ADC_Enable(hadc);
 8005696:	6878      	ldr	r0, [r7, #4]
 8005698:	f000 fa96 	bl	8005bc8 <ADC_Enable>
 800569c:	4603      	mov	r3, r0
 800569e:	73fb      	strb	r3, [r7, #15]
  
  /* Start conversion if ADC is effectively enabled */
  if (tmp_hal_status == HAL_OK)
 80056a0:	7bfb      	ldrb	r3, [r7, #15]
 80056a2:	2b00      	cmp	r3, #0
 80056a4:	d151      	bne.n	800574a <HAL_ADC_Start+0xd6>
  {
    /* Set ADC state                                                          */
    /* - Clear state bitfield related to regular group conversion results     */
    /* - Set state bitfield related to regular operation                      */
    ADC_STATE_CLR_SET(hadc->State,
 80056a6:	687b      	ldr	r3, [r7, #4]
 80056a8:	6a9b      	ldr	r3, [r3, #40]	; 0x28
 80056aa:	f423 7340 	bic.w	r3, r3, #768	; 0x300
 80056ae:	f023 0301 	bic.w	r3, r3, #1
 80056b2:	f443 7280 	orr.w	r2, r3, #256	; 0x100
 80056b6:	687b      	ldr	r3, [r7, #4]
 80056b8:	629a      	str	r2, [r3, #40]	; 0x28
    /* for all cases of multimode: independent mode, multimode ADC master     */
    /* or multimode ADC slave (for devices with several ADCs):                */
    if (ADC_NONMULTIMODE_OR_MULTIMODEMASTER(hadc))
    {
      /* Set ADC state (ADC independent or master) */
      CLEAR_BIT(hadc->State, HAL_ADC_STATE_MULTIMODE_SLAVE);
 80056ba:	687b      	ldr	r3, [r7, #4]
 80056bc:	6a9b      	ldr	r3, [r3, #40]	; 0x28
 80056be:	f423 1280 	bic.w	r2, r3, #1048576	; 0x100000
 80056c2:	687b      	ldr	r3, [r7, #4]
 80056c4:	629a      	str	r2, [r3, #40]	; 0x28
      
      /* If conversions on group regular are also triggering group injected,  */
      /* update ADC state.                                                    */
      if (READ_BIT(hadc->Instance->CR1, ADC_CR1_JAUTO) != RESET)
 80056c6:	687b      	ldr	r3, [r7, #4]
 80056c8:	681b      	ldr	r3, [r3, #0]
 80056ca:	685b      	ldr	r3, [r3, #4]
 80056cc:	f403 6380 	and.w	r3, r3, #1024	; 0x400
 80056d0:	2b00      	cmp	r3, #0
 80056d2:	d007      	beq.n	80056e4 <HAL_ADC_Start+0x70>
      {
        ADC_STATE_CLR_SET(hadc->State, HAL_ADC_STATE_INJ_EOC, HAL_ADC_STATE_INJ_BUSY);  
 80056d4:	687b      	ldr	r3, [r7, #4]
 80056d6:	6a9b      	ldr	r3, [r3, #40]	; 0x28
 80056d8:	f423 5340 	bic.w	r3, r3, #12288	; 0x3000
 80056dc:	f443 5280 	orr.w	r2, r3, #4096	; 0x1000
 80056e0:	687b      	ldr	r3, [r7, #4]
 80056e2:	629a      	str	r2, [r3, #40]	; 0x28
        ADC_STATE_CLR_SET(hadc->State, HAL_ADC_STATE_INJ_EOC, HAL_ADC_STATE_INJ_BUSY);
      }
    }
    
    /* State machine update: Check if an injected conversion is ongoing */
    if (HAL_IS_BIT_SET(hadc->State, HAL_ADC_STATE_INJ_BUSY))
 80056e4:	687b      	ldr	r3, [r7, #4]
 80056e6:	6a9b      	ldr	r3, [r3, #40]	; 0x28
 80056e8:	f403 5380 	and.w	r3, r3, #4096	; 0x1000
 80056ec:	2b00      	cmp	r3, #0
 80056ee:	d006      	beq.n	80056fe <HAL_ADC_Start+0x8a>
    {
      /* Reset ADC error code fields related to conversions on group regular */
      CLEAR_BIT(hadc->ErrorCode, (HAL_ADC_ERROR_OVR | HAL_ADC_ERROR_DMA));         
 80056f0:	687b      	ldr	r3, [r7, #4]
 80056f2:	6adb      	ldr	r3, [r3, #44]	; 0x2c
 80056f4:	f023 0206 	bic.w	r2, r3, #6
 80056f8:	687b      	ldr	r3, [r7, #4]
 80056fa:	62da      	str	r2, [r3, #44]	; 0x2c
 80056fc:	e002      	b.n	8005704 <HAL_ADC_Start+0x90>
    }
    else
    {
      /* Reset ADC all error code fields */
      ADC_CLEAR_ERRORCODE(hadc);
 80056fe:	687b      	ldr	r3, [r7, #4]
 8005700:	2200      	movs	r2, #0
 8005702:	62da      	str	r2, [r3, #44]	; 0x2c
    }
    
    /* Process unlocked */
    /* Unlock before starting ADC conversions: in case of potential           */
    /* interruption, to let the process to ADC IRQ Handler.                   */
    __HAL_UNLOCK(hadc);
 8005704:	687b      	ldr	r3, [r7, #4]
 8005706:	2200      	movs	r2, #0
 8005708:	f883 2024 	strb.w	r2, [r3, #36]	; 0x24
  
    /* Clear regular group conversion flag */
    /* (To ensure of no unknown state from potential previous ADC operations) */
    __HAL_ADC_CLEAR_FLAG(hadc, ADC_FLAG_EOC);
 800570c:	687b      	ldr	r3, [r7, #4]
 800570e:	681b      	ldr	r3, [r3, #0]
 8005710:	f06f 0202 	mvn.w	r2, #2
 8005714:	601a      	str	r2, [r3, #0]
    /*  - if ADC is slave, ADC is enabled only (conversion is not started).   */
    /*  - if ADC is master, ADC is enabled and conversion is started.         */
    /* If ADC is master, ADC is enabled and conversion is started.            */
    /* Note: Alternate trigger for single conversion could be to force an     */
    /*       additional set of bit ADON "hadc->Instance->CR2 |= ADC_CR2_ADON;"*/
    if (ADC_IS_SOFTWARE_START_REGULAR(hadc)      &&
 8005716:	687b      	ldr	r3, [r7, #4]
 8005718:	681b      	ldr	r3, [r3, #0]
 800571a:	689b      	ldr	r3, [r3, #8]
 800571c:	f403 2360 	and.w	r3, r3, #917504	; 0xe0000
 8005720:	f5b3 2f60 	cmp.w	r3, #917504	; 0xe0000
 8005724:	d108      	bne.n	8005738 <HAL_ADC_Start+0xc4>
        ADC_NONMULTIMODE_OR_MULTIMODEMASTER(hadc)  )
    {
      /* Start ADC conversion on regular group with SW start */
      SET_BIT(hadc->Instance->CR2, (ADC_CR2_SWSTART | ADC_CR2_EXTTRIG));
 8005726:	687b      	ldr	r3, [r7, #4]
 8005728:	681b      	ldr	r3, [r3, #0]
 800572a:	689a      	ldr	r2, [r3, #8]
 800572c:	687b      	ldr	r3, [r7, #4]
 800572e:	681b      	ldr	r3, [r3, #0]
 8005730:	f442 02a0 	orr.w	r2, r2, #5242880	; 0x500000
 8005734:	609a      	str	r2, [r3, #8]
 8005736:	e00c      	b.n	8005752 <HAL_ADC_Start+0xde>
    }
    else
    {
      /* Start ADC conversion on regular group with external trigger */
      SET_BIT(hadc->Instance->CR2, ADC_CR2_EXTTRIG);
 8005738:	687b      	ldr	r3, [r7, #4]
 800573a:	681b      	ldr	r3, [r3, #0]
 800573c:	689a      	ldr	r2, [r3, #8]
 800573e:	687b      	ldr	r3, [r7, #4]
 8005740:	681b      	ldr	r3, [r3, #0]
 8005742:	f442 1280 	orr.w	r2, r2, #1048576	; 0x100000
 8005746:	609a      	str	r2, [r3, #8]
 8005748:	e003      	b.n	8005752 <HAL_ADC_Start+0xde>
    }
  }
  else
  {
    /* Process unlocked */
    __HAL_UNLOCK(hadc);
 800574a:	687b      	ldr	r3, [r7, #4]
 800574c:	2200      	movs	r2, #0
 800574e:	f883 2024 	strb.w	r2, [r3, #36]	; 0x24
  }
    
  /* Return function status */
  return tmp_hal_status;
 8005752:	7bfb      	ldrb	r3, [r7, #15]
}
 8005754:	4618      	mov	r0, r3
 8005756:	3710      	adds	r7, #16
 8005758:	46bd      	mov	sp, r7
 800575a:	bd80      	pop	{r7, pc}

0800575c <HAL_ADC_Stop>:
  *         should be preliminarily stopped using HAL_ADCEx_InjectedStop function.
  * @param  hadc: ADC handle
  * @retval HAL status.
  */
HAL_StatusTypeDef HAL_ADC_Stop(ADC_HandleTypeDef* hadc)
{
 800575c:	b580      	push	{r7, lr}
 800575e:	b084      	sub	sp, #16
 8005760:	af00      	add	r7, sp, #0
 8005762:	6078      	str	r0, [r7, #4]
  HAL_StatusTypeDef tmp_hal_status = HAL_OK;
 8005764:	2300      	movs	r3, #0
 8005766:	73fb      	strb	r3, [r7, #15]
  
  /* Check the parameters */
  assert_param(IS_ADC_ALL_INSTANCE(hadc->Instance));
     
  /* Process locked */
  __HAL_LOCK(hadc);
 8005768:	687b      	ldr	r3, [r7, #4]
 800576a:	f893 3024 	ldrb.w	r3, [r3, #36]	; 0x24
 800576e:	2b01      	cmp	r3, #1
 8005770:	d101      	bne.n	8005776 <HAL_ADC_Stop+0x1a>
 8005772:	2302      	movs	r3, #2
 8005774:	e01a      	b.n	80057ac <HAL_ADC_Stop+0x50>
 8005776:	687b      	ldr	r3, [r7, #4]
 8005778:	2201      	movs	r2, #1
 800577a:	f883 2024 	strb.w	r2, [r3, #36]	; 0x24
  
  /* Stop potential conversion on going, on regular and injected groups */
  /* Disable ADC peripheral */
  tmp_hal_status = ADC_ConversionStop_Disable(hadc);
 800577e:	6878      	ldr	r0, [r7, #4]
 8005780:	f000 fa7c 	bl	8005c7c <ADC_ConversionStop_Disable>
 8005784:	4603      	mov	r3, r0
 8005786:	73fb      	strb	r3, [r7, #15]
  
  /* Check if ADC is effectively disabled */
  if (tmp_hal_status == HAL_OK)
 8005788:	7bfb      	ldrb	r3, [r7, #15]
 800578a:	2b00      	cmp	r3, #0
 800578c:	d109      	bne.n	80057a2 <HAL_ADC_Stop+0x46>
  {
    /* Set ADC state */
    ADC_STATE_CLR_SET(hadc->State,
 800578e:	687b      	ldr	r3, [r7, #4]
 8005790:	6a9b      	ldr	r3, [r3, #40]	; 0x28
 8005792:	f423 5388 	bic.w	r3, r3, #4352	; 0x1100
 8005796:	f023 0301 	bic.w	r3, r3, #1
 800579a:	f043 0201 	orr.w	r2, r3, #1
 800579e:	687b      	ldr	r3, [r7, #4]
 80057a0:	629a      	str	r2, [r3, #40]	; 0x28
                      HAL_ADC_STATE_REG_BUSY | HAL_ADC_STATE_INJ_BUSY,
                      HAL_ADC_STATE_READY);
  }
  
  /* Process unlocked */
  __HAL_UNLOCK(hadc);
 80057a2:	687b      	ldr	r3, [r7, #4]
 80057a4:	2200      	movs	r2, #0
 80057a6:	f883 2024 	strb.w	r2, [r3, #36]	; 0x24
  
  /* Return function status */
  return tmp_hal_status;
 80057aa:	7bfb      	ldrb	r3, [r7, #15]
}
 80057ac:	4618      	mov	r0, r3
 80057ae:	3710      	adds	r7, #16
 80057b0:	46bd      	mov	sp, r7
 80057b2:	bd80      	pop	{r7, pc}

080057b4 <HAL_ADC_PollForConversion>:
  * @param  hadc: ADC handle
  * @param  Timeout: Timeout value in millisecond.
  * @retval HAL status
  */
HAL_StatusTypeDef HAL_ADC_PollForConversion(ADC_HandleTypeDef* hadc, uint32_t Timeout)
{
 80057b4:	b590      	push	{r4, r7, lr}
 80057b6:	b087      	sub	sp, #28
 80057b8:	af00      	add	r7, sp, #0
 80057ba:	6078      	str	r0, [r7, #4]
 80057bc:	6039      	str	r1, [r7, #0]
  uint32_t tickstart = 0U;
 80057be:	2300      	movs	r3, #0
 80057c0:	617b      	str	r3, [r7, #20]
  
  /* Variables for polling in case of scan mode enabled and polling for each  */
  /* conversion.                                                              */
  __IO uint32_t Conversion_Timeout_CPU_cycles = 0U;
 80057c2:	2300      	movs	r3, #0
 80057c4:	60fb      	str	r3, [r7, #12]
  uint32_t Conversion_Timeout_CPU_cycles_max = 0U;
 80057c6:	2300      	movs	r3, #0
 80057c8:	613b      	str	r3, [r7, #16]
 
  /* Check the parameters */
  assert_param(IS_ADC_ALL_INSTANCE(hadc->Instance));
  
  /* Get tick count */
  tickstart = HAL_GetTick();
 80057ca:	f7ff fe4d 	bl	8005468 <HAL_GetTick>
 80057ce:	6178      	str	r0, [r7, #20]
  
  /* Verification that ADC configuration is compliant with polling for        */
  /* each conversion:                                                         */
  /* Particular case is ADC configured in DMA mode                            */
  if (HAL_IS_BIT_SET(hadc->Instance->CR2, ADC_CR2_DMA))
 80057d0:	687b      	ldr	r3, [r7, #4]
 80057d2:	681b      	ldr	r3, [r3, #0]
 80057d4:	689b      	ldr	r3, [r3, #8]
 80057d6:	f403 7380 	and.w	r3, r3, #256	; 0x100
 80057da:	2b00      	cmp	r3, #0
 80057dc:	d00b      	beq.n	80057f6 <HAL_ADC_PollForConversion+0x42>
  {
    /* Update ADC state machine to error */
    SET_BIT(hadc->State, HAL_ADC_STATE_ERROR_CONFIG);
 80057de:	687b      	ldr	r3, [r7, #4]
 80057e0:	6a9b      	ldr	r3, [r3, #40]	; 0x28
 80057e2:	f043 0220 	orr.w	r2, r3, #32
 80057e6:	687b      	ldr	r3, [r7, #4]
 80057e8:	629a      	str	r2, [r3, #40]	; 0x28
    
    /* Process unlocked */
    __HAL_UNLOCK(hadc);
 80057ea:	687b      	ldr	r3, [r7, #4]
 80057ec:	2200      	movs	r2, #0
 80057ee:	f883 2024 	strb.w	r2, [r3, #36]	; 0x24
    
    return HAL_ERROR;
 80057f2:	2301      	movs	r3, #1
 80057f4:	e0d3      	b.n	800599e <HAL_ADC_PollForConversion+0x1ea>
  /*    from ADC conversion time (selected sampling time + conversion time of */
  /*    12.5 ADC clock cycles) and APB2/ADC clock prescalers (depending on    */
  /*    settings, conversion time range can be from 28 to 32256 CPU cycles).  */
  /*    As flag EOC is not set after each conversion, no timeout status can   */
  /*    be set.                                                               */
  if (HAL_IS_BIT_CLR(hadc->Instance->CR1, ADC_CR1_SCAN) &&
 80057f6:	687b      	ldr	r3, [r7, #4]
 80057f8:	681b      	ldr	r3, [r3, #0]
 80057fa:	685b      	ldr	r3, [r3, #4]
 80057fc:	f403 7380 	and.w	r3, r3, #256	; 0x100
 8005800:	2b00      	cmp	r3, #0
 8005802:	d131      	bne.n	8005868 <HAL_ADC_PollForConversion+0xb4>
      HAL_IS_BIT_CLR(hadc->Instance->SQR1, ADC_SQR1_L)    )
 8005804:	687b      	ldr	r3, [r7, #4]
 8005806:	681b      	ldr	r3, [r3, #0]
 8005808:	6adb      	ldr	r3, [r3, #44]	; 0x2c
 800580a:	f403 0370 	and.w	r3, r3, #15728640	; 0xf00000
  if (HAL_IS_BIT_CLR(hadc->Instance->CR1, ADC_CR1_SCAN) &&
 800580e:	2b00      	cmp	r3, #0
 8005810:	d12a      	bne.n	8005868 <HAL_ADC_PollForConversion+0xb4>
  {
    /* Wait until End of Conversion flag is raised */
    while(HAL_IS_BIT_CLR(hadc->Instance->SR, ADC_FLAG_EOC))
 8005812:	e021      	b.n	8005858 <HAL_ADC_PollForConversion+0xa4>
    {
      /* Check if timeout is disabled (set to infinite wait) */
      if(Timeout != HAL_MAX_DELAY)
 8005814:	683b      	ldr	r3, [r7, #0]
 8005816:	f1b3 3fff 	cmp.w	r3, #4294967295
 800581a:	d01d      	beq.n	8005858 <HAL_ADC_PollForConversion+0xa4>
      {
        if((Timeout == 0U) || ((HAL_GetTick() - tickstart ) > Timeout))
 800581c:	683b      	ldr	r3, [r7, #0]
 800581e:	2b00      	cmp	r3, #0
 8005820:	d007      	beq.n	8005832 <HAL_ADC_PollForConversion+0x7e>
 8005822:	f7ff fe21 	bl	8005468 <HAL_GetTick>
 8005826:	4602      	mov	r2, r0
 8005828:	697b      	ldr	r3, [r7, #20]
 800582a:	1ad3      	subs	r3, r2, r3
 800582c:	683a      	ldr	r2, [r7, #0]
 800582e:	429a      	cmp	r2, r3
 8005830:	d212      	bcs.n	8005858 <HAL_ADC_PollForConversion+0xa4>
        {
          /* New check to avoid false timeout detection in case of preemption */
          if(HAL_IS_BIT_CLR(hadc->Instance->SR, ADC_FLAG_EOC))
 8005832:	687b      	ldr	r3, [r7, #4]
 8005834:	681b      	ldr	r3, [r3, #0]
 8005836:	681b      	ldr	r3, [r3, #0]
 8005838:	f003 0302 	and.w	r3, r3, #2
 800583c:	2b00      	cmp	r3, #0
 800583e:	d10b      	bne.n	8005858 <HAL_ADC_PollForConversion+0xa4>
          {
            /* Update ADC state machine to timeout */
            SET_BIT(hadc->State, HAL_ADC_STATE_TIMEOUT);
 8005840:	687b      	ldr	r3, [r7, #4]
 8005842:	6a9b      	ldr	r3, [r3, #40]	; 0x28
 8005844:	f043 0204 	orr.w	r2, r3, #4
 8005848:	687b      	ldr	r3, [r7, #4]
 800584a:	629a      	str	r2, [r3, #40]	; 0x28
            
            /* Process unlocked */
            __HAL_UNLOCK(hadc);
 800584c:	687b      	ldr	r3, [r7, #4]
 800584e:	2200      	movs	r2, #0
 8005850:	f883 2024 	strb.w	r2, [r3, #36]	; 0x24
            
            return HAL_TIMEOUT;
 8005854:	2303      	movs	r3, #3
 8005856:	e0a2      	b.n	800599e <HAL_ADC_PollForConversion+0x1ea>
    while(HAL_IS_BIT_CLR(hadc->Instance->SR, ADC_FLAG_EOC))
 8005858:	687b      	ldr	r3, [r7, #4]
 800585a:	681b      	ldr	r3, [r3, #0]
 800585c:	681b      	ldr	r3, [r3, #0]
 800585e:	f003 0302 	and.w	r3, r3, #2
 8005862:	2b00      	cmp	r3, #0
 8005864:	d0d6      	beq.n	8005814 <HAL_ADC_PollForConversion+0x60>
  if (HAL_IS_BIT_CLR(hadc->Instance->CR1, ADC_CR1_SCAN) &&
 8005866:	e070      	b.n	800594a <HAL_ADC_PollForConversion+0x196>
    /* Replace polling by wait for maximum conversion time */
    /*  - Computation of CPU clock cycles corresponding to ADC clock cycles   */
    /*    and ADC maximum conversion cycles on all channels.                  */
    /*  - Wait for the expected ADC clock cycles delay                        */
    Conversion_Timeout_CPU_cycles_max = ((SystemCoreClock
                                          / HAL_RCCEx_GetPeriphCLKFreq(RCC_PERIPHCLK_ADC))
 8005868:	4b4f      	ldr	r3, [pc, #316]	; (80059a8 <HAL_ADC_PollForConversion+0x1f4>)
 800586a:	681c      	ldr	r4, [r3, #0]
 800586c:	2002      	movs	r0, #2
 800586e:	f001 f99b 	bl	8006ba8 <HAL_RCCEx_GetPeriphCLKFreq>
 8005872:	4603      	mov	r3, r0
 8005874:	fbb4 f2f3 	udiv	r2, r4, r3
                                         * ADC_CONVCYCLES_MAX_RANGE(hadc)                 );
 8005878:	687b      	ldr	r3, [r7, #4]
 800587a:	681b      	ldr	r3, [r3, #0]
 800587c:	6919      	ldr	r1, [r3, #16]
 800587e:	4b4b      	ldr	r3, [pc, #300]	; (80059ac <HAL_ADC_PollForConversion+0x1f8>)
 8005880:	400b      	ands	r3, r1
 8005882:	2b00      	cmp	r3, #0
 8005884:	d118      	bne.n	80058b8 <HAL_ADC_PollForConversion+0x104>
 8005886:	687b      	ldr	r3, [r7, #4]
 8005888:	681b      	ldr	r3, [r3, #0]
 800588a:	68d9      	ldr	r1, [r3, #12]
 800588c:	4b48      	ldr	r3, [pc, #288]	; (80059b0 <HAL_ADC_PollForConversion+0x1fc>)
 800588e:	400b      	ands	r3, r1
 8005890:	2b00      	cmp	r3, #0
 8005892:	d111      	bne.n	80058b8 <HAL_ADC_PollForConversion+0x104>
 8005894:	687b      	ldr	r3, [r7, #4]
 8005896:	681b      	ldr	r3, [r3, #0]
 8005898:	6919      	ldr	r1, [r3, #16]
 800589a:	4b46      	ldr	r3, [pc, #280]	; (80059b4 <HAL_ADC_PollForConversion+0x200>)
 800589c:	400b      	ands	r3, r1
 800589e:	2b00      	cmp	r3, #0
 80058a0:	d108      	bne.n	80058b4 <HAL_ADC_PollForConversion+0x100>
 80058a2:	687b      	ldr	r3, [r7, #4]
 80058a4:	681b      	ldr	r3, [r3, #0]
 80058a6:	68d9      	ldr	r1, [r3, #12]
 80058a8:	4b43      	ldr	r3, [pc, #268]	; (80059b8 <HAL_ADC_PollForConversion+0x204>)
 80058aa:	400b      	ands	r3, r1
 80058ac:	2b00      	cmp	r3, #0
 80058ae:	d101      	bne.n	80058b4 <HAL_ADC_PollForConversion+0x100>
 80058b0:	2314      	movs	r3, #20
 80058b2:	e020      	b.n	80058f6 <HAL_ADC_PollForConversion+0x142>
 80058b4:	2329      	movs	r3, #41	; 0x29
 80058b6:	e01e      	b.n	80058f6 <HAL_ADC_PollForConversion+0x142>
 80058b8:	687b      	ldr	r3, [r7, #4]
 80058ba:	681b      	ldr	r3, [r3, #0]
 80058bc:	6919      	ldr	r1, [r3, #16]
 80058be:	4b3d      	ldr	r3, [pc, #244]	; (80059b4 <HAL_ADC_PollForConversion+0x200>)
 80058c0:	400b      	ands	r3, r1
 80058c2:	2b00      	cmp	r3, #0
 80058c4:	d106      	bne.n	80058d4 <HAL_ADC_PollForConversion+0x120>
 80058c6:	687b      	ldr	r3, [r7, #4]
 80058c8:	681b      	ldr	r3, [r3, #0]
 80058ca:	68d9      	ldr	r1, [r3, #12]
 80058cc:	4b3a      	ldr	r3, [pc, #232]	; (80059b8 <HAL_ADC_PollForConversion+0x204>)
 80058ce:	400b      	ands	r3, r1
 80058d0:	2b00      	cmp	r3, #0
 80058d2:	d00d      	beq.n	80058f0 <HAL_ADC_PollForConversion+0x13c>
 80058d4:	687b      	ldr	r3, [r7, #4]
 80058d6:	681b      	ldr	r3, [r3, #0]
 80058d8:	6919      	ldr	r1, [r3, #16]
 80058da:	4b38      	ldr	r3, [pc, #224]	; (80059bc <HAL_ADC_PollForConversion+0x208>)
 80058dc:	400b      	ands	r3, r1
 80058de:	2b00      	cmp	r3, #0
 80058e0:	d108      	bne.n	80058f4 <HAL_ADC_PollForConversion+0x140>
 80058e2:	687b      	ldr	r3, [r7, #4]
 80058e4:	681b      	ldr	r3, [r3, #0]
 80058e6:	68d9      	ldr	r1, [r3, #12]
 80058e8:	4b34      	ldr	r3, [pc, #208]	; (80059bc <HAL_ADC_PollForConversion+0x208>)
 80058ea:	400b      	ands	r3, r1
 80058ec:	2b00      	cmp	r3, #0
 80058ee:	d101      	bne.n	80058f4 <HAL_ADC_PollForConversion+0x140>
 80058f0:	2354      	movs	r3, #84	; 0x54
 80058f2:	e000      	b.n	80058f6 <HAL_ADC_PollForConversion+0x142>
 80058f4:	23fc      	movs	r3, #252	; 0xfc
    Conversion_Timeout_CPU_cycles_max = ((SystemCoreClock
 80058f6:	fb02 f303 	mul.w	r3, r2, r3
 80058fa:	613b      	str	r3, [r7, #16]
    
    while(Conversion_Timeout_CPU_cycles < Conversion_Timeout_CPU_cycles_max)
 80058fc:	e021      	b.n	8005942 <HAL_ADC_PollForConversion+0x18e>
    {
      /* Check if timeout is disabled (set to infinite wait) */
      if(Timeout != HAL_MAX_DELAY)
 80058fe:	683b      	ldr	r3, [r7, #0]
 8005900:	f1b3 3fff 	cmp.w	r3, #4294967295
 8005904:	d01a      	beq.n	800593c <HAL_ADC_PollForConversion+0x188>
      {
        if((Timeout == 0U) || ((HAL_GetTick() - tickstart) > Timeout))
 8005906:	683b      	ldr	r3, [r7, #0]
 8005908:	2b00      	cmp	r3, #0
 800590a:	d007      	beq.n	800591c <HAL_ADC_PollForConversion+0x168>
 800590c:	f7ff fdac 	bl	8005468 <HAL_GetTick>
 8005910:	4602      	mov	r2, r0
 8005912:	697b      	ldr	r3, [r7, #20]
 8005914:	1ad3      	subs	r3, r2, r3
 8005916:	683a      	ldr	r2, [r7, #0]
 8005918:	429a      	cmp	r2, r3
 800591a:	d20f      	bcs.n	800593c <HAL_ADC_PollForConversion+0x188>
        {
          /* New check to avoid false timeout detection in case of preemption */
          if(Conversion_Timeout_CPU_cycles < Conversion_Timeout_CPU_cycles_max)
 800591c:	68fb      	ldr	r3, [r7, #12]
 800591e:	693a      	ldr	r2, [r7, #16]
 8005920:	429a      	cmp	r2, r3
 8005922:	d90b      	bls.n	800593c <HAL_ADC_PollForConversion+0x188>
          {
            /* Update ADC state machine to timeout */
            SET_BIT(hadc->State, HAL_ADC_STATE_TIMEOUT);
 8005924:	687b      	ldr	r3, [r7, #4]
 8005926:	6a9b      	ldr	r3, [r3, #40]	; 0x28
 8005928:	f043 0204 	orr.w	r2, r3, #4
 800592c:	687b      	ldr	r3, [r7, #4]
 800592e:	629a      	str	r2, [r3, #40]	; 0x28

            /* Process unlocked */
            __HAL_UNLOCK(hadc);
 8005930:	687b      	ldr	r3, [r7, #4]
 8005932:	2200      	movs	r2, #0
 8005934:	f883 2024 	strb.w	r2, [r3, #36]	; 0x24

            return HAL_TIMEOUT;
 8005938:	2303      	movs	r3, #3
 800593a:	e030      	b.n	800599e <HAL_ADC_PollForConversion+0x1ea>
          }
        }
      }
      Conversion_Timeout_CPU_cycles ++;
 800593c:	68fb      	ldr	r3, [r7, #12]
 800593e:	3301      	adds	r3, #1
 8005940:	60fb      	str	r3, [r7, #12]
    while(Conversion_Timeout_CPU_cycles < Conversion_Timeout_CPU_cycles_max)
 8005942:	68fb      	ldr	r3, [r7, #12]
 8005944:	693a      	ldr	r2, [r7, #16]
 8005946:	429a      	cmp	r2, r3
 8005948:	d8d9      	bhi.n	80058fe <HAL_ADC_PollForConversion+0x14a>
    }
  }
  
  /* Clear regular group conversion flag */
  __HAL_ADC_CLEAR_FLAG(hadc, ADC_FLAG_STRT | ADC_FLAG_EOC);
 800594a:	687b      	ldr	r3, [r7, #4]
 800594c:	681b      	ldr	r3, [r3, #0]
 800594e:	f06f 0212 	mvn.w	r2, #18
 8005952:	601a      	str	r2, [r3, #0]
  
  /* Update ADC state machine */
  SET_BIT(hadc->State, HAL_ADC_STATE_REG_EOC);
 8005954:	687b      	ldr	r3, [r7, #4]
 8005956:	6a9b      	ldr	r3, [r3, #40]	; 0x28
 8005958:	f443 7200 	orr.w	r2, r3, #512	; 0x200
 800595c:	687b      	ldr	r3, [r7, #4]
 800595e:	629a      	str	r2, [r3, #40]	; 0x28
  /* Determine whether any further conversion upcoming on group regular       */
  /* by external trigger, continuous mode or scan sequence on going.          */
  /* Note: On STM32F1 devices, in case of sequencer enabled                   */
  /*       (several ranks selected), end of conversion flag is raised         */
  /*       at the end of the sequence.                                        */
  if(ADC_IS_SOFTWARE_START_REGULAR(hadc)        && 
 8005960:	687b      	ldr	r3, [r7, #4]
 8005962:	681b      	ldr	r3, [r3, #0]
 8005964:	689b      	ldr	r3, [r3, #8]
 8005966:	f403 2360 	and.w	r3, r3, #917504	; 0xe0000
 800596a:	f5b3 2f60 	cmp.w	r3, #917504	; 0xe0000
 800596e:	d115      	bne.n	800599c <HAL_ADC_PollForConversion+0x1e8>
     (hadc->Init.ContinuousConvMode == DISABLE)   )
 8005970:	687b      	ldr	r3, [r7, #4]
 8005972:	7b1b      	ldrb	r3, [r3, #12]
  if(ADC_IS_SOFTWARE_START_REGULAR(hadc)        && 
 8005974:	2b00      	cmp	r3, #0
 8005976:	d111      	bne.n	800599c <HAL_ADC_PollForConversion+0x1e8>
  {   
    /* Set ADC state */
    CLEAR_BIT(hadc->State, HAL_ADC_STATE_REG_BUSY);   
 8005978:	687b      	ldr	r3, [r7, #4]
 800597a:	6a9b      	ldr	r3, [r3, #40]	; 0x28
 800597c:	f423 7280 	bic.w	r2, r3, #256	; 0x100
 8005980:	687b      	ldr	r3, [r7, #4]
 8005982:	629a      	str	r2, [r3, #40]	; 0x28

    if (HAL_IS_BIT_CLR(hadc->State, HAL_ADC_STATE_INJ_BUSY))
 8005984:	687b      	ldr	r3, [r7, #4]
 8005986:	6a9b      	ldr	r3, [r3, #40]	; 0x28
 8005988:	f403 5380 	and.w	r3, r3, #4096	; 0x1000
 800598c:	2b00      	cmp	r3, #0
 800598e:	d105      	bne.n	800599c <HAL_ADC_PollForConversion+0x1e8>
    { 
      SET_BIT(hadc->State, HAL_ADC_STATE_READY);
 8005990:	687b      	ldr	r3, [r7, #4]
 8005992:	6a9b      	ldr	r3, [r3, #40]	; 0x28
 8005994:	f043 0201 	orr.w	r2, r3, #1
 8005998:	687b      	ldr	r3, [r7, #4]
 800599a:	629a      	str	r2, [r3, #40]	; 0x28
    }
  }
  
  /* Return ADC state */
  return HAL_OK;
 800599c:	2300      	movs	r3, #0
}
 800599e:	4618      	mov	r0, r3
 80059a0:	371c      	adds	r7, #28
 80059a2:	46bd      	mov	sp, r7
 80059a4:	bd90      	pop	{r4, r7, pc}
 80059a6:	bf00      	nop
 80059a8:	20000034 	.word	0x20000034
 80059ac:	24924924 	.word	0x24924924
 80059b0:	00924924 	.word	0x00924924
 80059b4:	12492492 	.word	0x12492492
 80059b8:	00492492 	.word	0x00492492
 80059bc:	00249249 	.word	0x00249249

080059c0 <HAL_ADC_GetValue>:
  *         or @ref __HAL_ADC_CLEAR_FLAG(&hadc, ADC_FLAG_EOS).
  * @param  hadc: ADC handle
  * @retval ADC group regular conversion data
  */
uint32_t HAL_ADC_GetValue(ADC_HandleTypeDef* hadc)
{
 80059c0:	b480      	push	{r7}
 80059c2:	b083      	sub	sp, #12
 80059c4:	af00      	add	r7, sp, #0
 80059c6:	6078      	str	r0, [r7, #4]

  /* Note: EOC flag is not cleared here by software because automatically     */
  /*       cleared by hardware when reading register DR.                      */
  
  /* Return ADC converted value */ 
  return hadc->Instance->DR;
 80059c8:	687b      	ldr	r3, [r7, #4]
 80059ca:	681b      	ldr	r3, [r3, #0]
 80059cc:	6cdb      	ldr	r3, [r3, #76]	; 0x4c
}
 80059ce:	4618      	mov	r0, r3
 80059d0:	370c      	adds	r7, #12
 80059d2:	46bd      	mov	sp, r7
 80059d4:	bc80      	pop	{r7}
 80059d6:	4770      	bx	lr

080059d8 <HAL_ADC_ConfigChannel>:
  * @param  hadc: ADC handle
  * @param  sConfig: Structure of ADC channel for regular group.
  * @retval HAL status
  */
HAL_StatusTypeDef HAL_ADC_ConfigChannel(ADC_HandleTypeDef* hadc, ADC_ChannelConfTypeDef* sConfig)
{ 
 80059d8:	b480      	push	{r7}
 80059da:	b085      	sub	sp, #20
 80059dc:	af00      	add	r7, sp, #0
 80059de:	6078      	str	r0, [r7, #4]
 80059e0:	6039      	str	r1, [r7, #0]
  HAL_StatusTypeDef tmp_hal_status = HAL_OK;
 80059e2:	2300      	movs	r3, #0
 80059e4:	73fb      	strb	r3, [r7, #15]
  __IO uint32_t wait_loop_index = 0U;
 80059e6:	2300      	movs	r3, #0
 80059e8:	60bb      	str	r3, [r7, #8]
  assert_param(IS_ADC_CHANNEL(sConfig->Channel));
  assert_param(IS_ADC_REGULAR_RANK(sConfig->Rank));
  assert_param(IS_ADC_SAMPLE_TIME(sConfig->SamplingTime));
  
  /* Process locked */
  __HAL_LOCK(hadc);
 80059ea:	687b      	ldr	r3, [r7, #4]
 80059ec:	f893 3024 	ldrb.w	r3, [r3, #36]	; 0x24
 80059f0:	2b01      	cmp	r3, #1
 80059f2:	d101      	bne.n	80059f8 <HAL_ADC_ConfigChannel+0x20>
 80059f4:	2302      	movs	r3, #2
 80059f6:	e0dc      	b.n	8005bb2 <HAL_ADC_ConfigChannel+0x1da>
 80059f8:	687b      	ldr	r3, [r7, #4]
 80059fa:	2201      	movs	r2, #1
 80059fc:	f883 2024 	strb.w	r2, [r3, #36]	; 0x24
  
  
  /* Regular sequence configuration */
  /* For Rank 1 to 6 */
  if (sConfig->Rank < 7U)
 8005a00:	683b      	ldr	r3, [r7, #0]
 8005a02:	685b      	ldr	r3, [r3, #4]
 8005a04:	2b06      	cmp	r3, #6
 8005a06:	d81c      	bhi.n	8005a42 <HAL_ADC_ConfigChannel+0x6a>
  {
    MODIFY_REG(hadc->Instance->SQR3                        ,
 8005a08:	687b      	ldr	r3, [r7, #4]
 8005a0a:	681b      	ldr	r3, [r3, #0]
 8005a0c:	6b59      	ldr	r1, [r3, #52]	; 0x34
 8005a0e:	683b      	ldr	r3, [r7, #0]
 8005a10:	685a      	ldr	r2, [r3, #4]
 8005a12:	4613      	mov	r3, r2
 8005a14:	009b      	lsls	r3, r3, #2
 8005a16:	4413      	add	r3, r2
 8005a18:	3b05      	subs	r3, #5
 8005a1a:	221f      	movs	r2, #31
 8005a1c:	fa02 f303 	lsl.w	r3, r2, r3
 8005a20:	43db      	mvns	r3, r3
 8005a22:	4019      	ands	r1, r3
 8005a24:	683b      	ldr	r3, [r7, #0]
 8005a26:	6818      	ldr	r0, [r3, #0]
 8005a28:	683b      	ldr	r3, [r7, #0]
 8005a2a:	685a      	ldr	r2, [r3, #4]
 8005a2c:	4613      	mov	r3, r2
 8005a2e:	009b      	lsls	r3, r3, #2
 8005a30:	4413      	add	r3, r2
 8005a32:	3b05      	subs	r3, #5
 8005a34:	fa00 f203 	lsl.w	r2, r0, r3
 8005a38:	687b      	ldr	r3, [r7, #4]
 8005a3a:	681b      	ldr	r3, [r3, #0]
 8005a3c:	430a      	orrs	r2, r1
 8005a3e:	635a      	str	r2, [r3, #52]	; 0x34
 8005a40:	e03c      	b.n	8005abc <HAL_ADC_ConfigChannel+0xe4>
               ADC_SQR3_RK(ADC_SQR3_SQ1, sConfig->Rank)    ,
               ADC_SQR3_RK(sConfig->Channel, sConfig->Rank) );
  }
  /* For Rank 7 to 12 */
  else if (sConfig->Rank < 13U)
 8005a42:	683b      	ldr	r3, [r7, #0]
 8005a44:	685b      	ldr	r3, [r3, #4]
 8005a46:	2b0c      	cmp	r3, #12
 8005a48:	d81c      	bhi.n	8005a84 <HAL_ADC_ConfigChannel+0xac>
  {
    MODIFY_REG(hadc->Instance->SQR2                        ,
 8005a4a:	687b      	ldr	r3, [r7, #4]
 8005a4c:	681b      	ldr	r3, [r3, #0]
 8005a4e:	6b19      	ldr	r1, [r3, #48]	; 0x30
 8005a50:	683b      	ldr	r3, [r7, #0]
 8005a52:	685a      	ldr	r2, [r3, #4]
 8005a54:	4613      	mov	r3, r2
 8005a56:	009b      	lsls	r3, r3, #2
 8005a58:	4413      	add	r3, r2
 8005a5a:	3b23      	subs	r3, #35	; 0x23
 8005a5c:	221f      	movs	r2, #31
 8005a5e:	fa02 f303 	lsl.w	r3, r2, r3
 8005a62:	43db      	mvns	r3, r3
 8005a64:	4019      	ands	r1, r3
 8005a66:	683b      	ldr	r3, [r7, #0]
 8005a68:	6818      	ldr	r0, [r3, #0]
 8005a6a:	683b      	ldr	r3, [r7, #0]
 8005a6c:	685a      	ldr	r2, [r3, #4]
 8005a6e:	4613      	mov	r3, r2
 8005a70:	009b      	lsls	r3, r3, #2
 8005a72:	4413      	add	r3, r2
 8005a74:	3b23      	subs	r3, #35	; 0x23
 8005a76:	fa00 f203 	lsl.w	r2, r0, r3
 8005a7a:	687b      	ldr	r3, [r7, #4]
 8005a7c:	681b      	ldr	r3, [r3, #0]
 8005a7e:	430a      	orrs	r2, r1
 8005a80:	631a      	str	r2, [r3, #48]	; 0x30
 8005a82:	e01b      	b.n	8005abc <HAL_ADC_ConfigChannel+0xe4>
               ADC_SQR2_RK(sConfig->Channel, sConfig->Rank) );
  }
  /* For Rank 13 to 16 */
  else
  {
    MODIFY_REG(hadc->Instance->SQR1                        ,
 8005a84:	687b      	ldr	r3, [r7, #4]
 8005a86:	681b      	ldr	r3, [r3, #0]
 8005a88:	6ad9      	ldr	r1, [r3, #44]	; 0x2c
 8005a8a:	683b      	ldr	r3, [r7, #0]
 8005a8c:	685a      	ldr	r2, [r3, #4]
 8005a8e:	4613      	mov	r3, r2
 8005a90:	009b      	lsls	r3, r3, #2
 8005a92:	4413      	add	r3, r2
 8005a94:	3b41      	subs	r3, #65	; 0x41
 8005a96:	221f      	movs	r2, #31
 8005a98:	fa02 f303 	lsl.w	r3, r2, r3
 8005a9c:	43db      	mvns	r3, r3
 8005a9e:	4019      	ands	r1, r3
 8005aa0:	683b      	ldr	r3, [r7, #0]
 8005aa2:	6818      	ldr	r0, [r3, #0]
 8005aa4:	683b      	ldr	r3, [r7, #0]
 8005aa6:	685a      	ldr	r2, [r3, #4]
 8005aa8:	4613      	mov	r3, r2
 8005aaa:	009b      	lsls	r3, r3, #2
 8005aac:	4413      	add	r3, r2
 8005aae:	3b41      	subs	r3, #65	; 0x41
 8005ab0:	fa00 f203 	lsl.w	r2, r0, r3
 8005ab4:	687b      	ldr	r3, [r7, #4]
 8005ab6:	681b      	ldr	r3, [r3, #0]
 8005ab8:	430a      	orrs	r2, r1
 8005aba:	62da      	str	r2, [r3, #44]	; 0x2c
  }
  
  
  /* Channel sampling time configuration */
  /* For channels 10 to 17 */
  if (sConfig->Channel >= ADC_CHANNEL_10)
 8005abc:	683b      	ldr	r3, [r7, #0]
 8005abe:	681b      	ldr	r3, [r3, #0]
 8005ac0:	2b09      	cmp	r3, #9
 8005ac2:	d91c      	bls.n	8005afe <HAL_ADC_ConfigChannel+0x126>
  {
    MODIFY_REG(hadc->Instance->SMPR1                             ,
 8005ac4:	687b      	ldr	r3, [r7, #4]
 8005ac6:	681b      	ldr	r3, [r3, #0]
 8005ac8:	68d9      	ldr	r1, [r3, #12]
 8005aca:	683b      	ldr	r3, [r7, #0]
 8005acc:	681a      	ldr	r2, [r3, #0]
 8005ace:	4613      	mov	r3, r2
 8005ad0:	005b      	lsls	r3, r3, #1
 8005ad2:	4413      	add	r3, r2
 8005ad4:	3b1e      	subs	r3, #30
 8005ad6:	2207      	movs	r2, #7
 8005ad8:	fa02 f303 	lsl.w	r3, r2, r3
 8005adc:	43db      	mvns	r3, r3
 8005ade:	4019      	ands	r1, r3
 8005ae0:	683b      	ldr	r3, [r7, #0]
 8005ae2:	6898      	ldr	r0, [r3, #8]
 8005ae4:	683b      	ldr	r3, [r7, #0]
 8005ae6:	681a      	ldr	r2, [r3, #0]
 8005ae8:	4613      	mov	r3, r2
 8005aea:	005b      	lsls	r3, r3, #1
 8005aec:	4413      	add	r3, r2
 8005aee:	3b1e      	subs	r3, #30
 8005af0:	fa00 f203 	lsl.w	r2, r0, r3
 8005af4:	687b      	ldr	r3, [r7, #4]
 8005af6:	681b      	ldr	r3, [r3, #0]
 8005af8:	430a      	orrs	r2, r1
 8005afa:	60da      	str	r2, [r3, #12]
 8005afc:	e019      	b.n	8005b32 <HAL_ADC_ConfigChannel+0x15a>
               ADC_SMPR1(ADC_SMPR1_SMP10, sConfig->Channel)      ,
               ADC_SMPR1(sConfig->SamplingTime, sConfig->Channel) );
  }
  else /* For channels 0 to 9 */
  {
    MODIFY_REG(hadc->Instance->SMPR2                             ,
 8005afe:	687b      	ldr	r3, [r7, #4]
 8005b00:	681b      	ldr	r3, [r3, #0]
 8005b02:	6919      	ldr	r1, [r3, #16]
 8005b04:	683b      	ldr	r3, [r7, #0]
 8005b06:	681a      	ldr	r2, [r3, #0]
 8005b08:	4613      	mov	r3, r2
 8005b0a:	005b      	lsls	r3, r3, #1
 8005b0c:	4413      	add	r3, r2
 8005b0e:	2207      	movs	r2, #7
 8005b10:	fa02 f303 	lsl.w	r3, r2, r3
 8005b14:	43db      	mvns	r3, r3
 8005b16:	4019      	ands	r1, r3
 8005b18:	683b      	ldr	r3, [r7, #0]
 8005b1a:	6898      	ldr	r0, [r3, #8]
 8005b1c:	683b      	ldr	r3, [r7, #0]
 8005b1e:	681a      	ldr	r2, [r3, #0]
 8005b20:	4613      	mov	r3, r2
 8005b22:	005b      	lsls	r3, r3, #1
 8005b24:	4413      	add	r3, r2
 8005b26:	fa00 f203 	lsl.w	r2, r0, r3
 8005b2a:	687b      	ldr	r3, [r7, #4]
 8005b2c:	681b      	ldr	r3, [r3, #0]
 8005b2e:	430a      	orrs	r2, r1
 8005b30:	611a      	str	r2, [r3, #16]
               ADC_SMPR2(sConfig->SamplingTime, sConfig->Channel) );
  }
  
  /* If ADC1 Channel_16 or Channel_17 is selected, enable Temperature sensor  */
  /* and VREFINT measurement path.                                            */
  if ((sConfig->Channel == ADC_CHANNEL_TEMPSENSOR) ||
 8005b32:	683b      	ldr	r3, [r7, #0]
 8005b34:	681b      	ldr	r3, [r3, #0]
 8005b36:	2b10      	cmp	r3, #16
 8005b38:	d003      	beq.n	8005b42 <HAL_ADC_ConfigChannel+0x16a>
      (sConfig->Channel == ADC_CHANNEL_VREFINT)      )
 8005b3a:	683b      	ldr	r3, [r7, #0]
 8005b3c:	681b      	ldr	r3, [r3, #0]
  if ((sConfig->Channel == ADC_CHANNEL_TEMPSENSOR) ||
 8005b3e:	2b11      	cmp	r3, #17
 8005b40:	d132      	bne.n	8005ba8 <HAL_ADC_ConfigChannel+0x1d0>
  {
    /* For STM32F1 devices with several ADC: Only ADC1 can access internal    */
    /* measurement channels (VrefInt/TempSensor). If these channels are       */
    /* intended to be set on other ADC instances, an error is reported.       */
    if (hadc->Instance == ADC1)
 8005b42:	687b      	ldr	r3, [r7, #4]
 8005b44:	681b      	ldr	r3, [r3, #0]
 8005b46:	4a1d      	ldr	r2, [pc, #116]	; (8005bbc <HAL_ADC_ConfigChannel+0x1e4>)
 8005b48:	4293      	cmp	r3, r2
 8005b4a:	d125      	bne.n	8005b98 <HAL_ADC_ConfigChannel+0x1c0>
    {
      if (READ_BIT(hadc->Instance->CR2, ADC_CR2_TSVREFE) == RESET)
 8005b4c:	687b      	ldr	r3, [r7, #4]
 8005b4e:	681b      	ldr	r3, [r3, #0]
 8005b50:	689b      	ldr	r3, [r3, #8]
 8005b52:	f403 0300 	and.w	r3, r3, #8388608	; 0x800000
 8005b56:	2b00      	cmp	r3, #0
 8005b58:	d126      	bne.n	8005ba8 <HAL_ADC_ConfigChannel+0x1d0>
      {
        SET_BIT(hadc->Instance->CR2, ADC_CR2_TSVREFE);
 8005b5a:	687b      	ldr	r3, [r7, #4]
 8005b5c:	681b      	ldr	r3, [r3, #0]
 8005b5e:	689a      	ldr	r2, [r3, #8]
 8005b60:	687b      	ldr	r3, [r7, #4]
 8005b62:	681b      	ldr	r3, [r3, #0]
 8005b64:	f442 0200 	orr.w	r2, r2, #8388608	; 0x800000
 8005b68:	609a      	str	r2, [r3, #8]
        
        if (sConfig->Channel == ADC_CHANNEL_TEMPSENSOR)
 8005b6a:	683b      	ldr	r3, [r7, #0]
 8005b6c:	681b      	ldr	r3, [r3, #0]
 8005b6e:	2b10      	cmp	r3, #16
 8005b70:	d11a      	bne.n	8005ba8 <HAL_ADC_ConfigChannel+0x1d0>
        {
          /* Delay for temperature sensor stabilization time */
          /* Compute number of CPU cycles to wait for */
          wait_loop_index = (ADC_TEMPSENSOR_DELAY_US * (SystemCoreClock / 1000000U));
 8005b72:	4b13      	ldr	r3, [pc, #76]	; (8005bc0 <HAL_ADC_ConfigChannel+0x1e8>)
 8005b74:	681b      	ldr	r3, [r3, #0]
 8005b76:	4a13      	ldr	r2, [pc, #76]	; (8005bc4 <HAL_ADC_ConfigChannel+0x1ec>)
 8005b78:	fba2 2303 	umull	r2, r3, r2, r3
 8005b7c:	0c9a      	lsrs	r2, r3, #18
 8005b7e:	4613      	mov	r3, r2
 8005b80:	009b      	lsls	r3, r3, #2
 8005b82:	4413      	add	r3, r2
 8005b84:	005b      	lsls	r3, r3, #1
 8005b86:	60bb      	str	r3, [r7, #8]
          while(wait_loop_index != 0U)
 8005b88:	e002      	b.n	8005b90 <HAL_ADC_ConfigChannel+0x1b8>
          {
            wait_loop_index--;
 8005b8a:	68bb      	ldr	r3, [r7, #8]
 8005b8c:	3b01      	subs	r3, #1
 8005b8e:	60bb      	str	r3, [r7, #8]
          while(wait_loop_index != 0U)
 8005b90:	68bb      	ldr	r3, [r7, #8]
 8005b92:	2b00      	cmp	r3, #0
 8005b94:	d1f9      	bne.n	8005b8a <HAL_ADC_ConfigChannel+0x1b2>
 8005b96:	e007      	b.n	8005ba8 <HAL_ADC_ConfigChannel+0x1d0>
      }
    }
    else
    {
      /* Update ADC state machine to error */
      SET_BIT(hadc->State, HAL_ADC_STATE_ERROR_CONFIG);
 8005b98:	687b      	ldr	r3, [r7, #4]
 8005b9a:	6a9b      	ldr	r3, [r3, #40]	; 0x28
 8005b9c:	f043 0220 	orr.w	r2, r3, #32
 8005ba0:	687b      	ldr	r3, [r7, #4]
 8005ba2:	629a      	str	r2, [r3, #40]	; 0x28
      
      tmp_hal_status = HAL_ERROR;
 8005ba4:	2301      	movs	r3, #1
 8005ba6:	73fb      	strb	r3, [r7, #15]
    }
  }
  
  /* Process unlocked */
  __HAL_UNLOCK(hadc);
 8005ba8:	687b      	ldr	r3, [r7, #4]
 8005baa:	2200      	movs	r2, #0
 8005bac:	f883 2024 	strb.w	r2, [r3, #36]	; 0x24
  
  /* Return function status */
  return tmp_hal_status;
 8005bb0:	7bfb      	ldrb	r3, [r7, #15]
}
 8005bb2:	4618      	mov	r0, r3
 8005bb4:	3714      	adds	r7, #20
 8005bb6:	46bd      	mov	sp, r7
 8005bb8:	bc80      	pop	{r7}
 8005bba:	4770      	bx	lr
 8005bbc:	40012400 	.word	0x40012400
 8005bc0:	20000034 	.word	0x20000034
 8005bc4:	431bde83 	.word	0x431bde83

08005bc8 <ADC_Enable>:
  *         and voltage regulator must be enabled (done into HAL_ADC_Init()).
  * @param  hadc: ADC handle
  * @retval HAL status.
  */
HAL_StatusTypeDef ADC_Enable(ADC_HandleTypeDef* hadc)
{
 8005bc8:	b580      	push	{r7, lr}
 8005bca:	b084      	sub	sp, #16
 8005bcc:	af00      	add	r7, sp, #0
 8005bce:	6078      	str	r0, [r7, #4]
  uint32_t tickstart = 0U;
 8005bd0:	2300      	movs	r3, #0
 8005bd2:	60fb      	str	r3, [r7, #12]
  __IO uint32_t wait_loop_index = 0U;
 8005bd4:	2300      	movs	r3, #0
 8005bd6:	60bb      	str	r3, [r7, #8]
  
  /* ADC enable and wait for ADC ready (in case of ADC is disabled or         */
  /* enabling phase not yet completed: flag ADC ready not yet set).           */
  /* Timeout implemented to not be stuck if ADC cannot be enabled (possible   */
  /* causes: ADC clock not running, ...).                                     */
  if (ADC_IS_ENABLE(hadc) == RESET)
 8005bd8:	687b      	ldr	r3, [r7, #4]
 8005bda:	681b      	ldr	r3, [r3, #0]
 8005bdc:	689b      	ldr	r3, [r3, #8]
 8005bde:	f003 0301 	and.w	r3, r3, #1
 8005be2:	2b01      	cmp	r3, #1
 8005be4:	d040      	beq.n	8005c68 <ADC_Enable+0xa0>
  {
    /* Enable the Peripheral */
    __HAL_ADC_ENABLE(hadc);
 8005be6:	687b      	ldr	r3, [r7, #4]
 8005be8:	681b      	ldr	r3, [r3, #0]
 8005bea:	689a      	ldr	r2, [r3, #8]
 8005bec:	687b      	ldr	r3, [r7, #4]
 8005bee:	681b      	ldr	r3, [r3, #0]
 8005bf0:	f042 0201 	orr.w	r2, r2, #1
 8005bf4:	609a      	str	r2, [r3, #8]
    
    /* Delay for ADC stabilization time */
    /* Compute number of CPU cycles to wait for */
    wait_loop_index = (ADC_STAB_DELAY_US * (SystemCoreClock / 1000000U));
 8005bf6:	4b1f      	ldr	r3, [pc, #124]	; (8005c74 <ADC_Enable+0xac>)
 8005bf8:	681b      	ldr	r3, [r3, #0]
 8005bfa:	4a1f      	ldr	r2, [pc, #124]	; (8005c78 <ADC_Enable+0xb0>)
 8005bfc:	fba2 2303 	umull	r2, r3, r2, r3
 8005c00:	0c9b      	lsrs	r3, r3, #18
 8005c02:	60bb      	str	r3, [r7, #8]
    while(wait_loop_index != 0U)
 8005c04:	e002      	b.n	8005c0c <ADC_Enable+0x44>
    {
      wait_loop_index--;
 8005c06:	68bb      	ldr	r3, [r7, #8]
 8005c08:	3b01      	subs	r3, #1
 8005c0a:	60bb      	str	r3, [r7, #8]
    while(wait_loop_index != 0U)
 8005c0c:	68bb      	ldr	r3, [r7, #8]
 8005c0e:	2b00      	cmp	r3, #0
 8005c10:	d1f9      	bne.n	8005c06 <ADC_Enable+0x3e>
    }
    
    /* Get tick count */
    tickstart = HAL_GetTick();
 8005c12:	f7ff fc29 	bl	8005468 <HAL_GetTick>
 8005c16:	60f8      	str	r0, [r7, #12]

    /* Wait for ADC effectively enabled */
    while(ADC_IS_ENABLE(hadc) == RESET)
 8005c18:	e01f      	b.n	8005c5a <ADC_Enable+0x92>
    {
      if((HAL_GetTick() - tickstart) > ADC_ENABLE_TIMEOUT)
 8005c1a:	f7ff fc25 	bl	8005468 <HAL_GetTick>
 8005c1e:	4602      	mov	r2, r0
 8005c20:	68fb      	ldr	r3, [r7, #12]
 8005c22:	1ad3      	subs	r3, r2, r3
 8005c24:	2b02      	cmp	r3, #2
 8005c26:	d918      	bls.n	8005c5a <ADC_Enable+0x92>
      {
        /* New check to avoid false timeout detection in case of preemption */
        if(ADC_IS_ENABLE(hadc) == RESET)
 8005c28:	687b      	ldr	r3, [r7, #4]
 8005c2a:	681b      	ldr	r3, [r3, #0]
 8005c2c:	689b      	ldr	r3, [r3, #8]
 8005c2e:	f003 0301 	and.w	r3, r3, #1
 8005c32:	2b01      	cmp	r3, #1
 8005c34:	d011      	beq.n	8005c5a <ADC_Enable+0x92>
        {
          /* Update ADC state machine to error */
          SET_BIT(hadc->State, HAL_ADC_STATE_ERROR_INTERNAL);
 8005c36:	687b      	ldr	r3, [r7, #4]
 8005c38:	6a9b      	ldr	r3, [r3, #40]	; 0x28
 8005c3a:	f043 0210 	orr.w	r2, r3, #16
 8005c3e:	687b      	ldr	r3, [r7, #4]
 8005c40:	629a      	str	r2, [r3, #40]	; 0x28

          /* Set ADC error code to ADC IP internal error */
          SET_BIT(hadc->ErrorCode, HAL_ADC_ERROR_INTERNAL);
 8005c42:	687b      	ldr	r3, [r7, #4]
 8005c44:	6adb      	ldr	r3, [r3, #44]	; 0x2c
 8005c46:	f043 0201 	orr.w	r2, r3, #1
 8005c4a:	687b      	ldr	r3, [r7, #4]
 8005c4c:	62da      	str	r2, [r3, #44]	; 0x2c

          /* Process unlocked */
          __HAL_UNLOCK(hadc);
 8005c4e:	687b      	ldr	r3, [r7, #4]
 8005c50:	2200      	movs	r2, #0
 8005c52:	f883 2024 	strb.w	r2, [r3, #36]	; 0x24

          return HAL_ERROR;
 8005c56:	2301      	movs	r3, #1
 8005c58:	e007      	b.n	8005c6a <ADC_Enable+0xa2>
    while(ADC_IS_ENABLE(hadc) == RESET)
 8005c5a:	687b      	ldr	r3, [r7, #4]
 8005c5c:	681b      	ldr	r3, [r3, #0]
 8005c5e:	689b      	ldr	r3, [r3, #8]
 8005c60:	f003 0301 	and.w	r3, r3, #1
 8005c64:	2b01      	cmp	r3, #1
 8005c66:	d1d8      	bne.n	8005c1a <ADC_Enable+0x52>
      }
    }
  }
   
  /* Return HAL status */
  return HAL_OK;
 8005c68:	2300      	movs	r3, #0
}
 8005c6a:	4618      	mov	r0, r3
 8005c6c:	3710      	adds	r7, #16
 8005c6e:	46bd      	mov	sp, r7
 8005c70:	bd80      	pop	{r7, pc}
 8005c72:	bf00      	nop
 8005c74:	20000034 	.word	0x20000034
 8005c78:	431bde83 	.word	0x431bde83

08005c7c <ADC_ConversionStop_Disable>:
  *         stopped to disable the ADC.
  * @param  hadc: ADC handle
  * @retval HAL status.
  */
HAL_StatusTypeDef ADC_ConversionStop_Disable(ADC_HandleTypeDef* hadc)
{
 8005c7c:	b580      	push	{r7, lr}
 8005c7e:	b084      	sub	sp, #16
 8005c80:	af00      	add	r7, sp, #0
 8005c82:	6078      	str	r0, [r7, #4]
  uint32_t tickstart = 0U;
 8005c84:	2300      	movs	r3, #0
 8005c86:	60fb      	str	r3, [r7, #12]
  
  /* Verification if ADC is not already disabled */
  if (ADC_IS_ENABLE(hadc) != RESET)
 8005c88:	687b      	ldr	r3, [r7, #4]
 8005c8a:	681b      	ldr	r3, [r3, #0]
 8005c8c:	689b      	ldr	r3, [r3, #8]
 8005c8e:	f003 0301 	and.w	r3, r3, #1
 8005c92:	2b01      	cmp	r3, #1
 8005c94:	d12e      	bne.n	8005cf4 <ADC_ConversionStop_Disable+0x78>
  {
    /* Disable the ADC peripheral */
    __HAL_ADC_DISABLE(hadc);
 8005c96:	687b      	ldr	r3, [r7, #4]
 8005c98:	681b      	ldr	r3, [r3, #0]
 8005c9a:	689a      	ldr	r2, [r3, #8]
 8005c9c:	687b      	ldr	r3, [r7, #4]
 8005c9e:	681b      	ldr	r3, [r3, #0]
 8005ca0:	f022 0201 	bic.w	r2, r2, #1
 8005ca4:	609a      	str	r2, [r3, #8]
     
    /* Get tick count */
    tickstart = HAL_GetTick();
 8005ca6:	f7ff fbdf 	bl	8005468 <HAL_GetTick>
 8005caa:	60f8      	str	r0, [r7, #12]
    
    /* Wait for ADC effectively disabled */
    while(ADC_IS_ENABLE(hadc) != RESET)
 8005cac:	e01b      	b.n	8005ce6 <ADC_ConversionStop_Disable+0x6a>
    {
      if((HAL_GetTick() - tickstart) > ADC_DISABLE_TIMEOUT)
 8005cae:	f7ff fbdb 	bl	8005468 <HAL_GetTick>
 8005cb2:	4602      	mov	r2, r0
 8005cb4:	68fb      	ldr	r3, [r7, #12]
 8005cb6:	1ad3      	subs	r3, r2, r3
 8005cb8:	2b02      	cmp	r3, #2
 8005cba:	d914      	bls.n	8005ce6 <ADC_ConversionStop_Disable+0x6a>
      {
        /* New check to avoid false timeout detection in case of preemption */
        if(ADC_IS_ENABLE(hadc) != RESET)
 8005cbc:	687b      	ldr	r3, [r7, #4]
 8005cbe:	681b      	ldr	r3, [r3, #0]
 8005cc0:	689b      	ldr	r3, [r3, #8]
 8005cc2:	f003 0301 	and.w	r3, r3, #1
 8005cc6:	2b01      	cmp	r3, #1
 8005cc8:	d10d      	bne.n	8005ce6 <ADC_ConversionStop_Disable+0x6a>
        {
          /* Update ADC state machine to error */
          SET_BIT(hadc->State, HAL_ADC_STATE_ERROR_INTERNAL);
 8005cca:	687b      	ldr	r3, [r7, #4]
 8005ccc:	6a9b      	ldr	r3, [r3, #40]	; 0x28
 8005cce:	f043 0210 	orr.w	r2, r3, #16
 8005cd2:	687b      	ldr	r3, [r7, #4]
 8005cd4:	629a      	str	r2, [r3, #40]	; 0x28

          /* Set ADC error code to ADC IP internal error */
          SET_BIT(hadc->ErrorCode, HAL_ADC_ERROR_INTERNAL);
 8005cd6:	687b      	ldr	r3, [r7, #4]
 8005cd8:	6adb      	ldr	r3, [r3, #44]	; 0x2c
 8005cda:	f043 0201 	orr.w	r2, r3, #1
 8005cde:	687b      	ldr	r3, [r7, #4]
 8005ce0:	62da      	str	r2, [r3, #44]	; 0x2c

          return HAL_ERROR;
 8005ce2:	2301      	movs	r3, #1
 8005ce4:	e007      	b.n	8005cf6 <ADC_ConversionStop_Disable+0x7a>
    while(ADC_IS_ENABLE(hadc) != RESET)
 8005ce6:	687b      	ldr	r3, [r7, #4]
 8005ce8:	681b      	ldr	r3, [r3, #0]
 8005cea:	689b      	ldr	r3, [r3, #8]
 8005cec:	f003 0301 	and.w	r3, r3, #1
 8005cf0:	2b01      	cmp	r3, #1
 8005cf2:	d0dc      	beq.n	8005cae <ADC_ConversionStop_Disable+0x32>
      }
    }
  }
  
  /* Return HAL status */
  return HAL_OK;
 8005cf4:	2300      	movs	r3, #0
}
 8005cf6:	4618      	mov	r0, r3
 8005cf8:	3710      	adds	r7, #16
 8005cfa:	46bd      	mov	sp, r7
 8005cfc:	bd80      	pop	{r7, pc}
	...

08005d00 <__NVIC_SetPriorityGrouping>:
           In case of a conflict between priority grouping and available
           priority bits (__NVIC_PRIO_BITS), the smallest possible priority group is set.
  \param [in]      PriorityGroup  Priority grouping field.
 */
__STATIC_INLINE void __NVIC_SetPriorityGrouping(uint32_t PriorityGroup)
{
 8005d00:	b480      	push	{r7}
 8005d02:	b085      	sub	sp, #20
 8005d04:	af00      	add	r7, sp, #0
 8005d06:	6078      	str	r0, [r7, #4]
  uint32_t reg_value;
  uint32_t PriorityGroupTmp = (PriorityGroup & (uint32_t)0x07UL);             /* only values 0..7 are used          */
 8005d08:	687b      	ldr	r3, [r7, #4]
 8005d0a:	f003 0307 	and.w	r3, r3, #7
 8005d0e:	60fb      	str	r3, [r7, #12]

  reg_value  =  SCB->AIRCR;                                                   /* read old register configuration    */
 8005d10:	4b0c      	ldr	r3, [pc, #48]	; (8005d44 <__NVIC_SetPriorityGrouping+0x44>)
 8005d12:	68db      	ldr	r3, [r3, #12]
 8005d14:	60bb      	str	r3, [r7, #8]
  reg_value &= ~((uint32_t)(SCB_AIRCR_VECTKEY_Msk | SCB_AIRCR_PRIGROUP_Msk)); /* clear bits to change               */
 8005d16:	68ba      	ldr	r2, [r7, #8]
 8005d18:	f64f 03ff 	movw	r3, #63743	; 0xf8ff
 8005d1c:	4013      	ands	r3, r2
 8005d1e:	60bb      	str	r3, [r7, #8]
  reg_value  =  (reg_value                                   |
                ((uint32_t)0x5FAUL << SCB_AIRCR_VECTKEY_Pos) |
                (PriorityGroupTmp << SCB_AIRCR_PRIGROUP_Pos) );               /* Insert write key and priority group */
 8005d20:	68fb      	ldr	r3, [r7, #12]
 8005d22:	021a      	lsls	r2, r3, #8
                ((uint32_t)0x5FAUL << SCB_AIRCR_VECTKEY_Pos) |
 8005d24:	68bb      	ldr	r3, [r7, #8]
 8005d26:	4313      	orrs	r3, r2
  reg_value  =  (reg_value                                   |
 8005d28:	f043 63bf 	orr.w	r3, r3, #100139008	; 0x5f80000
 8005d2c:	f443 3300 	orr.w	r3, r3, #131072	; 0x20000
 8005d30:	60bb      	str	r3, [r7, #8]
  SCB->AIRCR =  reg_value;
 8005d32:	4a04      	ldr	r2, [pc, #16]	; (8005d44 <__NVIC_SetPriorityGrouping+0x44>)
 8005d34:	68bb      	ldr	r3, [r7, #8]
 8005d36:	60d3      	str	r3, [r2, #12]
}
 8005d38:	bf00      	nop
 8005d3a:	3714      	adds	r7, #20
 8005d3c:	46bd      	mov	sp, r7
 8005d3e:	bc80      	pop	{r7}
 8005d40:	4770      	bx	lr
 8005d42:	bf00      	nop
 8005d44:	e000ed00 	.word	0xe000ed00

08005d48 <__NVIC_GetPriorityGrouping>:
  \brief   Get Priority Grouping
  \details Reads the priority grouping field from the NVIC Interrupt Controller.
  \return                Priority grouping field (SCB->AIRCR [10:8] PRIGROUP field).
 */
__STATIC_INLINE uint32_t __NVIC_GetPriorityGrouping(void)
{
 8005d48:	b480      	push	{r7}
 8005d4a:	af00      	add	r7, sp, #0
  return ((uint32_t)((SCB->AIRCR & SCB_AIRCR_PRIGROUP_Msk) >> SCB_AIRCR_PRIGROUP_Pos));
 8005d4c:	4b04      	ldr	r3, [pc, #16]	; (8005d60 <__NVIC_GetPriorityGrouping+0x18>)
 8005d4e:	68db      	ldr	r3, [r3, #12]
 8005d50:	0a1b      	lsrs	r3, r3, #8
 8005d52:	f003 0307 	and.w	r3, r3, #7
}
 8005d56:	4618      	mov	r0, r3
 8005d58:	46bd      	mov	sp, r7
 8005d5a:	bc80      	pop	{r7}
 8005d5c:	4770      	bx	lr
 8005d5e:	bf00      	nop
 8005d60:	e000ed00 	.word	0xe000ed00

08005d64 <__NVIC_EnableIRQ>:
  \details Enables a device specific interrupt in the NVIC interrupt controller.
  \param [in]      IRQn  Device specific interrupt number.
  \note    IRQn must not be negative.
 */
__STATIC_INLINE void __NVIC_EnableIRQ(IRQn_Type IRQn)
{
 8005d64:	b480      	push	{r7}
 8005d66:	b083      	sub	sp, #12
 8005d68:	af00      	add	r7, sp, #0
 8005d6a:	4603      	mov	r3, r0
 8005d6c:	71fb      	strb	r3, [r7, #7]
  if ((int32_t)(IRQn) >= 0)
 8005d6e:	f997 3007 	ldrsb.w	r3, [r7, #7]
 8005d72:	2b00      	cmp	r3, #0
 8005d74:	db0b      	blt.n	8005d8e <__NVIC_EnableIRQ+0x2a>
  {
    NVIC->ISER[(((uint32_t)IRQn) >> 5UL)] = (uint32_t)(1UL << (((uint32_t)IRQn) & 0x1FUL));
 8005d76:	79fb      	ldrb	r3, [r7, #7]
 8005d78:	f003 021f 	and.w	r2, r3, #31
 8005d7c:	4906      	ldr	r1, [pc, #24]	; (8005d98 <__NVIC_EnableIRQ+0x34>)
 8005d7e:	f997 3007 	ldrsb.w	r3, [r7, #7]
 8005d82:	095b      	lsrs	r3, r3, #5
 8005d84:	2001      	movs	r0, #1
 8005d86:	fa00 f202 	lsl.w	r2, r0, r2
 8005d8a:	f841 2023 	str.w	r2, [r1, r3, lsl #2]
  }
}
 8005d8e:	bf00      	nop
 8005d90:	370c      	adds	r7, #12
 8005d92:	46bd      	mov	sp, r7
 8005d94:	bc80      	pop	{r7}
 8005d96:	4770      	bx	lr
 8005d98:	e000e100 	.word	0xe000e100

08005d9c <__NVIC_SetPriority>:
  \param [in]      IRQn  Interrupt number.
  \param [in]  priority  Priority to set.
  \note    The priority cannot be set for every processor exception.
 */
__STATIC_INLINE void __NVIC_SetPriority(IRQn_Type IRQn, uint32_t priority)
{
 8005d9c:	b480      	push	{r7}
 8005d9e:	b083      	sub	sp, #12
 8005da0:	af00      	add	r7, sp, #0
 8005da2:	4603      	mov	r3, r0
 8005da4:	6039      	str	r1, [r7, #0]
 8005da6:	71fb      	strb	r3, [r7, #7]
  if ((int32_t)(IRQn) >= 0)
 8005da8:	f997 3007 	ldrsb.w	r3, [r7, #7]
 8005dac:	2b00      	cmp	r3, #0
 8005dae:	db0a      	blt.n	8005dc6 <__NVIC_SetPriority+0x2a>
  {
    NVIC->IP[((uint32_t)IRQn)]               = (uint8_t)((priority << (8U - __NVIC_PRIO_BITS)) & (uint32_t)0xFFUL);
 8005db0:	683b      	ldr	r3, [r7, #0]
 8005db2:	b2da      	uxtb	r2, r3
 8005db4:	490c      	ldr	r1, [pc, #48]	; (8005de8 <__NVIC_SetPriority+0x4c>)
 8005db6:	f997 3007 	ldrsb.w	r3, [r7, #7]
 8005dba:	0112      	lsls	r2, r2, #4
 8005dbc:	b2d2      	uxtb	r2, r2
 8005dbe:	440b      	add	r3, r1
 8005dc0:	f883 2300 	strb.w	r2, [r3, #768]	; 0x300
  }
  else
  {
    SCB->SHP[(((uint32_t)IRQn) & 0xFUL)-4UL] = (uint8_t)((priority << (8U - __NVIC_PRIO_BITS)) & (uint32_t)0xFFUL);
  }
}
 8005dc4:	e00a      	b.n	8005ddc <__NVIC_SetPriority+0x40>
    SCB->SHP[(((uint32_t)IRQn) & 0xFUL)-4UL] = (uint8_t)((priority << (8U - __NVIC_PRIO_BITS)) & (uint32_t)0xFFUL);
 8005dc6:	683b      	ldr	r3, [r7, #0]
 8005dc8:	b2da      	uxtb	r2, r3
 8005dca:	4908      	ldr	r1, [pc, #32]	; (8005dec <__NVIC_SetPriority+0x50>)
 8005dcc:	79fb      	ldrb	r3, [r7, #7]
 8005dce:	f003 030f 	and.w	r3, r3, #15
 8005dd2:	3b04      	subs	r3, #4
 8005dd4:	0112      	lsls	r2, r2, #4
 8005dd6:	b2d2      	uxtb	r2, r2
 8005dd8:	440b      	add	r3, r1
 8005dda:	761a      	strb	r2, [r3, #24]
}
 8005ddc:	bf00      	nop
 8005dde:	370c      	adds	r7, #12
 8005de0:	46bd      	mov	sp, r7
 8005de2:	bc80      	pop	{r7}
 8005de4:	4770      	bx	lr
 8005de6:	bf00      	nop
 8005de8:	e000e100 	.word	0xe000e100
 8005dec:	e000ed00 	.word	0xe000ed00

08005df0 <NVIC_EncodePriority>:
  \param [in]   PreemptPriority  Preemptive priority value (starting from 0).
  \param [in]       SubPriority  Subpriority value (starting from 0).
  \return                        Encoded priority. Value can be used in the function \ref NVIC_SetPriority().
 */
__STATIC_INLINE uint32_t NVIC_EncodePriority (uint32_t PriorityGroup, uint32_t PreemptPriority, uint32_t SubPriority)
{
 8005df0:	b480      	push	{r7}
 8005df2:	b089      	sub	sp, #36	; 0x24
 8005df4:	af00      	add	r7, sp, #0
 8005df6:	60f8      	str	r0, [r7, #12]
 8005df8:	60b9      	str	r1, [r7, #8]
 8005dfa:	607a      	str	r2, [r7, #4]
  uint32_t PriorityGroupTmp = (PriorityGroup & (uint32_t)0x07UL);   /* only values 0..7 are used          */
 8005dfc:	68fb      	ldr	r3, [r7, #12]
 8005dfe:	f003 0307 	and.w	r3, r3, #7
 8005e02:	61fb      	str	r3, [r7, #28]
  uint32_t PreemptPriorityBits;
  uint32_t SubPriorityBits;

  PreemptPriorityBits = ((7UL - PriorityGroupTmp) > (uint32_t)(__NVIC_PRIO_BITS)) ? (uint32_t)(__NVIC_PRIO_BITS) : (uint32_t)(7UL - PriorityGroupTmp);
 8005e04:	69fb      	ldr	r3, [r7, #28]
 8005e06:	f1c3 0307 	rsb	r3, r3, #7
 8005e0a:	2b04      	cmp	r3, #4
 8005e0c:	bf28      	it	cs
 8005e0e:	2304      	movcs	r3, #4
 8005e10:	61bb      	str	r3, [r7, #24]
  SubPriorityBits     = ((PriorityGroupTmp + (uint32_t)(__NVIC_PRIO_BITS)) < (uint32_t)7UL) ? (uint32_t)0UL : (uint32_t)((PriorityGroupTmp - 7UL) + (uint32_t)(__NVIC_PRIO_BITS));
 8005e12:	69fb      	ldr	r3, [r7, #28]
 8005e14:	3304      	adds	r3, #4
 8005e16:	2b06      	cmp	r3, #6
 8005e18:	d902      	bls.n	8005e20 <NVIC_EncodePriority+0x30>
 8005e1a:	69fb      	ldr	r3, [r7, #28]
 8005e1c:	3b03      	subs	r3, #3
 8005e1e:	e000      	b.n	8005e22 <NVIC_EncodePriority+0x32>
 8005e20:	2300      	movs	r3, #0
 8005e22:	617b      	str	r3, [r7, #20]

  return (
           ((PreemptPriority & (uint32_t)((1UL << (PreemptPriorityBits)) - 1UL)) << SubPriorityBits) |
 8005e24:	f04f 32ff 	mov.w	r2, #4294967295
 8005e28:	69bb      	ldr	r3, [r7, #24]
 8005e2a:	fa02 f303 	lsl.w	r3, r2, r3
 8005e2e:	43da      	mvns	r2, r3
 8005e30:	68bb      	ldr	r3, [r7, #8]
 8005e32:	401a      	ands	r2, r3
 8005e34:	697b      	ldr	r3, [r7, #20]
 8005e36:	409a      	lsls	r2, r3
           ((SubPriority     & (uint32_t)((1UL << (SubPriorityBits    )) - 1UL)))
 8005e38:	f04f 31ff 	mov.w	r1, #4294967295
 8005e3c:	697b      	ldr	r3, [r7, #20]
 8005e3e:	fa01 f303 	lsl.w	r3, r1, r3
 8005e42:	43d9      	mvns	r1, r3
 8005e44:	687b      	ldr	r3, [r7, #4]
 8005e46:	400b      	ands	r3, r1
           ((PreemptPriority & (uint32_t)((1UL << (PreemptPriorityBits)) - 1UL)) << SubPriorityBits) |
 8005e48:	4313      	orrs	r3, r2
         );
}
 8005e4a:	4618      	mov	r0, r3
 8005e4c:	3724      	adds	r7, #36	; 0x24
 8005e4e:	46bd      	mov	sp, r7
 8005e50:	bc80      	pop	{r7}
 8005e52:	4770      	bx	lr

08005e54 <HAL_NVIC_SetPriorityGrouping>:
  * @note   When the NVIC_PriorityGroup_0 is selected, IRQ preemption is no more possible. 
  *         The pending IRQ priority will be managed only by the subpriority. 
  * @retval None
  */
void HAL_NVIC_SetPriorityGrouping(uint32_t PriorityGroup)
{
 8005e54:	b580      	push	{r7, lr}
 8005e56:	b082      	sub	sp, #8
 8005e58:	af00      	add	r7, sp, #0
 8005e5a:	6078      	str	r0, [r7, #4]
  /* Check the parameters */
  assert_param(IS_NVIC_PRIORITY_GROUP(PriorityGroup));
  
  /* Set the PRIGROUP[10:8] bits according to the PriorityGroup parameter value */
  NVIC_SetPriorityGrouping(PriorityGroup);
 8005e5c:	6878      	ldr	r0, [r7, #4]
 8005e5e:	f7ff ff4f 	bl	8005d00 <__NVIC_SetPriorityGrouping>
}
 8005e62:	bf00      	nop
 8005e64:	3708      	adds	r7, #8
 8005e66:	46bd      	mov	sp, r7
 8005e68:	bd80      	pop	{r7, pc}

08005e6a <HAL_NVIC_SetPriority>:
  *         This parameter can be a value between 0 and 15
  *         A lower priority value indicates a higher priority.          
  * @retval None
  */
void HAL_NVIC_SetPriority(IRQn_Type IRQn, uint32_t PreemptPriority, uint32_t SubPriority)
{ 
 8005e6a:	b580      	push	{r7, lr}
 8005e6c:	b086      	sub	sp, #24
 8005e6e:	af00      	add	r7, sp, #0
 8005e70:	4603      	mov	r3, r0
 8005e72:	60b9      	str	r1, [r7, #8]
 8005e74:	607a      	str	r2, [r7, #4]
 8005e76:	73fb      	strb	r3, [r7, #15]
  uint32_t prioritygroup = 0x00U;
 8005e78:	2300      	movs	r3, #0
 8005e7a:	617b      	str	r3, [r7, #20]
  
  /* Check the parameters */
  assert_param(IS_NVIC_SUB_PRIORITY(SubPriority));
  assert_param(IS_NVIC_PREEMPTION_PRIORITY(PreemptPriority));
  
  prioritygroup = NVIC_GetPriorityGrouping();
 8005e7c:	f7ff ff64 	bl	8005d48 <__NVIC_GetPriorityGrouping>
 8005e80:	6178      	str	r0, [r7, #20]
  
  NVIC_SetPriority(IRQn, NVIC_EncodePriority(prioritygroup, PreemptPriority, SubPriority));
 8005e82:	687a      	ldr	r2, [r7, #4]
 8005e84:	68b9      	ldr	r1, [r7, #8]
 8005e86:	6978      	ldr	r0, [r7, #20]
 8005e88:	f7ff ffb2 	bl	8005df0 <NVIC_EncodePriority>
 8005e8c:	4602      	mov	r2, r0
 8005e8e:	f997 300f 	ldrsb.w	r3, [r7, #15]
 8005e92:	4611      	mov	r1, r2
 8005e94:	4618      	mov	r0, r3
 8005e96:	f7ff ff81 	bl	8005d9c <__NVIC_SetPriority>
}
 8005e9a:	bf00      	nop
 8005e9c:	3718      	adds	r7, #24
 8005e9e:	46bd      	mov	sp, r7
 8005ea0:	bd80      	pop	{r7, pc}

08005ea2 <HAL_NVIC_EnableIRQ>:
  *         This parameter can be an enumerator of IRQn_Type enumeration
  *         (For the complete STM32 Devices IRQ Channels list, please refer to the appropriate CMSIS device file (stm32f10xxx.h))
  * @retval None
  */
void HAL_NVIC_EnableIRQ(IRQn_Type IRQn)
{
 8005ea2:	b580      	push	{r7, lr}
 8005ea4:	b082      	sub	sp, #8
 8005ea6:	af00      	add	r7, sp, #0
 8005ea8:	4603      	mov	r3, r0
 8005eaa:	71fb      	strb	r3, [r7, #7]
  /* Check the parameters */
  assert_param(IS_NVIC_DEVICE_IRQ(IRQn));

  /* Enable interrupt */
  NVIC_EnableIRQ(IRQn);
 8005eac:	f997 3007 	ldrsb.w	r3, [r7, #7]
 8005eb0:	4618      	mov	r0, r3
 8005eb2:	f7ff ff57 	bl	8005d64 <__NVIC_EnableIRQ>
}
 8005eb6:	bf00      	nop
 8005eb8:	3708      	adds	r7, #8
 8005eba:	46bd      	mov	sp, r7
 8005ebc:	bd80      	pop	{r7, pc}
	...

08005ec0 <HAL_GPIO_Init>:
  * @param  GPIO_Init: pointer to a GPIO_InitTypeDef structure that contains
  *         the configuration information for the specified GPIO peripheral.
  * @retval None
  */
void HAL_GPIO_Init(GPIO_TypeDef  *GPIOx, GPIO_InitTypeDef *GPIO_Init)
{
 8005ec0:	b480      	push	{r7}
 8005ec2:	b08b      	sub	sp, #44	; 0x2c
 8005ec4:	af00      	add	r7, sp, #0
 8005ec6:	6078      	str	r0, [r7, #4]
 8005ec8:	6039      	str	r1, [r7, #0]
  uint32_t position = 0x00u;
 8005eca:	2300      	movs	r3, #0
 8005ecc:	627b      	str	r3, [r7, #36]	; 0x24
  uint32_t ioposition;
  uint32_t iocurrent;
  uint32_t temp;
  uint32_t config = 0x00u;
 8005ece:	2300      	movs	r3, #0
 8005ed0:	623b      	str	r3, [r7, #32]
  assert_param(IS_GPIO_ALL_INSTANCE(GPIOx));
  assert_param(IS_GPIO_PIN(GPIO_Init->Pin));
  assert_param(IS_GPIO_MODE(GPIO_Init->Mode));

  /* Configure the port pins */
  while (((GPIO_Init->Pin) >> position) != 0x00u)
 8005ed2:	e169      	b.n	80061a8 <HAL_GPIO_Init+0x2e8>
  {
    /* Get the IO position */
    ioposition = (0x01uL << position);
 8005ed4:	2201      	movs	r2, #1
 8005ed6:	6a7b      	ldr	r3, [r7, #36]	; 0x24
 8005ed8:	fa02 f303 	lsl.w	r3, r2, r3
 8005edc:	61fb      	str	r3, [r7, #28]

    /* Get the current IO position */
    iocurrent = (uint32_t)(GPIO_Init->Pin) & ioposition;
 8005ede:	683b      	ldr	r3, [r7, #0]
 8005ee0:	681b      	ldr	r3, [r3, #0]
 8005ee2:	69fa      	ldr	r2, [r7, #28]
 8005ee4:	4013      	ands	r3, r2
 8005ee6:	61bb      	str	r3, [r7, #24]

    if (iocurrent == ioposition)
 8005ee8:	69ba      	ldr	r2, [r7, #24]
 8005eea:	69fb      	ldr	r3, [r7, #28]
 8005eec:	429a      	cmp	r2, r3
 8005eee:	f040 8158 	bne.w	80061a2 <HAL_GPIO_Init+0x2e2>
    {
      /* Check the Alternate function parameters */
      assert_param(IS_GPIO_AF_INSTANCE(GPIOx));

      /* Based on the required mode, filling config variable with MODEy[1:0] and CNFy[3:2] corresponding bits */
      switch (GPIO_Init->Mode)
 8005ef2:	683b      	ldr	r3, [r7, #0]
 8005ef4:	685b      	ldr	r3, [r3, #4]
 8005ef6:	4a9a      	ldr	r2, [pc, #616]	; (8006160 <HAL_GPIO_Init+0x2a0>)
 8005ef8:	4293      	cmp	r3, r2
 8005efa:	d05e      	beq.n	8005fba <HAL_GPIO_Init+0xfa>
 8005efc:	4a98      	ldr	r2, [pc, #608]	; (8006160 <HAL_GPIO_Init+0x2a0>)
 8005efe:	4293      	cmp	r3, r2
 8005f00:	d875      	bhi.n	8005fee <HAL_GPIO_Init+0x12e>
 8005f02:	4a98      	ldr	r2, [pc, #608]	; (8006164 <HAL_GPIO_Init+0x2a4>)
 8005f04:	4293      	cmp	r3, r2
 8005f06:	d058      	beq.n	8005fba <HAL_GPIO_Init+0xfa>
 8005f08:	4a96      	ldr	r2, [pc, #600]	; (8006164 <HAL_GPIO_Init+0x2a4>)
 8005f0a:	4293      	cmp	r3, r2
 8005f0c:	d86f      	bhi.n	8005fee <HAL_GPIO_Init+0x12e>
 8005f0e:	4a96      	ldr	r2, [pc, #600]	; (8006168 <HAL_GPIO_Init+0x2a8>)
 8005f10:	4293      	cmp	r3, r2
 8005f12:	d052      	beq.n	8005fba <HAL_GPIO_Init+0xfa>
 8005f14:	4a94      	ldr	r2, [pc, #592]	; (8006168 <HAL_GPIO_Init+0x2a8>)
 8005f16:	4293      	cmp	r3, r2
 8005f18:	d869      	bhi.n	8005fee <HAL_GPIO_Init+0x12e>
 8005f1a:	4a94      	ldr	r2, [pc, #592]	; (800616c <HAL_GPIO_Init+0x2ac>)
 8005f1c:	4293      	cmp	r3, r2
 8005f1e:	d04c      	beq.n	8005fba <HAL_GPIO_Init+0xfa>
 8005f20:	4a92      	ldr	r2, [pc, #584]	; (800616c <HAL_GPIO_Init+0x2ac>)
 8005f22:	4293      	cmp	r3, r2
 8005f24:	d863      	bhi.n	8005fee <HAL_GPIO_Init+0x12e>
 8005f26:	4a92      	ldr	r2, [pc, #584]	; (8006170 <HAL_GPIO_Init+0x2b0>)
 8005f28:	4293      	cmp	r3, r2
 8005f2a:	d046      	beq.n	8005fba <HAL_GPIO_Init+0xfa>
 8005f2c:	4a90      	ldr	r2, [pc, #576]	; (8006170 <HAL_GPIO_Init+0x2b0>)
 8005f2e:	4293      	cmp	r3, r2
 8005f30:	d85d      	bhi.n	8005fee <HAL_GPIO_Init+0x12e>
 8005f32:	2b12      	cmp	r3, #18
 8005f34:	d82a      	bhi.n	8005f8c <HAL_GPIO_Init+0xcc>
 8005f36:	2b12      	cmp	r3, #18
 8005f38:	d859      	bhi.n	8005fee <HAL_GPIO_Init+0x12e>
 8005f3a:	a201      	add	r2, pc, #4	; (adr r2, 8005f40 <HAL_GPIO_Init+0x80>)
 8005f3c:	f852 f023 	ldr.w	pc, [r2, r3, lsl #2]
 8005f40:	08005fbb 	.word	0x08005fbb
 8005f44:	08005f95 	.word	0x08005f95
 8005f48:	08005fa7 	.word	0x08005fa7
 8005f4c:	08005fe9 	.word	0x08005fe9
 8005f50:	08005fef 	.word	0x08005fef
 8005f54:	08005fef 	.word	0x08005fef
 8005f58:	08005fef 	.word	0x08005fef
 8005f5c:	08005fef 	.word	0x08005fef
 8005f60:	08005fef 	.word	0x08005fef
 8005f64:	08005fef 	.word	0x08005fef
 8005f68:	08005fef 	.word	0x08005fef
 8005f6c:	08005fef 	.word	0x08005fef
 8005f70:	08005fef 	.word	0x08005fef
 8005f74:	08005fef 	.word	0x08005fef
 8005f78:	08005fef 	.word	0x08005fef
 8005f7c:	08005fef 	.word	0x08005fef
 8005f80:	08005fef 	.word	0x08005fef
 8005f84:	08005f9d 	.word	0x08005f9d
 8005f88:	08005fb1 	.word	0x08005fb1
 8005f8c:	4a79      	ldr	r2, [pc, #484]	; (8006174 <HAL_GPIO_Init+0x2b4>)
 8005f8e:	4293      	cmp	r3, r2
 8005f90:	d013      	beq.n	8005fba <HAL_GPIO_Init+0xfa>
          config = GPIO_CR_MODE_INPUT + GPIO_CR_CNF_ANALOG;
          break;

        /* Parameters are checked with assert_param */
        default:
          break;
 8005f92:	e02c      	b.n	8005fee <HAL_GPIO_Init+0x12e>
          config = GPIO_Init->Speed + GPIO_CR_CNF_GP_OUTPUT_PP;
 8005f94:	683b      	ldr	r3, [r7, #0]
 8005f96:	68db      	ldr	r3, [r3, #12]
 8005f98:	623b      	str	r3, [r7, #32]
          break;
 8005f9a:	e029      	b.n	8005ff0 <HAL_GPIO_Init+0x130>
          config = GPIO_Init->Speed + GPIO_CR_CNF_GP_OUTPUT_OD;
 8005f9c:	683b      	ldr	r3, [r7, #0]
 8005f9e:	68db      	ldr	r3, [r3, #12]
 8005fa0:	3304      	adds	r3, #4
 8005fa2:	623b      	str	r3, [r7, #32]
          break;
 8005fa4:	e024      	b.n	8005ff0 <HAL_GPIO_Init+0x130>
          config = GPIO_Init->Speed + GPIO_CR_CNF_AF_OUTPUT_PP;
 8005fa6:	683b      	ldr	r3, [r7, #0]
 8005fa8:	68db      	ldr	r3, [r3, #12]
 8005faa:	3308      	adds	r3, #8
 8005fac:	623b      	str	r3, [r7, #32]
          break;
 8005fae:	e01f      	b.n	8005ff0 <HAL_GPIO_Init+0x130>
          config = GPIO_Init->Speed + GPIO_CR_CNF_AF_OUTPUT_OD;
 8005fb0:	683b      	ldr	r3, [r7, #0]
 8005fb2:	68db      	ldr	r3, [r3, #12]
 8005fb4:	330c      	adds	r3, #12
 8005fb6:	623b      	str	r3, [r7, #32]
          break;
 8005fb8:	e01a      	b.n	8005ff0 <HAL_GPIO_Init+0x130>
          if (GPIO_Init->Pull == GPIO_NOPULL)
 8005fba:	683b      	ldr	r3, [r7, #0]
 8005fbc:	689b      	ldr	r3, [r3, #8]
 8005fbe:	2b00      	cmp	r3, #0
 8005fc0:	d102      	bne.n	8005fc8 <HAL_GPIO_Init+0x108>
            config = GPIO_CR_MODE_INPUT + GPIO_CR_CNF_INPUT_FLOATING;
 8005fc2:	2304      	movs	r3, #4
 8005fc4:	623b      	str	r3, [r7, #32]
          break;
 8005fc6:	e013      	b.n	8005ff0 <HAL_GPIO_Init+0x130>
          else if (GPIO_Init->Pull == GPIO_PULLUP)
 8005fc8:	683b      	ldr	r3, [r7, #0]
 8005fca:	689b      	ldr	r3, [r3, #8]
 8005fcc:	2b01      	cmp	r3, #1
 8005fce:	d105      	bne.n	8005fdc <HAL_GPIO_Init+0x11c>
            config = GPIO_CR_MODE_INPUT + GPIO_CR_CNF_INPUT_PU_PD;
 8005fd0:	2308      	movs	r3, #8
 8005fd2:	623b      	str	r3, [r7, #32]
            GPIOx->BSRR = ioposition;
 8005fd4:	687b      	ldr	r3, [r7, #4]
 8005fd6:	69fa      	ldr	r2, [r7, #28]
 8005fd8:	611a      	str	r2, [r3, #16]
          break;
 8005fda:	e009      	b.n	8005ff0 <HAL_GPIO_Init+0x130>
            config = GPIO_CR_MODE_INPUT + GPIO_CR_CNF_INPUT_PU_PD;
 8005fdc:	2308      	movs	r3, #8
 8005fde:	623b      	str	r3, [r7, #32]
            GPIOx->BRR = ioposition;
 8005fe0:	687b      	ldr	r3, [r7, #4]
 8005fe2:	69fa      	ldr	r2, [r7, #28]
 8005fe4:	615a      	str	r2, [r3, #20]
          break;
 8005fe6:	e003      	b.n	8005ff0 <HAL_GPIO_Init+0x130>
          config = GPIO_CR_MODE_INPUT + GPIO_CR_CNF_ANALOG;
 8005fe8:	2300      	movs	r3, #0
 8005fea:	623b      	str	r3, [r7, #32]
          break;
 8005fec:	e000      	b.n	8005ff0 <HAL_GPIO_Init+0x130>
          break;
 8005fee:	bf00      	nop
      }

      /* Check if the current bit belongs to first half or last half of the pin count number
       in order to address CRH or CRL register*/
      configregister = (iocurrent < GPIO_PIN_8) ? &GPIOx->CRL     : &GPIOx->CRH;
 8005ff0:	69bb      	ldr	r3, [r7, #24]
 8005ff2:	2bff      	cmp	r3, #255	; 0xff
 8005ff4:	d801      	bhi.n	8005ffa <HAL_GPIO_Init+0x13a>
 8005ff6:	687b      	ldr	r3, [r7, #4]
 8005ff8:	e001      	b.n	8005ffe <HAL_GPIO_Init+0x13e>
 8005ffa:	687b      	ldr	r3, [r7, #4]
 8005ffc:	3304      	adds	r3, #4
 8005ffe:	617b      	str	r3, [r7, #20]
      registeroffset = (iocurrent < GPIO_PIN_8) ? (position << 2u) : ((position - 8u) << 2u);
 8006000:	69bb      	ldr	r3, [r7, #24]
 8006002:	2bff      	cmp	r3, #255	; 0xff
 8006004:	d802      	bhi.n	800600c <HAL_GPIO_Init+0x14c>
 8006006:	6a7b      	ldr	r3, [r7, #36]	; 0x24
 8006008:	009b      	lsls	r3, r3, #2
 800600a:	e002      	b.n	8006012 <HAL_GPIO_Init+0x152>
 800600c:	6a7b      	ldr	r3, [r7, #36]	; 0x24
 800600e:	3b08      	subs	r3, #8
 8006010:	009b      	lsls	r3, r3, #2
 8006012:	613b      	str	r3, [r7, #16]

      /* Apply the new configuration of the pin to the register */
      MODIFY_REG((*configregister), ((GPIO_CRL_MODE0 | GPIO_CRL_CNF0) << registeroffset), (config << registeroffset));
 8006014:	697b      	ldr	r3, [r7, #20]
 8006016:	681a      	ldr	r2, [r3, #0]
 8006018:	210f      	movs	r1, #15
 800601a:	693b      	ldr	r3, [r7, #16]
 800601c:	fa01 f303 	lsl.w	r3, r1, r3
 8006020:	43db      	mvns	r3, r3
 8006022:	401a      	ands	r2, r3
 8006024:	6a39      	ldr	r1, [r7, #32]
 8006026:	693b      	ldr	r3, [r7, #16]
 8006028:	fa01 f303 	lsl.w	r3, r1, r3
 800602c:	431a      	orrs	r2, r3
 800602e:	697b      	ldr	r3, [r7, #20]
 8006030:	601a      	str	r2, [r3, #0]

      /*--------------------- EXTI Mode Configuration ------------------------*/
      /* Configure the External Interrupt or event for the current IO */
      if ((GPIO_Init->Mode & EXTI_MODE) == EXTI_MODE)
 8006032:	683b      	ldr	r3, [r7, #0]
 8006034:	685b      	ldr	r3, [r3, #4]
 8006036:	f003 5380 	and.w	r3, r3, #268435456	; 0x10000000
 800603a:	2b00      	cmp	r3, #0
 800603c:	f000 80b1 	beq.w	80061a2 <HAL_GPIO_Init+0x2e2>
      {
        /* Enable AFIO Clock */
        __HAL_RCC_AFIO_CLK_ENABLE();
 8006040:	4b4d      	ldr	r3, [pc, #308]	; (8006178 <HAL_GPIO_Init+0x2b8>)
 8006042:	699b      	ldr	r3, [r3, #24]
 8006044:	4a4c      	ldr	r2, [pc, #304]	; (8006178 <HAL_GPIO_Init+0x2b8>)
 8006046:	f043 0301 	orr.w	r3, r3, #1
 800604a:	6193      	str	r3, [r2, #24]
 800604c:	4b4a      	ldr	r3, [pc, #296]	; (8006178 <HAL_GPIO_Init+0x2b8>)
 800604e:	699b      	ldr	r3, [r3, #24]
 8006050:	f003 0301 	and.w	r3, r3, #1
 8006054:	60bb      	str	r3, [r7, #8]
 8006056:	68bb      	ldr	r3, [r7, #8]
        temp = AFIO->EXTICR[position >> 2u];
 8006058:	4a48      	ldr	r2, [pc, #288]	; (800617c <HAL_GPIO_Init+0x2bc>)
 800605a:	6a7b      	ldr	r3, [r7, #36]	; 0x24
 800605c:	089b      	lsrs	r3, r3, #2
 800605e:	3302      	adds	r3, #2
 8006060:	f852 3023 	ldr.w	r3, [r2, r3, lsl #2]
 8006064:	60fb      	str	r3, [r7, #12]
        CLEAR_BIT(temp, (0x0Fu) << (4u * (position & 0x03u)));
 8006066:	6a7b      	ldr	r3, [r7, #36]	; 0x24
 8006068:	f003 0303 	and.w	r3, r3, #3
 800606c:	009b      	lsls	r3, r3, #2
 800606e:	220f      	movs	r2, #15
 8006070:	fa02 f303 	lsl.w	r3, r2, r3
 8006074:	43db      	mvns	r3, r3
 8006076:	68fa      	ldr	r2, [r7, #12]
 8006078:	4013      	ands	r3, r2
 800607a:	60fb      	str	r3, [r7, #12]
        SET_BIT(temp, (GPIO_GET_INDEX(GPIOx)) << (4u * (position & 0x03u)));
 800607c:	687b      	ldr	r3, [r7, #4]
 800607e:	4a40      	ldr	r2, [pc, #256]	; (8006180 <HAL_GPIO_Init+0x2c0>)
 8006080:	4293      	cmp	r3, r2
 8006082:	d013      	beq.n	80060ac <HAL_GPIO_Init+0x1ec>
 8006084:	687b      	ldr	r3, [r7, #4]
 8006086:	4a3f      	ldr	r2, [pc, #252]	; (8006184 <HAL_GPIO_Init+0x2c4>)
 8006088:	4293      	cmp	r3, r2
 800608a:	d00d      	beq.n	80060a8 <HAL_GPIO_Init+0x1e8>
 800608c:	687b      	ldr	r3, [r7, #4]
 800608e:	4a3e      	ldr	r2, [pc, #248]	; (8006188 <HAL_GPIO_Init+0x2c8>)
 8006090:	4293      	cmp	r3, r2
 8006092:	d007      	beq.n	80060a4 <HAL_GPIO_Init+0x1e4>
 8006094:	687b      	ldr	r3, [r7, #4]
 8006096:	4a3d      	ldr	r2, [pc, #244]	; (800618c <HAL_GPIO_Init+0x2cc>)
 8006098:	4293      	cmp	r3, r2
 800609a:	d101      	bne.n	80060a0 <HAL_GPIO_Init+0x1e0>
 800609c:	2303      	movs	r3, #3
 800609e:	e006      	b.n	80060ae <HAL_GPIO_Init+0x1ee>
 80060a0:	2304      	movs	r3, #4
 80060a2:	e004      	b.n	80060ae <HAL_GPIO_Init+0x1ee>
 80060a4:	2302      	movs	r3, #2
 80060a6:	e002      	b.n	80060ae <HAL_GPIO_Init+0x1ee>
 80060a8:	2301      	movs	r3, #1
 80060aa:	e000      	b.n	80060ae <HAL_GPIO_Init+0x1ee>
 80060ac:	2300      	movs	r3, #0
 80060ae:	6a7a      	ldr	r2, [r7, #36]	; 0x24
 80060b0:	f002 0203 	and.w	r2, r2, #3
 80060b4:	0092      	lsls	r2, r2, #2
 80060b6:	4093      	lsls	r3, r2
 80060b8:	68fa      	ldr	r2, [r7, #12]
 80060ba:	4313      	orrs	r3, r2
 80060bc:	60fb      	str	r3, [r7, #12]
        AFIO->EXTICR[position >> 2u] = temp;
 80060be:	492f      	ldr	r1, [pc, #188]	; (800617c <HAL_GPIO_Init+0x2bc>)
 80060c0:	6a7b      	ldr	r3, [r7, #36]	; 0x24
 80060c2:	089b      	lsrs	r3, r3, #2
 80060c4:	3302      	adds	r3, #2
 80060c6:	68fa      	ldr	r2, [r7, #12]
 80060c8:	f841 2023 	str.w	r2, [r1, r3, lsl #2]


        /* Configure the interrupt mask */
        if ((GPIO_Init->Mode & GPIO_MODE_IT) == GPIO_MODE_IT)
 80060cc:	683b      	ldr	r3, [r7, #0]
 80060ce:	685b      	ldr	r3, [r3, #4]
 80060d0:	f403 3380 	and.w	r3, r3, #65536	; 0x10000
 80060d4:	2b00      	cmp	r3, #0
 80060d6:	d006      	beq.n	80060e6 <HAL_GPIO_Init+0x226>
        {
          SET_BIT(EXTI->IMR, iocurrent);
 80060d8:	4b2d      	ldr	r3, [pc, #180]	; (8006190 <HAL_GPIO_Init+0x2d0>)
 80060da:	681a      	ldr	r2, [r3, #0]
 80060dc:	492c      	ldr	r1, [pc, #176]	; (8006190 <HAL_GPIO_Init+0x2d0>)
 80060de:	69bb      	ldr	r3, [r7, #24]
 80060e0:	4313      	orrs	r3, r2
 80060e2:	600b      	str	r3, [r1, #0]
 80060e4:	e006      	b.n	80060f4 <HAL_GPIO_Init+0x234>
        }
        else
        {
          CLEAR_BIT(EXTI->IMR, iocurrent);
 80060e6:	4b2a      	ldr	r3, [pc, #168]	; (8006190 <HAL_GPIO_Init+0x2d0>)
 80060e8:	681a      	ldr	r2, [r3, #0]
 80060ea:	69bb      	ldr	r3, [r7, #24]
 80060ec:	43db      	mvns	r3, r3
 80060ee:	4928      	ldr	r1, [pc, #160]	; (8006190 <HAL_GPIO_Init+0x2d0>)
 80060f0:	4013      	ands	r3, r2
 80060f2:	600b      	str	r3, [r1, #0]
        }

        /* Configure the event mask */
        if ((GPIO_Init->Mode & GPIO_MODE_EVT) == GPIO_MODE_EVT)
 80060f4:	683b      	ldr	r3, [r7, #0]
 80060f6:	685b      	ldr	r3, [r3, #4]
 80060f8:	f403 3300 	and.w	r3, r3, #131072	; 0x20000
 80060fc:	2b00      	cmp	r3, #0
 80060fe:	d006      	beq.n	800610e <HAL_GPIO_Init+0x24e>
        {
          SET_BIT(EXTI->EMR, iocurrent);
 8006100:	4b23      	ldr	r3, [pc, #140]	; (8006190 <HAL_GPIO_Init+0x2d0>)
 8006102:	685a      	ldr	r2, [r3, #4]
 8006104:	4922      	ldr	r1, [pc, #136]	; (8006190 <HAL_GPIO_Init+0x2d0>)
 8006106:	69bb      	ldr	r3, [r7, #24]
 8006108:	4313      	orrs	r3, r2
 800610a:	604b      	str	r3, [r1, #4]
 800610c:	e006      	b.n	800611c <HAL_GPIO_Init+0x25c>
        }
        else
        {
          CLEAR_BIT(EXTI->EMR, iocurrent);
 800610e:	4b20      	ldr	r3, [pc, #128]	; (8006190 <HAL_GPIO_Init+0x2d0>)
 8006110:	685a      	ldr	r2, [r3, #4]
 8006112:	69bb      	ldr	r3, [r7, #24]
 8006114:	43db      	mvns	r3, r3
 8006116:	491e      	ldr	r1, [pc, #120]	; (8006190 <HAL_GPIO_Init+0x2d0>)
 8006118:	4013      	ands	r3, r2
 800611a:	604b      	str	r3, [r1, #4]
        }

        /* Enable or disable the rising trigger */
        if ((GPIO_Init->Mode & RISING_EDGE) == RISING_EDGE)
 800611c:	683b      	ldr	r3, [r7, #0]
 800611e:	685b      	ldr	r3, [r3, #4]
 8006120:	f403 1380 	and.w	r3, r3, #1048576	; 0x100000
 8006124:	2b00      	cmp	r3, #0
 8006126:	d006      	beq.n	8006136 <HAL_GPIO_Init+0x276>
        {
          SET_BIT(EXTI->RTSR, iocurrent);
 8006128:	4b19      	ldr	r3, [pc, #100]	; (8006190 <HAL_GPIO_Init+0x2d0>)
 800612a:	689a      	ldr	r2, [r3, #8]
 800612c:	4918      	ldr	r1, [pc, #96]	; (8006190 <HAL_GPIO_Init+0x2d0>)
 800612e:	69bb      	ldr	r3, [r7, #24]
 8006130:	4313      	orrs	r3, r2
 8006132:	608b      	str	r3, [r1, #8]
 8006134:	e006      	b.n	8006144 <HAL_GPIO_Init+0x284>
        }
        else
        {
          CLEAR_BIT(EXTI->RTSR, iocurrent);
 8006136:	4b16      	ldr	r3, [pc, #88]	; (8006190 <HAL_GPIO_Init+0x2d0>)
 8006138:	689a      	ldr	r2, [r3, #8]
 800613a:	69bb      	ldr	r3, [r7, #24]
 800613c:	43db      	mvns	r3, r3
 800613e:	4914      	ldr	r1, [pc, #80]	; (8006190 <HAL_GPIO_Init+0x2d0>)
 8006140:	4013      	ands	r3, r2
 8006142:	608b      	str	r3, [r1, #8]
        }

        /* Enable or disable the falling trigger */
        if ((GPIO_Init->Mode & FALLING_EDGE) == FALLING_EDGE)
 8006144:	683b      	ldr	r3, [r7, #0]
 8006146:	685b      	ldr	r3, [r3, #4]
 8006148:	f403 1300 	and.w	r3, r3, #2097152	; 0x200000
 800614c:	2b00      	cmp	r3, #0
 800614e:	d021      	beq.n	8006194 <HAL_GPIO_Init+0x2d4>
        {
          SET_BIT(EXTI->FTSR, iocurrent);
 8006150:	4b0f      	ldr	r3, [pc, #60]	; (8006190 <HAL_GPIO_Init+0x2d0>)
 8006152:	68da      	ldr	r2, [r3, #12]
 8006154:	490e      	ldr	r1, [pc, #56]	; (8006190 <HAL_GPIO_Init+0x2d0>)
 8006156:	69bb      	ldr	r3, [r7, #24]
 8006158:	4313      	orrs	r3, r2
 800615a:	60cb      	str	r3, [r1, #12]
 800615c:	e021      	b.n	80061a2 <HAL_GPIO_Init+0x2e2>
 800615e:	bf00      	nop
 8006160:	10320000 	.word	0x10320000
 8006164:	10310000 	.word	0x10310000
 8006168:	10220000 	.word	0x10220000
 800616c:	10210000 	.word	0x10210000
 8006170:	10120000 	.word	0x10120000
 8006174:	10110000 	.word	0x10110000
 8006178:	40021000 	.word	0x40021000
 800617c:	40010000 	.word	0x40010000
 8006180:	40010800 	.word	0x40010800
 8006184:	40010c00 	.word	0x40010c00
 8006188:	40011000 	.word	0x40011000
 800618c:	40011400 	.word	0x40011400
 8006190:	40010400 	.word	0x40010400
        }
        else
        {
          CLEAR_BIT(EXTI->FTSR, iocurrent);
 8006194:	4b0b      	ldr	r3, [pc, #44]	; (80061c4 <HAL_GPIO_Init+0x304>)
 8006196:	68da      	ldr	r2, [r3, #12]
 8006198:	69bb      	ldr	r3, [r7, #24]
 800619a:	43db      	mvns	r3, r3
 800619c:	4909      	ldr	r1, [pc, #36]	; (80061c4 <HAL_GPIO_Init+0x304>)
 800619e:	4013      	ands	r3, r2
 80061a0:	60cb      	str	r3, [r1, #12]
        }
      }
    }

	position++;
 80061a2:	6a7b      	ldr	r3, [r7, #36]	; 0x24
 80061a4:	3301      	adds	r3, #1
 80061a6:	627b      	str	r3, [r7, #36]	; 0x24
  while (((GPIO_Init->Pin) >> position) != 0x00u)
 80061a8:	683b      	ldr	r3, [r7, #0]
 80061aa:	681a      	ldr	r2, [r3, #0]
 80061ac:	6a7b      	ldr	r3, [r7, #36]	; 0x24
 80061ae:	fa22 f303 	lsr.w	r3, r2, r3
 80061b2:	2b00      	cmp	r3, #0
 80061b4:	f47f ae8e 	bne.w	8005ed4 <HAL_GPIO_Init+0x14>
  }
}
 80061b8:	bf00      	nop
 80061ba:	bf00      	nop
 80061bc:	372c      	adds	r7, #44	; 0x2c
 80061be:	46bd      	mov	sp, r7
 80061c0:	bc80      	pop	{r7}
 80061c2:	4770      	bx	lr
 80061c4:	40010400 	.word	0x40010400

080061c8 <HAL_GPIO_WritePin>:
  *            @arg GPIO_PIN_RESET: to clear the port pin
  *            @arg GPIO_PIN_SET: to set the port pin
  * @retval None
  */
void HAL_GPIO_WritePin(GPIO_TypeDef *GPIOx, uint16_t GPIO_Pin, GPIO_PinState PinState)
{
 80061c8:	b480      	push	{r7}
 80061ca:	b083      	sub	sp, #12
 80061cc:	af00      	add	r7, sp, #0
 80061ce:	6078      	str	r0, [r7, #4]
 80061d0:	460b      	mov	r3, r1
 80061d2:	807b      	strh	r3, [r7, #2]
 80061d4:	4613      	mov	r3, r2
 80061d6:	707b      	strb	r3, [r7, #1]
  /* Check the parameters */
  assert_param(IS_GPIO_PIN(GPIO_Pin));
  assert_param(IS_GPIO_PIN_ACTION(PinState));

  if (PinState != GPIO_PIN_RESET)
 80061d8:	787b      	ldrb	r3, [r7, #1]
 80061da:	2b00      	cmp	r3, #0
 80061dc:	d003      	beq.n	80061e6 <HAL_GPIO_WritePin+0x1e>
  {
    GPIOx->BSRR = GPIO_Pin;
 80061de:	887a      	ldrh	r2, [r7, #2]
 80061e0:	687b      	ldr	r3, [r7, #4]
 80061e2:	611a      	str	r2, [r3, #16]
  }
  else
  {
    GPIOx->BSRR = (uint32_t)GPIO_Pin << 16u;
  }
}
 80061e4:	e003      	b.n	80061ee <HAL_GPIO_WritePin+0x26>
    GPIOx->BSRR = (uint32_t)GPIO_Pin << 16u;
 80061e6:	887b      	ldrh	r3, [r7, #2]
 80061e8:	041a      	lsls	r2, r3, #16
 80061ea:	687b      	ldr	r3, [r7, #4]
 80061ec:	611a      	str	r2, [r3, #16]
}
 80061ee:	bf00      	nop
 80061f0:	370c      	adds	r7, #12
 80061f2:	46bd      	mov	sp, r7
 80061f4:	bc80      	pop	{r7}
 80061f6:	4770      	bx	lr

080061f8 <HAL_GPIO_TogglePin>:
  * @param  GPIOx: where x can be (A..G depending on device used) to select the GPIO peripheral
  * @param  GPIO_Pin: Specifies the pins to be toggled.
  * @retval None
  */
void HAL_GPIO_TogglePin(GPIO_TypeDef *GPIOx, uint16_t GPIO_Pin)
{
 80061f8:	b480      	push	{r7}
 80061fa:	b085      	sub	sp, #20
 80061fc:	af00      	add	r7, sp, #0
 80061fe:	6078      	str	r0, [r7, #4]
 8006200:	460b      	mov	r3, r1
 8006202:	807b      	strh	r3, [r7, #2]

  /* Check the parameters */
  assert_param(IS_GPIO_PIN(GPIO_Pin));

  /* get current Ouput Data Register value */
  odr = GPIOx->ODR;
 8006204:	687b      	ldr	r3, [r7, #4]
 8006206:	68db      	ldr	r3, [r3, #12]
 8006208:	60fb      	str	r3, [r7, #12]

  /* Set selected pins that were at low level, and reset ones that were high */
  GPIOx->BSRR = ((odr & GPIO_Pin) << GPIO_NUMBER) | (~odr & GPIO_Pin);
 800620a:	887a      	ldrh	r2, [r7, #2]
 800620c:	68fb      	ldr	r3, [r7, #12]
 800620e:	4013      	ands	r3, r2
 8006210:	041a      	lsls	r2, r3, #16
 8006212:	68fb      	ldr	r3, [r7, #12]
 8006214:	43d9      	mvns	r1, r3
 8006216:	887b      	ldrh	r3, [r7, #2]
 8006218:	400b      	ands	r3, r1
 800621a:	431a      	orrs	r2, r3
 800621c:	687b      	ldr	r3, [r7, #4]
 800621e:	611a      	str	r2, [r3, #16]
}
 8006220:	bf00      	nop
 8006222:	3714      	adds	r7, #20
 8006224:	46bd      	mov	sp, r7
 8006226:	bc80      	pop	{r7}
 8006228:	4770      	bx	lr
	...

0800622c <HAL_RCC_OscConfig>:
  *         supported by this macro. User should request a transition to HSE Off
  *         first and then HSE On or HSE Bypass.
  * @retval HAL status
  */
HAL_StatusTypeDef HAL_RCC_OscConfig(RCC_OscInitTypeDef  *RCC_OscInitStruct)
{
 800622c:	b580      	push	{r7, lr}
 800622e:	b086      	sub	sp, #24
 8006230:	af00      	add	r7, sp, #0
 8006232:	6078      	str	r0, [r7, #4]
  uint32_t tickstart;
  uint32_t pll_config;

  /* Check Null pointer */
  if (RCC_OscInitStruct == NULL)
 8006234:	687b      	ldr	r3, [r7, #4]
 8006236:	2b00      	cmp	r3, #0
 8006238:	d101      	bne.n	800623e <HAL_RCC_OscConfig+0x12>
  {
    return HAL_ERROR;
 800623a:	2301      	movs	r3, #1
 800623c:	e26c      	b.n	8006718 <HAL_RCC_OscConfig+0x4ec>

  /* Check the parameters */
  assert_param(IS_RCC_OSCILLATORTYPE(RCC_OscInitStruct->OscillatorType));

  /*------------------------------- HSE Configuration ------------------------*/
  if (((RCC_OscInitStruct->OscillatorType) & RCC_OSCILLATORTYPE_HSE) == RCC_OSCILLATORTYPE_HSE)
 800623e:	687b      	ldr	r3, [r7, #4]
 8006240:	681b      	ldr	r3, [r3, #0]
 8006242:	f003 0301 	and.w	r3, r3, #1
 8006246:	2b00      	cmp	r3, #0
 8006248:	f000 8087 	beq.w	800635a <HAL_RCC_OscConfig+0x12e>
  {
    /* Check the parameters */
    assert_param(IS_RCC_HSE(RCC_OscInitStruct->HSEState));

    /* When the HSE is used as system clock or clock source for PLL in these cases it is not allowed to be disabled */
    if ((__HAL_RCC_GET_SYSCLK_SOURCE() == RCC_SYSCLKSOURCE_STATUS_HSE)
 800624c:	4b92      	ldr	r3, [pc, #584]	; (8006498 <HAL_RCC_OscConfig+0x26c>)
 800624e:	685b      	ldr	r3, [r3, #4]
 8006250:	f003 030c 	and.w	r3, r3, #12
 8006254:	2b04      	cmp	r3, #4
 8006256:	d00c      	beq.n	8006272 <HAL_RCC_OscConfig+0x46>
        || ((__HAL_RCC_GET_SYSCLK_SOURCE() == RCC_SYSCLKSOURCE_STATUS_PLLCLK) && (__HAL_RCC_GET_PLL_OSCSOURCE() == RCC_PLLSOURCE_HSE)))
 8006258:	4b8f      	ldr	r3, [pc, #572]	; (8006498 <HAL_RCC_OscConfig+0x26c>)
 800625a:	685b      	ldr	r3, [r3, #4]
 800625c:	f003 030c 	and.w	r3, r3, #12
 8006260:	2b08      	cmp	r3, #8
 8006262:	d112      	bne.n	800628a <HAL_RCC_OscConfig+0x5e>
 8006264:	4b8c      	ldr	r3, [pc, #560]	; (8006498 <HAL_RCC_OscConfig+0x26c>)
 8006266:	685b      	ldr	r3, [r3, #4]
 8006268:	f403 3380 	and.w	r3, r3, #65536	; 0x10000
 800626c:	f5b3 3f80 	cmp.w	r3, #65536	; 0x10000
 8006270:	d10b      	bne.n	800628a <HAL_RCC_OscConfig+0x5e>
    {
      if ((__HAL_RCC_GET_FLAG(RCC_FLAG_HSERDY) != RESET) && (RCC_OscInitStruct->HSEState == RCC_HSE_OFF))
 8006272:	4b89      	ldr	r3, [pc, #548]	; (8006498 <HAL_RCC_OscConfig+0x26c>)
 8006274:	681b      	ldr	r3, [r3, #0]
 8006276:	f403 3300 	and.w	r3, r3, #131072	; 0x20000
 800627a:	2b00      	cmp	r3, #0
 800627c:	d06c      	beq.n	8006358 <HAL_RCC_OscConfig+0x12c>
 800627e:	687b      	ldr	r3, [r7, #4]
 8006280:	685b      	ldr	r3, [r3, #4]
 8006282:	2b00      	cmp	r3, #0
 8006284:	d168      	bne.n	8006358 <HAL_RCC_OscConfig+0x12c>
      {
        return HAL_ERROR;
 8006286:	2301      	movs	r3, #1
 8006288:	e246      	b.n	8006718 <HAL_RCC_OscConfig+0x4ec>
      }
    }
    else
    {
      /* Set the new HSE configuration ---------------------------------------*/
      __HAL_RCC_HSE_CONFIG(RCC_OscInitStruct->HSEState);
 800628a:	687b      	ldr	r3, [r7, #4]
 800628c:	685b      	ldr	r3, [r3, #4]
 800628e:	f5b3 3f80 	cmp.w	r3, #65536	; 0x10000
 8006292:	d106      	bne.n	80062a2 <HAL_RCC_OscConfig+0x76>
 8006294:	4b80      	ldr	r3, [pc, #512]	; (8006498 <HAL_RCC_OscConfig+0x26c>)
 8006296:	681b      	ldr	r3, [r3, #0]
 8006298:	4a7f      	ldr	r2, [pc, #508]	; (8006498 <HAL_RCC_OscConfig+0x26c>)
 800629a:	f443 3380 	orr.w	r3, r3, #65536	; 0x10000
 800629e:	6013      	str	r3, [r2, #0]
 80062a0:	e02e      	b.n	8006300 <HAL_RCC_OscConfig+0xd4>
 80062a2:	687b      	ldr	r3, [r7, #4]
 80062a4:	685b      	ldr	r3, [r3, #4]
 80062a6:	2b00      	cmp	r3, #0
 80062a8:	d10c      	bne.n	80062c4 <HAL_RCC_OscConfig+0x98>
 80062aa:	4b7b      	ldr	r3, [pc, #492]	; (8006498 <HAL_RCC_OscConfig+0x26c>)
 80062ac:	681b      	ldr	r3, [r3, #0]
 80062ae:	4a7a      	ldr	r2, [pc, #488]	; (8006498 <HAL_RCC_OscConfig+0x26c>)
 80062b0:	f423 3380 	bic.w	r3, r3, #65536	; 0x10000
 80062b4:	6013      	str	r3, [r2, #0]
 80062b6:	4b78      	ldr	r3, [pc, #480]	; (8006498 <HAL_RCC_OscConfig+0x26c>)
 80062b8:	681b      	ldr	r3, [r3, #0]
 80062ba:	4a77      	ldr	r2, [pc, #476]	; (8006498 <HAL_RCC_OscConfig+0x26c>)
 80062bc:	f423 2380 	bic.w	r3, r3, #262144	; 0x40000
 80062c0:	6013      	str	r3, [r2, #0]
 80062c2:	e01d      	b.n	8006300 <HAL_RCC_OscConfig+0xd4>
 80062c4:	687b      	ldr	r3, [r7, #4]
 80062c6:	685b      	ldr	r3, [r3, #4]
 80062c8:	f5b3 2fa0 	cmp.w	r3, #327680	; 0x50000
 80062cc:	d10c      	bne.n	80062e8 <HAL_RCC_OscConfig+0xbc>
 80062ce:	4b72      	ldr	r3, [pc, #456]	; (8006498 <HAL_RCC_OscConfig+0x26c>)
 80062d0:	681b      	ldr	r3, [r3, #0]
 80062d2:	4a71      	ldr	r2, [pc, #452]	; (8006498 <HAL_RCC_OscConfig+0x26c>)
 80062d4:	f443 2380 	orr.w	r3, r3, #262144	; 0x40000
 80062d8:	6013      	str	r3, [r2, #0]
 80062da:	4b6f      	ldr	r3, [pc, #444]	; (8006498 <HAL_RCC_OscConfig+0x26c>)
 80062dc:	681b      	ldr	r3, [r3, #0]
 80062de:	4a6e      	ldr	r2, [pc, #440]	; (8006498 <HAL_RCC_OscConfig+0x26c>)
 80062e0:	f443 3380 	orr.w	r3, r3, #65536	; 0x10000
 80062e4:	6013      	str	r3, [r2, #0]
 80062e6:	e00b      	b.n	8006300 <HAL_RCC_OscConfig+0xd4>
 80062e8:	4b6b      	ldr	r3, [pc, #428]	; (8006498 <HAL_RCC_OscConfig+0x26c>)
 80062ea:	681b      	ldr	r3, [r3, #0]
 80062ec:	4a6a      	ldr	r2, [pc, #424]	; (8006498 <HAL_RCC_OscConfig+0x26c>)
 80062ee:	f423 3380 	bic.w	r3, r3, #65536	; 0x10000
 80062f2:	6013      	str	r3, [r2, #0]
 80062f4:	4b68      	ldr	r3, [pc, #416]	; (8006498 <HAL_RCC_OscConfig+0x26c>)
 80062f6:	681b      	ldr	r3, [r3, #0]
 80062f8:	4a67      	ldr	r2, [pc, #412]	; (8006498 <HAL_RCC_OscConfig+0x26c>)
 80062fa:	f423 2380 	bic.w	r3, r3, #262144	; 0x40000
 80062fe:	6013      	str	r3, [r2, #0]


      /* Check the HSE State */
      if (RCC_OscInitStruct->HSEState != RCC_HSE_OFF)
 8006300:	687b      	ldr	r3, [r7, #4]
 8006302:	685b      	ldr	r3, [r3, #4]
 8006304:	2b00      	cmp	r3, #0
 8006306:	d013      	beq.n	8006330 <HAL_RCC_OscConfig+0x104>
      {
        /* Get Start Tick */
        tickstart = HAL_GetTick();
 8006308:	f7ff f8ae 	bl	8005468 <HAL_GetTick>
 800630c:	6138      	str	r0, [r7, #16]

        /* Wait till HSE is ready */
        while (__HAL_RCC_GET_FLAG(RCC_FLAG_HSERDY) == RESET)
 800630e:	e008      	b.n	8006322 <HAL_RCC_OscConfig+0xf6>
        {
          if ((HAL_GetTick() - tickstart) > HSE_TIMEOUT_VALUE)
 8006310:	f7ff f8aa 	bl	8005468 <HAL_GetTick>
 8006314:	4602      	mov	r2, r0
 8006316:	693b      	ldr	r3, [r7, #16]
 8006318:	1ad3      	subs	r3, r2, r3
 800631a:	2b64      	cmp	r3, #100	; 0x64
 800631c:	d901      	bls.n	8006322 <HAL_RCC_OscConfig+0xf6>
          {
            return HAL_TIMEOUT;
 800631e:	2303      	movs	r3, #3
 8006320:	e1fa      	b.n	8006718 <HAL_RCC_OscConfig+0x4ec>
        while (__HAL_RCC_GET_FLAG(RCC_FLAG_HSERDY) == RESET)
 8006322:	4b5d      	ldr	r3, [pc, #372]	; (8006498 <HAL_RCC_OscConfig+0x26c>)
 8006324:	681b      	ldr	r3, [r3, #0]
 8006326:	f403 3300 	and.w	r3, r3, #131072	; 0x20000
 800632a:	2b00      	cmp	r3, #0
 800632c:	d0f0      	beq.n	8006310 <HAL_RCC_OscConfig+0xe4>
 800632e:	e014      	b.n	800635a <HAL_RCC_OscConfig+0x12e>
        }
      }
      else
      {
        /* Get Start Tick */
        tickstart = HAL_GetTick();
 8006330:	f7ff f89a 	bl	8005468 <HAL_GetTick>
 8006334:	6138      	str	r0, [r7, #16]

        /* Wait till HSE is disabled */
        while (__HAL_RCC_GET_FLAG(RCC_FLAG_HSERDY) != RESET)
 8006336:	e008      	b.n	800634a <HAL_RCC_OscConfig+0x11e>
        {
          if ((HAL_GetTick() - tickstart) > HSE_TIMEOUT_VALUE)
 8006338:	f7ff f896 	bl	8005468 <HAL_GetTick>
 800633c:	4602      	mov	r2, r0
 800633e:	693b      	ldr	r3, [r7, #16]
 8006340:	1ad3      	subs	r3, r2, r3
 8006342:	2b64      	cmp	r3, #100	; 0x64
 8006344:	d901      	bls.n	800634a <HAL_RCC_OscConfig+0x11e>
          {
            return HAL_TIMEOUT;
 8006346:	2303      	movs	r3, #3
 8006348:	e1e6      	b.n	8006718 <HAL_RCC_OscConfig+0x4ec>
        while (__HAL_RCC_GET_FLAG(RCC_FLAG_HSERDY) != RESET)
 800634a:	4b53      	ldr	r3, [pc, #332]	; (8006498 <HAL_RCC_OscConfig+0x26c>)
 800634c:	681b      	ldr	r3, [r3, #0]
 800634e:	f403 3300 	and.w	r3, r3, #131072	; 0x20000
 8006352:	2b00      	cmp	r3, #0
 8006354:	d1f0      	bne.n	8006338 <HAL_RCC_OscConfig+0x10c>
 8006356:	e000      	b.n	800635a <HAL_RCC_OscConfig+0x12e>
      if ((__HAL_RCC_GET_FLAG(RCC_FLAG_HSERDY) != RESET) && (RCC_OscInitStruct->HSEState == RCC_HSE_OFF))
 8006358:	bf00      	nop
        }
      }
    }
  }
  /*----------------------------- HSI Configuration --------------------------*/
  if (((RCC_OscInitStruct->OscillatorType) & RCC_OSCILLATORTYPE_HSI) == RCC_OSCILLATORTYPE_HSI)
 800635a:	687b      	ldr	r3, [r7, #4]
 800635c:	681b      	ldr	r3, [r3, #0]
 800635e:	f003 0302 	and.w	r3, r3, #2
 8006362:	2b00      	cmp	r3, #0
 8006364:	d063      	beq.n	800642e <HAL_RCC_OscConfig+0x202>
    /* Check the parameters */
    assert_param(IS_RCC_HSI(RCC_OscInitStruct->HSIState));
    assert_param(IS_RCC_CALIBRATION_VALUE(RCC_OscInitStruct->HSICalibrationValue));

    /* Check if HSI is used as system clock or as PLL source when PLL is selected as system clock */
    if ((__HAL_RCC_GET_SYSCLK_SOURCE() == RCC_SYSCLKSOURCE_STATUS_HSI)
 8006366:	4b4c      	ldr	r3, [pc, #304]	; (8006498 <HAL_RCC_OscConfig+0x26c>)
 8006368:	685b      	ldr	r3, [r3, #4]
 800636a:	f003 030c 	and.w	r3, r3, #12
 800636e:	2b00      	cmp	r3, #0
 8006370:	d00b      	beq.n	800638a <HAL_RCC_OscConfig+0x15e>
        || ((__HAL_RCC_GET_SYSCLK_SOURCE() == RCC_SYSCLKSOURCE_STATUS_PLLCLK) && (__HAL_RCC_GET_PLL_OSCSOURCE() == RCC_PLLSOURCE_HSI_DIV2)))
 8006372:	4b49      	ldr	r3, [pc, #292]	; (8006498 <HAL_RCC_OscConfig+0x26c>)
 8006374:	685b      	ldr	r3, [r3, #4]
 8006376:	f003 030c 	and.w	r3, r3, #12
 800637a:	2b08      	cmp	r3, #8
 800637c:	d11c      	bne.n	80063b8 <HAL_RCC_OscConfig+0x18c>
 800637e:	4b46      	ldr	r3, [pc, #280]	; (8006498 <HAL_RCC_OscConfig+0x26c>)
 8006380:	685b      	ldr	r3, [r3, #4]
 8006382:	f403 3380 	and.w	r3, r3, #65536	; 0x10000
 8006386:	2b00      	cmp	r3, #0
 8006388:	d116      	bne.n	80063b8 <HAL_RCC_OscConfig+0x18c>
    {
      /* When HSI is used as system clock it will not disabled */
      if ((__HAL_RCC_GET_FLAG(RCC_FLAG_HSIRDY) != RESET) && (RCC_OscInitStruct->HSIState != RCC_HSI_ON))
 800638a:	4b43      	ldr	r3, [pc, #268]	; (8006498 <HAL_RCC_OscConfig+0x26c>)
 800638c:	681b      	ldr	r3, [r3, #0]
 800638e:	f003 0302 	and.w	r3, r3, #2
 8006392:	2b00      	cmp	r3, #0
 8006394:	d005      	beq.n	80063a2 <HAL_RCC_OscConfig+0x176>
 8006396:	687b      	ldr	r3, [r7, #4]
 8006398:	691b      	ldr	r3, [r3, #16]
 800639a:	2b01      	cmp	r3, #1
 800639c:	d001      	beq.n	80063a2 <HAL_RCC_OscConfig+0x176>
      {
        return HAL_ERROR;
 800639e:	2301      	movs	r3, #1
 80063a0:	e1ba      	b.n	8006718 <HAL_RCC_OscConfig+0x4ec>
      }
      /* Otherwise, just the calibration is allowed */
      else
      {
        /* Adjusts the Internal High Speed oscillator (HSI) calibration value.*/
        __HAL_RCC_HSI_CALIBRATIONVALUE_ADJUST(RCC_OscInitStruct->HSICalibrationValue);
 80063a2:	4b3d      	ldr	r3, [pc, #244]	; (8006498 <HAL_RCC_OscConfig+0x26c>)
 80063a4:	681b      	ldr	r3, [r3, #0]
 80063a6:	f023 02f8 	bic.w	r2, r3, #248	; 0xf8
 80063aa:	687b      	ldr	r3, [r7, #4]
 80063ac:	695b      	ldr	r3, [r3, #20]
 80063ae:	00db      	lsls	r3, r3, #3
 80063b0:	4939      	ldr	r1, [pc, #228]	; (8006498 <HAL_RCC_OscConfig+0x26c>)
 80063b2:	4313      	orrs	r3, r2
 80063b4:	600b      	str	r3, [r1, #0]
      if ((__HAL_RCC_GET_FLAG(RCC_FLAG_HSIRDY) != RESET) && (RCC_OscInitStruct->HSIState != RCC_HSI_ON))
 80063b6:	e03a      	b.n	800642e <HAL_RCC_OscConfig+0x202>
      }
    }
    else
    {
      /* Check the HSI State */
      if (RCC_OscInitStruct->HSIState != RCC_HSI_OFF)
 80063b8:	687b      	ldr	r3, [r7, #4]
 80063ba:	691b      	ldr	r3, [r3, #16]
 80063bc:	2b00      	cmp	r3, #0
 80063be:	d020      	beq.n	8006402 <HAL_RCC_OscConfig+0x1d6>
      {
        /* Enable the Internal High Speed oscillator (HSI). */
        __HAL_RCC_HSI_ENABLE();
 80063c0:	4b36      	ldr	r3, [pc, #216]	; (800649c <HAL_RCC_OscConfig+0x270>)
 80063c2:	2201      	movs	r2, #1
 80063c4:	601a      	str	r2, [r3, #0]

        /* Get Start Tick */
        tickstart = HAL_GetTick();
 80063c6:	f7ff f84f 	bl	8005468 <HAL_GetTick>
 80063ca:	6138      	str	r0, [r7, #16]

        /* Wait till HSI is ready */
        while (__HAL_RCC_GET_FLAG(RCC_FLAG_HSIRDY) == RESET)
 80063cc:	e008      	b.n	80063e0 <HAL_RCC_OscConfig+0x1b4>
        {
          if ((HAL_GetTick() - tickstart) > HSI_TIMEOUT_VALUE)
 80063ce:	f7ff f84b 	bl	8005468 <HAL_GetTick>
 80063d2:	4602      	mov	r2, r0
 80063d4:	693b      	ldr	r3, [r7, #16]
 80063d6:	1ad3      	subs	r3, r2, r3
 80063d8:	2b02      	cmp	r3, #2
 80063da:	d901      	bls.n	80063e0 <HAL_RCC_OscConfig+0x1b4>
          {
            return HAL_TIMEOUT;
 80063dc:	2303      	movs	r3, #3
 80063de:	e19b      	b.n	8006718 <HAL_RCC_OscConfig+0x4ec>
        while (__HAL_RCC_GET_FLAG(RCC_FLAG_HSIRDY) == RESET)
 80063e0:	4b2d      	ldr	r3, [pc, #180]	; (8006498 <HAL_RCC_OscConfig+0x26c>)
 80063e2:	681b      	ldr	r3, [r3, #0]
 80063e4:	f003 0302 	and.w	r3, r3, #2
 80063e8:	2b00      	cmp	r3, #0
 80063ea:	d0f0      	beq.n	80063ce <HAL_RCC_OscConfig+0x1a2>
          }
        }

        /* Adjusts the Internal High Speed oscillator (HSI) calibration value.*/
        __HAL_RCC_HSI_CALIBRATIONVALUE_ADJUST(RCC_OscInitStruct->HSICalibrationValue);
 80063ec:	4b2a      	ldr	r3, [pc, #168]	; (8006498 <HAL_RCC_OscConfig+0x26c>)
 80063ee:	681b      	ldr	r3, [r3, #0]
 80063f0:	f023 02f8 	bic.w	r2, r3, #248	; 0xf8
 80063f4:	687b      	ldr	r3, [r7, #4]
 80063f6:	695b      	ldr	r3, [r3, #20]
 80063f8:	00db      	lsls	r3, r3, #3
 80063fa:	4927      	ldr	r1, [pc, #156]	; (8006498 <HAL_RCC_OscConfig+0x26c>)
 80063fc:	4313      	orrs	r3, r2
 80063fe:	600b      	str	r3, [r1, #0]
 8006400:	e015      	b.n	800642e <HAL_RCC_OscConfig+0x202>
      }
      else
      {
        /* Disable the Internal High Speed oscillator (HSI). */
        __HAL_RCC_HSI_DISABLE();
 8006402:	4b26      	ldr	r3, [pc, #152]	; (800649c <HAL_RCC_OscConfig+0x270>)
 8006404:	2200      	movs	r2, #0
 8006406:	601a      	str	r2, [r3, #0]

        /* Get Start Tick */
        tickstart = HAL_GetTick();
 8006408:	f7ff f82e 	bl	8005468 <HAL_GetTick>
 800640c:	6138      	str	r0, [r7, #16]

        /* Wait till HSI is disabled */
        while (__HAL_RCC_GET_FLAG(RCC_FLAG_HSIRDY) != RESET)
 800640e:	e008      	b.n	8006422 <HAL_RCC_OscConfig+0x1f6>
        {
          if ((HAL_GetTick() - tickstart) > HSI_TIMEOUT_VALUE)
 8006410:	f7ff f82a 	bl	8005468 <HAL_GetTick>
 8006414:	4602      	mov	r2, r0
 8006416:	693b      	ldr	r3, [r7, #16]
 8006418:	1ad3      	subs	r3, r2, r3
 800641a:	2b02      	cmp	r3, #2
 800641c:	d901      	bls.n	8006422 <HAL_RCC_OscConfig+0x1f6>
          {
            return HAL_TIMEOUT;
 800641e:	2303      	movs	r3, #3
 8006420:	e17a      	b.n	8006718 <HAL_RCC_OscConfig+0x4ec>
        while (__HAL_RCC_GET_FLAG(RCC_FLAG_HSIRDY) != RESET)
 8006422:	4b1d      	ldr	r3, [pc, #116]	; (8006498 <HAL_RCC_OscConfig+0x26c>)
 8006424:	681b      	ldr	r3, [r3, #0]
 8006426:	f003 0302 	and.w	r3, r3, #2
 800642a:	2b00      	cmp	r3, #0
 800642c:	d1f0      	bne.n	8006410 <HAL_RCC_OscConfig+0x1e4>
        }
      }
    }
  }
  /*------------------------------ LSI Configuration -------------------------*/
  if (((RCC_OscInitStruct->OscillatorType) & RCC_OSCILLATORTYPE_LSI) == RCC_OSCILLATORTYPE_LSI)
 800642e:	687b      	ldr	r3, [r7, #4]
 8006430:	681b      	ldr	r3, [r3, #0]
 8006432:	f003 0308 	and.w	r3, r3, #8
 8006436:	2b00      	cmp	r3, #0
 8006438:	d03a      	beq.n	80064b0 <HAL_RCC_OscConfig+0x284>
  {
    /* Check the parameters */
    assert_param(IS_RCC_LSI(RCC_OscInitStruct->LSIState));

    /* Check the LSI State */
    if (RCC_OscInitStruct->LSIState != RCC_LSI_OFF)
 800643a:	687b      	ldr	r3, [r7, #4]
 800643c:	699b      	ldr	r3, [r3, #24]
 800643e:	2b00      	cmp	r3, #0
 8006440:	d019      	beq.n	8006476 <HAL_RCC_OscConfig+0x24a>
    {
      /* Enable the Internal Low Speed oscillator (LSI). */
      __HAL_RCC_LSI_ENABLE();
 8006442:	4b17      	ldr	r3, [pc, #92]	; (80064a0 <HAL_RCC_OscConfig+0x274>)
 8006444:	2201      	movs	r2, #1
 8006446:	601a      	str	r2, [r3, #0]

      /* Get Start Tick */
      tickstart = HAL_GetTick();
 8006448:	f7ff f80e 	bl	8005468 <HAL_GetTick>
 800644c:	6138      	str	r0, [r7, #16]

      /* Wait till LSI is ready */
      while (__HAL_RCC_GET_FLAG(RCC_FLAG_LSIRDY) == RESET)
 800644e:	e008      	b.n	8006462 <HAL_RCC_OscConfig+0x236>
      {
        if ((HAL_GetTick() - tickstart) > LSI_TIMEOUT_VALUE)
 8006450:	f7ff f80a 	bl	8005468 <HAL_GetTick>
 8006454:	4602      	mov	r2, r0
 8006456:	693b      	ldr	r3, [r7, #16]
 8006458:	1ad3      	subs	r3, r2, r3
 800645a:	2b02      	cmp	r3, #2
 800645c:	d901      	bls.n	8006462 <HAL_RCC_OscConfig+0x236>
        {
          return HAL_TIMEOUT;
 800645e:	2303      	movs	r3, #3
 8006460:	e15a      	b.n	8006718 <HAL_RCC_OscConfig+0x4ec>
      while (__HAL_RCC_GET_FLAG(RCC_FLAG_LSIRDY) == RESET)
 8006462:	4b0d      	ldr	r3, [pc, #52]	; (8006498 <HAL_RCC_OscConfig+0x26c>)
 8006464:	6a5b      	ldr	r3, [r3, #36]	; 0x24
 8006466:	f003 0302 	and.w	r3, r3, #2
 800646a:	2b00      	cmp	r3, #0
 800646c:	d0f0      	beq.n	8006450 <HAL_RCC_OscConfig+0x224>
        }
      }
      /*  To have a fully stabilized clock in the specified range, a software delay of 1ms
          should be added.*/
      RCC_Delay(1);
 800646e:	2001      	movs	r0, #1
 8006470:	f000 fad6 	bl	8006a20 <RCC_Delay>
 8006474:	e01c      	b.n	80064b0 <HAL_RCC_OscConfig+0x284>
    }
    else
    {
      /* Disable the Internal Low Speed oscillator (LSI). */
      __HAL_RCC_LSI_DISABLE();
 8006476:	4b0a      	ldr	r3, [pc, #40]	; (80064a0 <HAL_RCC_OscConfig+0x274>)
 8006478:	2200      	movs	r2, #0
 800647a:	601a      	str	r2, [r3, #0]

      /* Get Start Tick */
      tickstart = HAL_GetTick();
 800647c:	f7fe fff4 	bl	8005468 <HAL_GetTick>
 8006480:	6138      	str	r0, [r7, #16]

      /* Wait till LSI is disabled */
      while (__HAL_RCC_GET_FLAG(RCC_FLAG_LSIRDY) != RESET)
 8006482:	e00f      	b.n	80064a4 <HAL_RCC_OscConfig+0x278>
      {
        if ((HAL_GetTick() - tickstart) > LSI_TIMEOUT_VALUE)
 8006484:	f7fe fff0 	bl	8005468 <HAL_GetTick>
 8006488:	4602      	mov	r2, r0
 800648a:	693b      	ldr	r3, [r7, #16]
 800648c:	1ad3      	subs	r3, r2, r3
 800648e:	2b02      	cmp	r3, #2
 8006490:	d908      	bls.n	80064a4 <HAL_RCC_OscConfig+0x278>
        {
          return HAL_TIMEOUT;
 8006492:	2303      	movs	r3, #3
 8006494:	e140      	b.n	8006718 <HAL_RCC_OscConfig+0x4ec>
 8006496:	bf00      	nop
 8006498:	40021000 	.word	0x40021000
 800649c:	42420000 	.word	0x42420000
 80064a0:	42420480 	.word	0x42420480
      while (__HAL_RCC_GET_FLAG(RCC_FLAG_LSIRDY) != RESET)
 80064a4:	4b9e      	ldr	r3, [pc, #632]	; (8006720 <HAL_RCC_OscConfig+0x4f4>)
 80064a6:	6a5b      	ldr	r3, [r3, #36]	; 0x24
 80064a8:	f003 0302 	and.w	r3, r3, #2
 80064ac:	2b00      	cmp	r3, #0
 80064ae:	d1e9      	bne.n	8006484 <HAL_RCC_OscConfig+0x258>
        }
      }
    }
  }
  /*------------------------------ LSE Configuration -------------------------*/
  if (((RCC_OscInitStruct->OscillatorType) & RCC_OSCILLATORTYPE_LSE) == RCC_OSCILLATORTYPE_LSE)
 80064b0:	687b      	ldr	r3, [r7, #4]
 80064b2:	681b      	ldr	r3, [r3, #0]
 80064b4:	f003 0304 	and.w	r3, r3, #4
 80064b8:	2b00      	cmp	r3, #0
 80064ba:	f000 80a6 	beq.w	800660a <HAL_RCC_OscConfig+0x3de>
  {
    FlagStatus       pwrclkchanged = RESET;
 80064be:	2300      	movs	r3, #0
 80064c0:	75fb      	strb	r3, [r7, #23]
    /* Check the parameters */
    assert_param(IS_RCC_LSE(RCC_OscInitStruct->LSEState));

    /* Update LSE configuration in Backup Domain control register    */
    /* Requires to enable write access to Backup Domain of necessary */
    if (__HAL_RCC_PWR_IS_CLK_DISABLED())
 80064c2:	4b97      	ldr	r3, [pc, #604]	; (8006720 <HAL_RCC_OscConfig+0x4f4>)
 80064c4:	69db      	ldr	r3, [r3, #28]
 80064c6:	f003 5380 	and.w	r3, r3, #268435456	; 0x10000000
 80064ca:	2b00      	cmp	r3, #0
 80064cc:	d10d      	bne.n	80064ea <HAL_RCC_OscConfig+0x2be>
    {
      __HAL_RCC_PWR_CLK_ENABLE();
 80064ce:	4b94      	ldr	r3, [pc, #592]	; (8006720 <HAL_RCC_OscConfig+0x4f4>)
 80064d0:	69db      	ldr	r3, [r3, #28]
 80064d2:	4a93      	ldr	r2, [pc, #588]	; (8006720 <HAL_RCC_OscConfig+0x4f4>)
 80064d4:	f043 5380 	orr.w	r3, r3, #268435456	; 0x10000000
 80064d8:	61d3      	str	r3, [r2, #28]
 80064da:	4b91      	ldr	r3, [pc, #580]	; (8006720 <HAL_RCC_OscConfig+0x4f4>)
 80064dc:	69db      	ldr	r3, [r3, #28]
 80064de:	f003 5380 	and.w	r3, r3, #268435456	; 0x10000000
 80064e2:	60bb      	str	r3, [r7, #8]
 80064e4:	68bb      	ldr	r3, [r7, #8]
      pwrclkchanged = SET;
 80064e6:	2301      	movs	r3, #1
 80064e8:	75fb      	strb	r3, [r7, #23]
    }

    if (HAL_IS_BIT_CLR(PWR->CR, PWR_CR_DBP))
 80064ea:	4b8e      	ldr	r3, [pc, #568]	; (8006724 <HAL_RCC_OscConfig+0x4f8>)
 80064ec:	681b      	ldr	r3, [r3, #0]
 80064ee:	f403 7380 	and.w	r3, r3, #256	; 0x100
 80064f2:	2b00      	cmp	r3, #0
 80064f4:	d118      	bne.n	8006528 <HAL_RCC_OscConfig+0x2fc>
    {
      /* Enable write access to Backup domain */
      SET_BIT(PWR->CR, PWR_CR_DBP);
 80064f6:	4b8b      	ldr	r3, [pc, #556]	; (8006724 <HAL_RCC_OscConfig+0x4f8>)
 80064f8:	681b      	ldr	r3, [r3, #0]
 80064fa:	4a8a      	ldr	r2, [pc, #552]	; (8006724 <HAL_RCC_OscConfig+0x4f8>)
 80064fc:	f443 7380 	orr.w	r3, r3, #256	; 0x100
 8006500:	6013      	str	r3, [r2, #0]

      /* Wait for Backup domain Write protection disable */
      tickstart = HAL_GetTick();
 8006502:	f7fe ffb1 	bl	8005468 <HAL_GetTick>
 8006506:	6138      	str	r0, [r7, #16]

      while (HAL_IS_BIT_CLR(PWR->CR, PWR_CR_DBP))
 8006508:	e008      	b.n	800651c <HAL_RCC_OscConfig+0x2f0>
      {
        if ((HAL_GetTick() - tickstart) > RCC_DBP_TIMEOUT_VALUE)
 800650a:	f7fe ffad 	bl	8005468 <HAL_GetTick>
 800650e:	4602      	mov	r2, r0
 8006510:	693b      	ldr	r3, [r7, #16]
 8006512:	1ad3      	subs	r3, r2, r3
 8006514:	2b64      	cmp	r3, #100	; 0x64
 8006516:	d901      	bls.n	800651c <HAL_RCC_OscConfig+0x2f0>
        {
          return HAL_TIMEOUT;
 8006518:	2303      	movs	r3, #3
 800651a:	e0fd      	b.n	8006718 <HAL_RCC_OscConfig+0x4ec>
      while (HAL_IS_BIT_CLR(PWR->CR, PWR_CR_DBP))
 800651c:	4b81      	ldr	r3, [pc, #516]	; (8006724 <HAL_RCC_OscConfig+0x4f8>)
 800651e:	681b      	ldr	r3, [r3, #0]
 8006520:	f403 7380 	and.w	r3, r3, #256	; 0x100
 8006524:	2b00      	cmp	r3, #0
 8006526:	d0f0      	beq.n	800650a <HAL_RCC_OscConfig+0x2de>
        }
      }
    }

    /* Set the new LSE configuration -----------------------------------------*/
    __HAL_RCC_LSE_CONFIG(RCC_OscInitStruct->LSEState);
 8006528:	687b      	ldr	r3, [r7, #4]
 800652a:	68db      	ldr	r3, [r3, #12]
 800652c:	2b01      	cmp	r3, #1
 800652e:	d106      	bne.n	800653e <HAL_RCC_OscConfig+0x312>
 8006530:	4b7b      	ldr	r3, [pc, #492]	; (8006720 <HAL_RCC_OscConfig+0x4f4>)
 8006532:	6a1b      	ldr	r3, [r3, #32]
 8006534:	4a7a      	ldr	r2, [pc, #488]	; (8006720 <HAL_RCC_OscConfig+0x4f4>)
 8006536:	f043 0301 	orr.w	r3, r3, #1
 800653a:	6213      	str	r3, [r2, #32]
 800653c:	e02d      	b.n	800659a <HAL_RCC_OscConfig+0x36e>
 800653e:	687b      	ldr	r3, [r7, #4]
 8006540:	68db      	ldr	r3, [r3, #12]
 8006542:	2b00      	cmp	r3, #0
 8006544:	d10c      	bne.n	8006560 <HAL_RCC_OscConfig+0x334>
 8006546:	4b76      	ldr	r3, [pc, #472]	; (8006720 <HAL_RCC_OscConfig+0x4f4>)
 8006548:	6a1b      	ldr	r3, [r3, #32]
 800654a:	4a75      	ldr	r2, [pc, #468]	; (8006720 <HAL_RCC_OscConfig+0x4f4>)
 800654c:	f023 0301 	bic.w	r3, r3, #1
 8006550:	6213      	str	r3, [r2, #32]
 8006552:	4b73      	ldr	r3, [pc, #460]	; (8006720 <HAL_RCC_OscConfig+0x4f4>)
 8006554:	6a1b      	ldr	r3, [r3, #32]
 8006556:	4a72      	ldr	r2, [pc, #456]	; (8006720 <HAL_RCC_OscConfig+0x4f4>)
 8006558:	f023 0304 	bic.w	r3, r3, #4
 800655c:	6213      	str	r3, [r2, #32]
 800655e:	e01c      	b.n	800659a <HAL_RCC_OscConfig+0x36e>
 8006560:	687b      	ldr	r3, [r7, #4]
 8006562:	68db      	ldr	r3, [r3, #12]
 8006564:	2b05      	cmp	r3, #5
 8006566:	d10c      	bne.n	8006582 <HAL_RCC_OscConfig+0x356>
 8006568:	4b6d      	ldr	r3, [pc, #436]	; (8006720 <HAL_RCC_OscConfig+0x4f4>)
 800656a:	6a1b      	ldr	r3, [r3, #32]
 800656c:	4a6c      	ldr	r2, [pc, #432]	; (8006720 <HAL_RCC_OscConfig+0x4f4>)
 800656e:	f043 0304 	orr.w	r3, r3, #4
 8006572:	6213      	str	r3, [r2, #32]
 8006574:	4b6a      	ldr	r3, [pc, #424]	; (8006720 <HAL_RCC_OscConfig+0x4f4>)
 8006576:	6a1b      	ldr	r3, [r3, #32]
 8006578:	4a69      	ldr	r2, [pc, #420]	; (8006720 <HAL_RCC_OscConfig+0x4f4>)
 800657a:	f043 0301 	orr.w	r3, r3, #1
 800657e:	6213      	str	r3, [r2, #32]
 8006580:	e00b      	b.n	800659a <HAL_RCC_OscConfig+0x36e>
 8006582:	4b67      	ldr	r3, [pc, #412]	; (8006720 <HAL_RCC_OscConfig+0x4f4>)
 8006584:	6a1b      	ldr	r3, [r3, #32]
 8006586:	4a66      	ldr	r2, [pc, #408]	; (8006720 <HAL_RCC_OscConfig+0x4f4>)
 8006588:	f023 0301 	bic.w	r3, r3, #1
 800658c:	6213      	str	r3, [r2, #32]
 800658e:	4b64      	ldr	r3, [pc, #400]	; (8006720 <HAL_RCC_OscConfig+0x4f4>)
 8006590:	6a1b      	ldr	r3, [r3, #32]
 8006592:	4a63      	ldr	r2, [pc, #396]	; (8006720 <HAL_RCC_OscConfig+0x4f4>)
 8006594:	f023 0304 	bic.w	r3, r3, #4
 8006598:	6213      	str	r3, [r2, #32]
    /* Check the LSE State */
    if (RCC_OscInitStruct->LSEState != RCC_LSE_OFF)
 800659a:	687b      	ldr	r3, [r7, #4]
 800659c:	68db      	ldr	r3, [r3, #12]
 800659e:	2b00      	cmp	r3, #0
 80065a0:	d015      	beq.n	80065ce <HAL_RCC_OscConfig+0x3a2>
    {
      /* Get Start Tick */
      tickstart = HAL_GetTick();
 80065a2:	f7fe ff61 	bl	8005468 <HAL_GetTick>
 80065a6:	6138      	str	r0, [r7, #16]

      /* Wait till LSE is ready */
      while (__HAL_RCC_GET_FLAG(RCC_FLAG_LSERDY) == RESET)
 80065a8:	e00a      	b.n	80065c0 <HAL_RCC_OscConfig+0x394>
      {
        if ((HAL_GetTick() - tickstart) > RCC_LSE_TIMEOUT_VALUE)
 80065aa:	f7fe ff5d 	bl	8005468 <HAL_GetTick>
 80065ae:	4602      	mov	r2, r0
 80065b0:	693b      	ldr	r3, [r7, #16]
 80065b2:	1ad3      	subs	r3, r2, r3
 80065b4:	f241 3288 	movw	r2, #5000	; 0x1388
 80065b8:	4293      	cmp	r3, r2
 80065ba:	d901      	bls.n	80065c0 <HAL_RCC_OscConfig+0x394>
        {
          return HAL_TIMEOUT;
 80065bc:	2303      	movs	r3, #3
 80065be:	e0ab      	b.n	8006718 <HAL_RCC_OscConfig+0x4ec>
      while (__HAL_RCC_GET_FLAG(RCC_FLAG_LSERDY) == RESET)
 80065c0:	4b57      	ldr	r3, [pc, #348]	; (8006720 <HAL_RCC_OscConfig+0x4f4>)
 80065c2:	6a1b      	ldr	r3, [r3, #32]
 80065c4:	f003 0302 	and.w	r3, r3, #2
 80065c8:	2b00      	cmp	r3, #0
 80065ca:	d0ee      	beq.n	80065aa <HAL_RCC_OscConfig+0x37e>
 80065cc:	e014      	b.n	80065f8 <HAL_RCC_OscConfig+0x3cc>
      }
    }
    else
    {
      /* Get Start Tick */
      tickstart = HAL_GetTick();
 80065ce:	f7fe ff4b 	bl	8005468 <HAL_GetTick>
 80065d2:	6138      	str	r0, [r7, #16]

      /* Wait till LSE is disabled */
      while (__HAL_RCC_GET_FLAG(RCC_FLAG_LSERDY) != RESET)
 80065d4:	e00a      	b.n	80065ec <HAL_RCC_OscConfig+0x3c0>
      {
        if ((HAL_GetTick() - tickstart) > RCC_LSE_TIMEOUT_VALUE)
 80065d6:	f7fe ff47 	bl	8005468 <HAL_GetTick>
 80065da:	4602      	mov	r2, r0
 80065dc:	693b      	ldr	r3, [r7, #16]
 80065de:	1ad3      	subs	r3, r2, r3
 80065e0:	f241 3288 	movw	r2, #5000	; 0x1388
 80065e4:	4293      	cmp	r3, r2
 80065e6:	d901      	bls.n	80065ec <HAL_RCC_OscConfig+0x3c0>
        {
          return HAL_TIMEOUT;
 80065e8:	2303      	movs	r3, #3
 80065ea:	e095      	b.n	8006718 <HAL_RCC_OscConfig+0x4ec>
      while (__HAL_RCC_GET_FLAG(RCC_FLAG_LSERDY) != RESET)
 80065ec:	4b4c      	ldr	r3, [pc, #304]	; (8006720 <HAL_RCC_OscConfig+0x4f4>)
 80065ee:	6a1b      	ldr	r3, [r3, #32]
 80065f0:	f003 0302 	and.w	r3, r3, #2
 80065f4:	2b00      	cmp	r3, #0
 80065f6:	d1ee      	bne.n	80065d6 <HAL_RCC_OscConfig+0x3aa>
        }
      }
    }

    /* Require to disable power clock if necessary */
    if (pwrclkchanged == SET)
 80065f8:	7dfb      	ldrb	r3, [r7, #23]
 80065fa:	2b01      	cmp	r3, #1
 80065fc:	d105      	bne.n	800660a <HAL_RCC_OscConfig+0x3de>
    {
      __HAL_RCC_PWR_CLK_DISABLE();
 80065fe:	4b48      	ldr	r3, [pc, #288]	; (8006720 <HAL_RCC_OscConfig+0x4f4>)
 8006600:	69db      	ldr	r3, [r3, #28]
 8006602:	4a47      	ldr	r2, [pc, #284]	; (8006720 <HAL_RCC_OscConfig+0x4f4>)
 8006604:	f023 5380 	bic.w	r3, r3, #268435456	; 0x10000000
 8006608:	61d3      	str	r3, [r2, #28]

#endif /* RCC_CR_PLL2ON */
  /*-------------------------------- PLL Configuration -----------------------*/
  /* Check the parameters */
  assert_param(IS_RCC_PLL(RCC_OscInitStruct->PLL.PLLState));
  if ((RCC_OscInitStruct->PLL.PLLState) != RCC_PLL_NONE)
 800660a:	687b      	ldr	r3, [r7, #4]
 800660c:	69db      	ldr	r3, [r3, #28]
 800660e:	2b00      	cmp	r3, #0
 8006610:	f000 8081 	beq.w	8006716 <HAL_RCC_OscConfig+0x4ea>
  {
    /* Check if the PLL is used as system clock or not */
    if (__HAL_RCC_GET_SYSCLK_SOURCE() != RCC_SYSCLKSOURCE_STATUS_PLLCLK)
 8006614:	4b42      	ldr	r3, [pc, #264]	; (8006720 <HAL_RCC_OscConfig+0x4f4>)
 8006616:	685b      	ldr	r3, [r3, #4]
 8006618:	f003 030c 	and.w	r3, r3, #12
 800661c:	2b08      	cmp	r3, #8
 800661e:	d061      	beq.n	80066e4 <HAL_RCC_OscConfig+0x4b8>
    {
      if ((RCC_OscInitStruct->PLL.PLLState) == RCC_PLL_ON)
 8006620:	687b      	ldr	r3, [r7, #4]
 8006622:	69db      	ldr	r3, [r3, #28]
 8006624:	2b02      	cmp	r3, #2
 8006626:	d146      	bne.n	80066b6 <HAL_RCC_OscConfig+0x48a>
        /* Check the parameters */
        assert_param(IS_RCC_PLLSOURCE(RCC_OscInitStruct->PLL.PLLSource));
        assert_param(IS_RCC_PLL_MUL(RCC_OscInitStruct->PLL.PLLMUL));

        /* Disable the main PLL. */
        __HAL_RCC_PLL_DISABLE();
 8006628:	4b3f      	ldr	r3, [pc, #252]	; (8006728 <HAL_RCC_OscConfig+0x4fc>)
 800662a:	2200      	movs	r2, #0
 800662c:	601a      	str	r2, [r3, #0]

        /* Get Start Tick */
        tickstart = HAL_GetTick();
 800662e:	f7fe ff1b 	bl	8005468 <HAL_GetTick>
 8006632:	6138      	str	r0, [r7, #16]

        /* Wait till PLL is disabled */
        while (__HAL_RCC_GET_FLAG(RCC_FLAG_PLLRDY)  != RESET)
 8006634:	e008      	b.n	8006648 <HAL_RCC_OscConfig+0x41c>
        {
          if ((HAL_GetTick() - tickstart) > PLL_TIMEOUT_VALUE)
 8006636:	f7fe ff17 	bl	8005468 <HAL_GetTick>
 800663a:	4602      	mov	r2, r0
 800663c:	693b      	ldr	r3, [r7, #16]
 800663e:	1ad3      	subs	r3, r2, r3
 8006640:	2b02      	cmp	r3, #2
 8006642:	d901      	bls.n	8006648 <HAL_RCC_OscConfig+0x41c>
          {
            return HAL_TIMEOUT;
 8006644:	2303      	movs	r3, #3
 8006646:	e067      	b.n	8006718 <HAL_RCC_OscConfig+0x4ec>
        while (__HAL_RCC_GET_FLAG(RCC_FLAG_PLLRDY)  != RESET)
 8006648:	4b35      	ldr	r3, [pc, #212]	; (8006720 <HAL_RCC_OscConfig+0x4f4>)
 800664a:	681b      	ldr	r3, [r3, #0]
 800664c:	f003 7300 	and.w	r3, r3, #33554432	; 0x2000000
 8006650:	2b00      	cmp	r3, #0
 8006652:	d1f0      	bne.n	8006636 <HAL_RCC_OscConfig+0x40a>
          }
        }

        /* Configure the HSE prediv factor --------------------------------*/
        /* It can be written only when the PLL is disabled. Not used in PLL source is different than HSE */
        if (RCC_OscInitStruct->PLL.PLLSource == RCC_PLLSOURCE_HSE)
 8006654:	687b      	ldr	r3, [r7, #4]
 8006656:	6a1b      	ldr	r3, [r3, #32]
 8006658:	f5b3 3f80 	cmp.w	r3, #65536	; 0x10000
 800665c:	d108      	bne.n	8006670 <HAL_RCC_OscConfig+0x444>
          /* Set PREDIV1 source */
          SET_BIT(RCC->CFGR2, RCC_OscInitStruct->Prediv1Source);
#endif /* RCC_CFGR2_PREDIV1SRC */

          /* Set PREDIV1 Value */
          __HAL_RCC_HSE_PREDIV_CONFIG(RCC_OscInitStruct->HSEPredivValue);
 800665e:	4b30      	ldr	r3, [pc, #192]	; (8006720 <HAL_RCC_OscConfig+0x4f4>)
 8006660:	6adb      	ldr	r3, [r3, #44]	; 0x2c
 8006662:	f023 020f 	bic.w	r2, r3, #15
 8006666:	687b      	ldr	r3, [r7, #4]
 8006668:	689b      	ldr	r3, [r3, #8]
 800666a:	492d      	ldr	r1, [pc, #180]	; (8006720 <HAL_RCC_OscConfig+0x4f4>)
 800666c:	4313      	orrs	r3, r2
 800666e:	62cb      	str	r3, [r1, #44]	; 0x2c
        }

        /* Configure the main PLL clock source and multiplication factors. */
        __HAL_RCC_PLL_CONFIG(RCC_OscInitStruct->PLL.PLLSource,
 8006670:	4b2b      	ldr	r3, [pc, #172]	; (8006720 <HAL_RCC_OscConfig+0x4f4>)
 8006672:	685b      	ldr	r3, [r3, #4]
 8006674:	f423 1274 	bic.w	r2, r3, #3997696	; 0x3d0000
 8006678:	687b      	ldr	r3, [r7, #4]
 800667a:	6a19      	ldr	r1, [r3, #32]
 800667c:	687b      	ldr	r3, [r7, #4]
 800667e:	6a5b      	ldr	r3, [r3, #36]	; 0x24
 8006680:	430b      	orrs	r3, r1
 8006682:	4927      	ldr	r1, [pc, #156]	; (8006720 <HAL_RCC_OscConfig+0x4f4>)
 8006684:	4313      	orrs	r3, r2
 8006686:	604b      	str	r3, [r1, #4]
                             RCC_OscInitStruct->PLL.PLLMUL);
        /* Enable the main PLL. */
        __HAL_RCC_PLL_ENABLE();
 8006688:	4b27      	ldr	r3, [pc, #156]	; (8006728 <HAL_RCC_OscConfig+0x4fc>)
 800668a:	2201      	movs	r2, #1
 800668c:	601a      	str	r2, [r3, #0]

        /* Get Start Tick */
        tickstart = HAL_GetTick();
 800668e:	f7fe feeb 	bl	8005468 <HAL_GetTick>
 8006692:	6138      	str	r0, [r7, #16]

        /* Wait till PLL is ready */
        while (__HAL_RCC_GET_FLAG(RCC_FLAG_PLLRDY)  == RESET)
 8006694:	e008      	b.n	80066a8 <HAL_RCC_OscConfig+0x47c>
        {
          if ((HAL_GetTick() - tickstart) > PLL_TIMEOUT_VALUE)
 8006696:	f7fe fee7 	bl	8005468 <HAL_GetTick>
 800669a:	4602      	mov	r2, r0
 800669c:	693b      	ldr	r3, [r7, #16]
 800669e:	1ad3      	subs	r3, r2, r3
 80066a0:	2b02      	cmp	r3, #2
 80066a2:	d901      	bls.n	80066a8 <HAL_RCC_OscConfig+0x47c>
          {
            return HAL_TIMEOUT;
 80066a4:	2303      	movs	r3, #3
 80066a6:	e037      	b.n	8006718 <HAL_RCC_OscConfig+0x4ec>
        while (__HAL_RCC_GET_FLAG(RCC_FLAG_PLLRDY)  == RESET)
 80066a8:	4b1d      	ldr	r3, [pc, #116]	; (8006720 <HAL_RCC_OscConfig+0x4f4>)
 80066aa:	681b      	ldr	r3, [r3, #0]
 80066ac:	f003 7300 	and.w	r3, r3, #33554432	; 0x2000000
 80066b0:	2b00      	cmp	r3, #0
 80066b2:	d0f0      	beq.n	8006696 <HAL_RCC_OscConfig+0x46a>
 80066b4:	e02f      	b.n	8006716 <HAL_RCC_OscConfig+0x4ea>
        }
      }
      else
      {
        /* Disable the main PLL. */
        __HAL_RCC_PLL_DISABLE();
 80066b6:	4b1c      	ldr	r3, [pc, #112]	; (8006728 <HAL_RCC_OscConfig+0x4fc>)
 80066b8:	2200      	movs	r2, #0
 80066ba:	601a      	str	r2, [r3, #0]

        /* Get Start Tick */
        tickstart = HAL_GetTick();
 80066bc:	f7fe fed4 	bl	8005468 <HAL_GetTick>
 80066c0:	6138      	str	r0, [r7, #16]

        /* Wait till PLL is disabled */
        while (__HAL_RCC_GET_FLAG(RCC_FLAG_PLLRDY)  != RESET)
 80066c2:	e008      	b.n	80066d6 <HAL_RCC_OscConfig+0x4aa>
        {
          if ((HAL_GetTick() - tickstart) > PLL_TIMEOUT_VALUE)
 80066c4:	f7fe fed0 	bl	8005468 <HAL_GetTick>
 80066c8:	4602      	mov	r2, r0
 80066ca:	693b      	ldr	r3, [r7, #16]
 80066cc:	1ad3      	subs	r3, r2, r3
 80066ce:	2b02      	cmp	r3, #2
 80066d0:	d901      	bls.n	80066d6 <HAL_RCC_OscConfig+0x4aa>
          {
            return HAL_TIMEOUT;
 80066d2:	2303      	movs	r3, #3
 80066d4:	e020      	b.n	8006718 <HAL_RCC_OscConfig+0x4ec>
        while (__HAL_RCC_GET_FLAG(RCC_FLAG_PLLRDY)  != RESET)
 80066d6:	4b12      	ldr	r3, [pc, #72]	; (8006720 <HAL_RCC_OscConfig+0x4f4>)
 80066d8:	681b      	ldr	r3, [r3, #0]
 80066da:	f003 7300 	and.w	r3, r3, #33554432	; 0x2000000
 80066de:	2b00      	cmp	r3, #0
 80066e0:	d1f0      	bne.n	80066c4 <HAL_RCC_OscConfig+0x498>
 80066e2:	e018      	b.n	8006716 <HAL_RCC_OscConfig+0x4ea>
      }
    }
    else
    {
      /* Check if there is a request to disable the PLL used as System clock source */
      if ((RCC_OscInitStruct->PLL.PLLState) == RCC_PLL_OFF)
 80066e4:	687b      	ldr	r3, [r7, #4]
 80066e6:	69db      	ldr	r3, [r3, #28]
 80066e8:	2b01      	cmp	r3, #1
 80066ea:	d101      	bne.n	80066f0 <HAL_RCC_OscConfig+0x4c4>
      {
        return HAL_ERROR;
 80066ec:	2301      	movs	r3, #1
 80066ee:	e013      	b.n	8006718 <HAL_RCC_OscConfig+0x4ec>
      }
      else
      {
        /* Do not return HAL_ERROR if request repeats the current configuration */
        pll_config = RCC->CFGR;
 80066f0:	4b0b      	ldr	r3, [pc, #44]	; (8006720 <HAL_RCC_OscConfig+0x4f4>)
 80066f2:	685b      	ldr	r3, [r3, #4]
 80066f4:	60fb      	str	r3, [r7, #12]
        if ((READ_BIT(pll_config, RCC_CFGR_PLLSRC) != RCC_OscInitStruct->PLL.PLLSource) ||
 80066f6:	68fb      	ldr	r3, [r7, #12]
 80066f8:	f403 3280 	and.w	r2, r3, #65536	; 0x10000
 80066fc:	687b      	ldr	r3, [r7, #4]
 80066fe:	6a1b      	ldr	r3, [r3, #32]
 8006700:	429a      	cmp	r2, r3
 8006702:	d106      	bne.n	8006712 <HAL_RCC_OscConfig+0x4e6>
            (READ_BIT(pll_config, RCC_CFGR_PLLMULL) != RCC_OscInitStruct->PLL.PLLMUL))
 8006704:	68fb      	ldr	r3, [r7, #12]
 8006706:	f403 1270 	and.w	r2, r3, #3932160	; 0x3c0000
 800670a:	687b      	ldr	r3, [r7, #4]
 800670c:	6a5b      	ldr	r3, [r3, #36]	; 0x24
        if ((READ_BIT(pll_config, RCC_CFGR_PLLSRC) != RCC_OscInitStruct->PLL.PLLSource) ||
 800670e:	429a      	cmp	r2, r3
 8006710:	d001      	beq.n	8006716 <HAL_RCC_OscConfig+0x4ea>
        {
          return HAL_ERROR;
 8006712:	2301      	movs	r3, #1
 8006714:	e000      	b.n	8006718 <HAL_RCC_OscConfig+0x4ec>
        }
      }
    }
  }

  return HAL_OK;
 8006716:	2300      	movs	r3, #0
}
 8006718:	4618      	mov	r0, r3
 800671a:	3718      	adds	r7, #24
 800671c:	46bd      	mov	sp, r7
 800671e:	bd80      	pop	{r7, pc}
 8006720:	40021000 	.word	0x40021000
 8006724:	40007000 	.word	0x40007000
 8006728:	42420060 	.word	0x42420060

0800672c <HAL_RCC_ClockConfig>:
  *         You can use @ref HAL_RCC_GetClockConfig() function to know which clock is
  *         currently used as system clock source.
  * @retval HAL status
  */
HAL_StatusTypeDef HAL_RCC_ClockConfig(RCC_ClkInitTypeDef  *RCC_ClkInitStruct, uint32_t FLatency)
{
 800672c:	b580      	push	{r7, lr}
 800672e:	b084      	sub	sp, #16
 8006730:	af00      	add	r7, sp, #0
 8006732:	6078      	str	r0, [r7, #4]
 8006734:	6039      	str	r1, [r7, #0]
  uint32_t tickstart;

  /* Check Null pointer */
  if (RCC_ClkInitStruct == NULL)
 8006736:	687b      	ldr	r3, [r7, #4]
 8006738:	2b00      	cmp	r3, #0
 800673a:	d101      	bne.n	8006740 <HAL_RCC_ClockConfig+0x14>
  {
    return HAL_ERROR;
 800673c:	2301      	movs	r3, #1
 800673e:	e0a0      	b.n	8006882 <HAL_RCC_ClockConfig+0x156>
  }
}

#endif /* FLASH_ACR_LATENCY */
/*-------------------------- HCLK Configuration --------------------------*/
if (((RCC_ClkInitStruct->ClockType) & RCC_CLOCKTYPE_HCLK) == RCC_CLOCKTYPE_HCLK)
 8006740:	687b      	ldr	r3, [r7, #4]
 8006742:	681b      	ldr	r3, [r3, #0]
 8006744:	f003 0302 	and.w	r3, r3, #2
 8006748:	2b00      	cmp	r3, #0
 800674a:	d020      	beq.n	800678e <HAL_RCC_ClockConfig+0x62>
  {
    /* Set the highest APBx dividers in order to ensure that we do not go through
    a non-spec phase whatever we decrease or increase HCLK. */
    if (((RCC_ClkInitStruct->ClockType) & RCC_CLOCKTYPE_PCLK1) == RCC_CLOCKTYPE_PCLK1)
 800674c:	687b      	ldr	r3, [r7, #4]
 800674e:	681b      	ldr	r3, [r3, #0]
 8006750:	f003 0304 	and.w	r3, r3, #4
 8006754:	2b00      	cmp	r3, #0
 8006756:	d005      	beq.n	8006764 <HAL_RCC_ClockConfig+0x38>
    {
      MODIFY_REG(RCC->CFGR, RCC_CFGR_PPRE1, RCC_HCLK_DIV16);
 8006758:	4b4c      	ldr	r3, [pc, #304]	; (800688c <HAL_RCC_ClockConfig+0x160>)
 800675a:	685b      	ldr	r3, [r3, #4]
 800675c:	4a4b      	ldr	r2, [pc, #300]	; (800688c <HAL_RCC_ClockConfig+0x160>)
 800675e:	f443 63e0 	orr.w	r3, r3, #1792	; 0x700
 8006762:	6053      	str	r3, [r2, #4]
    }

    if (((RCC_ClkInitStruct->ClockType) & RCC_CLOCKTYPE_PCLK2) == RCC_CLOCKTYPE_PCLK2)
 8006764:	687b      	ldr	r3, [r7, #4]
 8006766:	681b      	ldr	r3, [r3, #0]
 8006768:	f003 0308 	and.w	r3, r3, #8
 800676c:	2b00      	cmp	r3, #0
 800676e:	d005      	beq.n	800677c <HAL_RCC_ClockConfig+0x50>
    {
      MODIFY_REG(RCC->CFGR, RCC_CFGR_PPRE2, (RCC_HCLK_DIV16 << 3));
 8006770:	4b46      	ldr	r3, [pc, #280]	; (800688c <HAL_RCC_ClockConfig+0x160>)
 8006772:	685b      	ldr	r3, [r3, #4]
 8006774:	4a45      	ldr	r2, [pc, #276]	; (800688c <HAL_RCC_ClockConfig+0x160>)
 8006776:	f443 5360 	orr.w	r3, r3, #14336	; 0x3800
 800677a:	6053      	str	r3, [r2, #4]
    }

    /* Set the new HCLK clock divider */
    assert_param(IS_RCC_HCLK(RCC_ClkInitStruct->AHBCLKDivider));
    MODIFY_REG(RCC->CFGR, RCC_CFGR_HPRE, RCC_ClkInitStruct->AHBCLKDivider);
 800677c:	4b43      	ldr	r3, [pc, #268]	; (800688c <HAL_RCC_ClockConfig+0x160>)
 800677e:	685b      	ldr	r3, [r3, #4]
 8006780:	f023 02f0 	bic.w	r2, r3, #240	; 0xf0
 8006784:	687b      	ldr	r3, [r7, #4]
 8006786:	689b      	ldr	r3, [r3, #8]
 8006788:	4940      	ldr	r1, [pc, #256]	; (800688c <HAL_RCC_ClockConfig+0x160>)
 800678a:	4313      	orrs	r3, r2
 800678c:	604b      	str	r3, [r1, #4]
  }

  /*------------------------- SYSCLK Configuration ---------------------------*/
  if (((RCC_ClkInitStruct->ClockType) & RCC_CLOCKTYPE_SYSCLK) == RCC_CLOCKTYPE_SYSCLK)
 800678e:	687b      	ldr	r3, [r7, #4]
 8006790:	681b      	ldr	r3, [r3, #0]
 8006792:	f003 0301 	and.w	r3, r3, #1
 8006796:	2b00      	cmp	r3, #0
 8006798:	d040      	beq.n	800681c <HAL_RCC_ClockConfig+0xf0>
  {
    assert_param(IS_RCC_SYSCLKSOURCE(RCC_ClkInitStruct->SYSCLKSource));

    /* HSE is selected as System Clock Source */
    if (RCC_ClkInitStruct->SYSCLKSource == RCC_SYSCLKSOURCE_HSE)
 800679a:	687b      	ldr	r3, [r7, #4]
 800679c:	685b      	ldr	r3, [r3, #4]
 800679e:	2b01      	cmp	r3, #1
 80067a0:	d107      	bne.n	80067b2 <HAL_RCC_ClockConfig+0x86>
    {
      /* Check the HSE ready flag */
      if (__HAL_RCC_GET_FLAG(RCC_FLAG_HSERDY) == RESET)
 80067a2:	4b3a      	ldr	r3, [pc, #232]	; (800688c <HAL_RCC_ClockConfig+0x160>)
 80067a4:	681b      	ldr	r3, [r3, #0]
 80067a6:	f403 3300 	and.w	r3, r3, #131072	; 0x20000
 80067aa:	2b00      	cmp	r3, #0
 80067ac:	d115      	bne.n	80067da <HAL_RCC_ClockConfig+0xae>
      {
        return HAL_ERROR;
 80067ae:	2301      	movs	r3, #1
 80067b0:	e067      	b.n	8006882 <HAL_RCC_ClockConfig+0x156>
      }
    }
    /* PLL is selected as System Clock Source */
    else if (RCC_ClkInitStruct->SYSCLKSource == RCC_SYSCLKSOURCE_PLLCLK)
 80067b2:	687b      	ldr	r3, [r7, #4]
 80067b4:	685b      	ldr	r3, [r3, #4]
 80067b6:	2b02      	cmp	r3, #2
 80067b8:	d107      	bne.n	80067ca <HAL_RCC_ClockConfig+0x9e>
    {
      /* Check the PLL ready flag */
      if (__HAL_RCC_GET_FLAG(RCC_FLAG_PLLRDY) == RESET)
 80067ba:	4b34      	ldr	r3, [pc, #208]	; (800688c <HAL_RCC_ClockConfig+0x160>)
 80067bc:	681b      	ldr	r3, [r3, #0]
 80067be:	f003 7300 	and.w	r3, r3, #33554432	; 0x2000000
 80067c2:	2b00      	cmp	r3, #0
 80067c4:	d109      	bne.n	80067da <HAL_RCC_ClockConfig+0xae>
      {
        return HAL_ERROR;
 80067c6:	2301      	movs	r3, #1
 80067c8:	e05b      	b.n	8006882 <HAL_RCC_ClockConfig+0x156>
    }
    /* HSI is selected as System Clock Source */
    else
    {
      /* Check the HSI ready flag */
      if (__HAL_RCC_GET_FLAG(RCC_FLAG_HSIRDY) == RESET)
 80067ca:	4b30      	ldr	r3, [pc, #192]	; (800688c <HAL_RCC_ClockConfig+0x160>)
 80067cc:	681b      	ldr	r3, [r3, #0]
 80067ce:	f003 0302 	and.w	r3, r3, #2
 80067d2:	2b00      	cmp	r3, #0
 80067d4:	d101      	bne.n	80067da <HAL_RCC_ClockConfig+0xae>
      {
        return HAL_ERROR;
 80067d6:	2301      	movs	r3, #1
 80067d8:	e053      	b.n	8006882 <HAL_RCC_ClockConfig+0x156>
      }
    }
    __HAL_RCC_SYSCLK_CONFIG(RCC_ClkInitStruct->SYSCLKSource);
 80067da:	4b2c      	ldr	r3, [pc, #176]	; (800688c <HAL_RCC_ClockConfig+0x160>)
 80067dc:	685b      	ldr	r3, [r3, #4]
 80067de:	f023 0203 	bic.w	r2, r3, #3
 80067e2:	687b      	ldr	r3, [r7, #4]
 80067e4:	685b      	ldr	r3, [r3, #4]
 80067e6:	4929      	ldr	r1, [pc, #164]	; (800688c <HAL_RCC_ClockConfig+0x160>)
 80067e8:	4313      	orrs	r3, r2
 80067ea:	604b      	str	r3, [r1, #4]

    /* Get Start Tick */
    tickstart = HAL_GetTick();
 80067ec:	f7fe fe3c 	bl	8005468 <HAL_GetTick>
 80067f0:	60f8      	str	r0, [r7, #12]

    while (__HAL_RCC_GET_SYSCLK_SOURCE() != (RCC_ClkInitStruct->SYSCLKSource << RCC_CFGR_SWS_Pos))
 80067f2:	e00a      	b.n	800680a <HAL_RCC_ClockConfig+0xde>
    {
      if ((HAL_GetTick() - tickstart) > CLOCKSWITCH_TIMEOUT_VALUE)
 80067f4:	f7fe fe38 	bl	8005468 <HAL_GetTick>
 80067f8:	4602      	mov	r2, r0
 80067fa:	68fb      	ldr	r3, [r7, #12]
 80067fc:	1ad3      	subs	r3, r2, r3
 80067fe:	f241 3288 	movw	r2, #5000	; 0x1388
 8006802:	4293      	cmp	r3, r2
 8006804:	d901      	bls.n	800680a <HAL_RCC_ClockConfig+0xde>
      {
        return HAL_TIMEOUT;
 8006806:	2303      	movs	r3, #3
 8006808:	e03b      	b.n	8006882 <HAL_RCC_ClockConfig+0x156>
    while (__HAL_RCC_GET_SYSCLK_SOURCE() != (RCC_ClkInitStruct->SYSCLKSource << RCC_CFGR_SWS_Pos))
 800680a:	4b20      	ldr	r3, [pc, #128]	; (800688c <HAL_RCC_ClockConfig+0x160>)
 800680c:	685b      	ldr	r3, [r3, #4]
 800680e:	f003 020c 	and.w	r2, r3, #12
 8006812:	687b      	ldr	r3, [r7, #4]
 8006814:	685b      	ldr	r3, [r3, #4]
 8006816:	009b      	lsls	r3, r3, #2
 8006818:	429a      	cmp	r2, r3
 800681a:	d1eb      	bne.n	80067f4 <HAL_RCC_ClockConfig+0xc8>
  }
}
#endif /* FLASH_ACR_LATENCY */

/*-------------------------- PCLK1 Configuration ---------------------------*/
if (((RCC_ClkInitStruct->ClockType) & RCC_CLOCKTYPE_PCLK1) == RCC_CLOCKTYPE_PCLK1)
 800681c:	687b      	ldr	r3, [r7, #4]
 800681e:	681b      	ldr	r3, [r3, #0]
 8006820:	f003 0304 	and.w	r3, r3, #4
 8006824:	2b00      	cmp	r3, #0
 8006826:	d008      	beq.n	800683a <HAL_RCC_ClockConfig+0x10e>
  {
    assert_param(IS_RCC_PCLK(RCC_ClkInitStruct->APB1CLKDivider));
    MODIFY_REG(RCC->CFGR, RCC_CFGR_PPRE1, RCC_ClkInitStruct->APB1CLKDivider);
 8006828:	4b18      	ldr	r3, [pc, #96]	; (800688c <HAL_RCC_ClockConfig+0x160>)
 800682a:	685b      	ldr	r3, [r3, #4]
 800682c:	f423 62e0 	bic.w	r2, r3, #1792	; 0x700
 8006830:	687b      	ldr	r3, [r7, #4]
 8006832:	68db      	ldr	r3, [r3, #12]
 8006834:	4915      	ldr	r1, [pc, #84]	; (800688c <HAL_RCC_ClockConfig+0x160>)
 8006836:	4313      	orrs	r3, r2
 8006838:	604b      	str	r3, [r1, #4]
  }

  /*-------------------------- PCLK2 Configuration ---------------------------*/
  if (((RCC_ClkInitStruct->ClockType) & RCC_CLOCKTYPE_PCLK2) == RCC_CLOCKTYPE_PCLK2)
 800683a:	687b      	ldr	r3, [r7, #4]
 800683c:	681b      	ldr	r3, [r3, #0]
 800683e:	f003 0308 	and.w	r3, r3, #8
 8006842:	2b00      	cmp	r3, #0
 8006844:	d009      	beq.n	800685a <HAL_RCC_ClockConfig+0x12e>
  {
    assert_param(IS_RCC_PCLK(RCC_ClkInitStruct->APB2CLKDivider));
    MODIFY_REG(RCC->CFGR, RCC_CFGR_PPRE2, ((RCC_ClkInitStruct->APB2CLKDivider) << 3));
 8006846:	4b11      	ldr	r3, [pc, #68]	; (800688c <HAL_RCC_ClockConfig+0x160>)
 8006848:	685b      	ldr	r3, [r3, #4]
 800684a:	f423 5260 	bic.w	r2, r3, #14336	; 0x3800
 800684e:	687b      	ldr	r3, [r7, #4]
 8006850:	691b      	ldr	r3, [r3, #16]
 8006852:	00db      	lsls	r3, r3, #3
 8006854:	490d      	ldr	r1, [pc, #52]	; (800688c <HAL_RCC_ClockConfig+0x160>)
 8006856:	4313      	orrs	r3, r2
 8006858:	604b      	str	r3, [r1, #4]
  }

  /* Update the SystemCoreClock global variable */
  SystemCoreClock = HAL_RCC_GetSysClockFreq() >> AHBPrescTable[(RCC->CFGR & RCC_CFGR_HPRE) >> RCC_CFGR_HPRE_Pos];
 800685a:	f000 f81f 	bl	800689c <HAL_RCC_GetSysClockFreq>
 800685e:	4602      	mov	r2, r0
 8006860:	4b0a      	ldr	r3, [pc, #40]	; (800688c <HAL_RCC_ClockConfig+0x160>)
 8006862:	685b      	ldr	r3, [r3, #4]
 8006864:	091b      	lsrs	r3, r3, #4
 8006866:	f003 030f 	and.w	r3, r3, #15
 800686a:	4909      	ldr	r1, [pc, #36]	; (8006890 <HAL_RCC_ClockConfig+0x164>)
 800686c:	5ccb      	ldrb	r3, [r1, r3]
 800686e:	fa22 f303 	lsr.w	r3, r2, r3
 8006872:	4a08      	ldr	r2, [pc, #32]	; (8006894 <HAL_RCC_ClockConfig+0x168>)
 8006874:	6013      	str	r3, [r2, #0]

  /* Configure the source of time base considering new system clocks settings*/
  HAL_InitTick(uwTickPrio);
 8006876:	4b08      	ldr	r3, [pc, #32]	; (8006898 <HAL_RCC_ClockConfig+0x16c>)
 8006878:	681b      	ldr	r3, [r3, #0]
 800687a:	4618      	mov	r0, r3
 800687c:	f7fe fbb8 	bl	8004ff0 <HAL_InitTick>

  return HAL_OK;
 8006880:	2300      	movs	r3, #0
}
 8006882:	4618      	mov	r0, r3
 8006884:	3710      	adds	r7, #16
 8006886:	46bd      	mov	sp, r7
 8006888:	bd80      	pop	{r7, pc}
 800688a:	bf00      	nop
 800688c:	40021000 	.word	0x40021000
 8006890:	08008720 	.word	0x08008720
 8006894:	20000034 	.word	0x20000034
 8006898:	20000038 	.word	0x20000038

0800689c <HAL_RCC_GetSysClockFreq>:
  *         right SYSCLK value. Otherwise, any configuration based on this function will be incorrect.
  *
  * @retval SYSCLK frequency
  */
uint32_t HAL_RCC_GetSysClockFreq(void)
{
 800689c:	b490      	push	{r4, r7}
 800689e:	b08e      	sub	sp, #56	; 0x38
 80068a0:	af00      	add	r7, sp, #0
#if defined(RCC_CFGR2_PREDIV1SRC)
  const uint8_t aPLLMULFactorTable[14] = {0, 0, 4, 5, 6, 7, 8, 9, 0, 0, 0, 0, 0, 13};
  const uint8_t aPredivFactorTable[16] = {1, 2, 3, 4, 5, 6, 7, 8, 9, 10, 11, 12, 13, 14, 15, 16};
#else
  const uint8_t aPLLMULFactorTable[16] = {2, 3, 4, 5, 6, 7, 8, 9, 10, 11, 12, 13, 14, 15, 16, 16};
 80068a2:	4b2b      	ldr	r3, [pc, #172]	; (8006950 <HAL_RCC_GetSysClockFreq+0xb4>)
 80068a4:	f107 0414 	add.w	r4, r7, #20
 80068a8:	cb0f      	ldmia	r3, {r0, r1, r2, r3}
 80068aa:	e884 000f 	stmia.w	r4, {r0, r1, r2, r3}
#if defined(RCC_CFGR2_PREDIV1)
  const uint8_t aPredivFactorTable[16] = {1, 2, 3, 4, 5, 6, 7, 8, 9, 10, 11, 12, 13, 14, 15, 16};
 80068ae:	4b29      	ldr	r3, [pc, #164]	; (8006954 <HAL_RCC_GetSysClockFreq+0xb8>)
 80068b0:	1d3c      	adds	r4, r7, #4
 80068b2:	cb0f      	ldmia	r3, {r0, r1, r2, r3}
 80068b4:	e884 000f 	stmia.w	r4, {r0, r1, r2, r3}
#else
  const uint8_t aPredivFactorTable[2] = {1, 2};
#endif /*RCC_CFGR2_PREDIV1*/

#endif
  uint32_t tmpreg = 0U, prediv = 0U, pllclk = 0U, pllmul = 0U;
 80068b8:	2300      	movs	r3, #0
 80068ba:	62fb      	str	r3, [r7, #44]	; 0x2c
 80068bc:	2300      	movs	r3, #0
 80068be:	62bb      	str	r3, [r7, #40]	; 0x28
 80068c0:	2300      	movs	r3, #0
 80068c2:	637b      	str	r3, [r7, #52]	; 0x34
 80068c4:	2300      	movs	r3, #0
 80068c6:	627b      	str	r3, [r7, #36]	; 0x24
  uint32_t sysclockfreq = 0U;
 80068c8:	2300      	movs	r3, #0
 80068ca:	633b      	str	r3, [r7, #48]	; 0x30
#if defined(RCC_CFGR2_PREDIV1SRC)
  uint32_t prediv2 = 0U, pll2mul = 0U;
#endif /*RCC_CFGR2_PREDIV1SRC*/

  tmpreg = RCC->CFGR;
 80068cc:	4b22      	ldr	r3, [pc, #136]	; (8006958 <HAL_RCC_GetSysClockFreq+0xbc>)
 80068ce:	685b      	ldr	r3, [r3, #4]
 80068d0:	62fb      	str	r3, [r7, #44]	; 0x2c

  /* Get SYSCLK source -------------------------------------------------------*/
  switch (tmpreg & RCC_CFGR_SWS)
 80068d2:	6afb      	ldr	r3, [r7, #44]	; 0x2c
 80068d4:	f003 030c 	and.w	r3, r3, #12
 80068d8:	2b04      	cmp	r3, #4
 80068da:	d002      	beq.n	80068e2 <HAL_RCC_GetSysClockFreq+0x46>
 80068dc:	2b08      	cmp	r3, #8
 80068de:	d003      	beq.n	80068e8 <HAL_RCC_GetSysClockFreq+0x4c>
 80068e0:	e02c      	b.n	800693c <HAL_RCC_GetSysClockFreq+0xa0>
  {
    case RCC_SYSCLKSOURCE_STATUS_HSE:  /* HSE used as system clock */
    {
      sysclockfreq = HSE_VALUE;
 80068e2:	4b1e      	ldr	r3, [pc, #120]	; (800695c <HAL_RCC_GetSysClockFreq+0xc0>)
 80068e4:	633b      	str	r3, [r7, #48]	; 0x30
      break;
 80068e6:	e02c      	b.n	8006942 <HAL_RCC_GetSysClockFreq+0xa6>
    }
    case RCC_SYSCLKSOURCE_STATUS_PLLCLK:  /* PLL used as system clock */
    {
      pllmul = aPLLMULFactorTable[(uint32_t)(tmpreg & RCC_CFGR_PLLMULL) >> RCC_CFGR_PLLMULL_Pos];
 80068e8:	6afb      	ldr	r3, [r7, #44]	; 0x2c
 80068ea:	0c9b      	lsrs	r3, r3, #18
 80068ec:	f003 030f 	and.w	r3, r3, #15
 80068f0:	f107 0238 	add.w	r2, r7, #56	; 0x38
 80068f4:	4413      	add	r3, r2
 80068f6:	f813 3c24 	ldrb.w	r3, [r3, #-36]
 80068fa:	627b      	str	r3, [r7, #36]	; 0x24
      if ((tmpreg & RCC_CFGR_PLLSRC) != RCC_PLLSOURCE_HSI_DIV2)
 80068fc:	6afb      	ldr	r3, [r7, #44]	; 0x2c
 80068fe:	f403 3380 	and.w	r3, r3, #65536	; 0x10000
 8006902:	2b00      	cmp	r3, #0
 8006904:	d012      	beq.n	800692c <HAL_RCC_GetSysClockFreq+0x90>
      {
#if defined(RCC_CFGR2_PREDIV1)
        prediv = aPredivFactorTable[(uint32_t)(RCC->CFGR2 & RCC_CFGR2_PREDIV1) >> RCC_CFGR2_PREDIV1_Pos];
 8006906:	4b14      	ldr	r3, [pc, #80]	; (8006958 <HAL_RCC_GetSysClockFreq+0xbc>)
 8006908:	6adb      	ldr	r3, [r3, #44]	; 0x2c
 800690a:	f003 030f 	and.w	r3, r3, #15
 800690e:	f107 0238 	add.w	r2, r7, #56	; 0x38
 8006912:	4413      	add	r3, r2
 8006914:	f813 3c34 	ldrb.w	r3, [r3, #-52]
 8006918:	62bb      	str	r3, [r7, #40]	; 0x28
        {
          pllclk = pllclk / 2;
        }
#else
        /* HSE used as PLL clock source : PLLCLK = HSE/PREDIV1 * PLLMUL */
        pllclk = (uint32_t)((HSE_VALUE  * pllmul) / prediv);
 800691a:	6a7b      	ldr	r3, [r7, #36]	; 0x24
 800691c:	4a0f      	ldr	r2, [pc, #60]	; (800695c <HAL_RCC_GetSysClockFreq+0xc0>)
 800691e:	fb02 f203 	mul.w	r2, r2, r3
 8006922:	6abb      	ldr	r3, [r7, #40]	; 0x28
 8006924:	fbb2 f3f3 	udiv	r3, r2, r3
 8006928:	637b      	str	r3, [r7, #52]	; 0x34
 800692a:	e004      	b.n	8006936 <HAL_RCC_GetSysClockFreq+0x9a>
#endif /*RCC_CFGR2_PREDIV1SRC*/
      }
      else
      {
        /* HSI used as PLL clock source : PLLCLK = HSI/2 * PLLMUL */
        pllclk = (uint32_t)((HSI_VALUE >> 1) * pllmul);
 800692c:	6a7b      	ldr	r3, [r7, #36]	; 0x24
 800692e:	4a0c      	ldr	r2, [pc, #48]	; (8006960 <HAL_RCC_GetSysClockFreq+0xc4>)
 8006930:	fb02 f303 	mul.w	r3, r2, r3
 8006934:	637b      	str	r3, [r7, #52]	; 0x34
      }
      sysclockfreq = pllclk;
 8006936:	6b7b      	ldr	r3, [r7, #52]	; 0x34
 8006938:	633b      	str	r3, [r7, #48]	; 0x30
      break;
 800693a:	e002      	b.n	8006942 <HAL_RCC_GetSysClockFreq+0xa6>
    }
    case RCC_SYSCLKSOURCE_STATUS_HSI:  /* HSI used as system clock source */
    default: /* HSI used as system clock */
    {
      sysclockfreq = HSI_VALUE;
 800693c:	4b07      	ldr	r3, [pc, #28]	; (800695c <HAL_RCC_GetSysClockFreq+0xc0>)
 800693e:	633b      	str	r3, [r7, #48]	; 0x30
      break;
 8006940:	bf00      	nop
    }
  }
  return sysclockfreq;
 8006942:	6b3b      	ldr	r3, [r7, #48]	; 0x30
}
 8006944:	4618      	mov	r0, r3
 8006946:	3738      	adds	r7, #56	; 0x38
 8006948:	46bd      	mov	sp, r7
 800694a:	bc90      	pop	{r4, r7}
 800694c:	4770      	bx	lr
 800694e:	bf00      	nop
 8006950:	08008700 	.word	0x08008700
 8006954:	08008710 	.word	0x08008710
 8006958:	40021000 	.word	0x40021000
 800695c:	007a1200 	.word	0x007a1200
 8006960:	003d0900 	.word	0x003d0900

08006964 <HAL_RCC_GetHCLKFreq>:
  * @note   The SystemCoreClock CMSIS variable is used to store System Clock Frequency
  *         and updated within this function
  * @retval HCLK frequency
  */
uint32_t HAL_RCC_GetHCLKFreq(void)
{
 8006964:	b480      	push	{r7}
 8006966:	af00      	add	r7, sp, #0
  return SystemCoreClock;
 8006968:	4b02      	ldr	r3, [pc, #8]	; (8006974 <HAL_RCC_GetHCLKFreq+0x10>)
 800696a:	681b      	ldr	r3, [r3, #0]
}
 800696c:	4618      	mov	r0, r3
 800696e:	46bd      	mov	sp, r7
 8006970:	bc80      	pop	{r7}
 8006972:	4770      	bx	lr
 8006974:	20000034 	.word	0x20000034

08006978 <HAL_RCC_GetPCLK1Freq>:
  * @note   Each time PCLK1 changes, this function must be called to update the
  *         right PCLK1 value. Otherwise, any configuration based on this function will be incorrect.
  * @retval PCLK1 frequency
  */
uint32_t HAL_RCC_GetPCLK1Freq(void)
{
 8006978:	b580      	push	{r7, lr}
 800697a:	af00      	add	r7, sp, #0
  /* Get HCLK source and Compute PCLK1 frequency ---------------------------*/
  return (HAL_RCC_GetHCLKFreq() >> APBPrescTable[(RCC->CFGR & RCC_CFGR_PPRE1) >> RCC_CFGR_PPRE1_Pos]);
 800697c:	f7ff fff2 	bl	8006964 <HAL_RCC_GetHCLKFreq>
 8006980:	4602      	mov	r2, r0
 8006982:	4b05      	ldr	r3, [pc, #20]	; (8006998 <HAL_RCC_GetPCLK1Freq+0x20>)
 8006984:	685b      	ldr	r3, [r3, #4]
 8006986:	0a1b      	lsrs	r3, r3, #8
 8006988:	f003 0307 	and.w	r3, r3, #7
 800698c:	4903      	ldr	r1, [pc, #12]	; (800699c <HAL_RCC_GetPCLK1Freq+0x24>)
 800698e:	5ccb      	ldrb	r3, [r1, r3]
 8006990:	fa22 f303 	lsr.w	r3, r2, r3
}
 8006994:	4618      	mov	r0, r3
 8006996:	bd80      	pop	{r7, pc}
 8006998:	40021000 	.word	0x40021000
 800699c:	08008730 	.word	0x08008730

080069a0 <HAL_RCC_GetPCLK2Freq>:
  * @note   Each time PCLK2 changes, this function must be called to update the
  *         right PCLK2 value. Otherwise, any configuration based on this function will be incorrect.
  * @retval PCLK2 frequency
  */
uint32_t HAL_RCC_GetPCLK2Freq(void)
{
 80069a0:	b580      	push	{r7, lr}
 80069a2:	af00      	add	r7, sp, #0
  /* Get HCLK source and Compute PCLK2 frequency ---------------------------*/
  return (HAL_RCC_GetHCLKFreq() >> APBPrescTable[(RCC->CFGR & RCC_CFGR_PPRE2) >> RCC_CFGR_PPRE2_Pos]);
 80069a4:	f7ff ffde 	bl	8006964 <HAL_RCC_GetHCLKFreq>
 80069a8:	4602      	mov	r2, r0
 80069aa:	4b05      	ldr	r3, [pc, #20]	; (80069c0 <HAL_RCC_GetPCLK2Freq+0x20>)
 80069ac:	685b      	ldr	r3, [r3, #4]
 80069ae:	0adb      	lsrs	r3, r3, #11
 80069b0:	f003 0307 	and.w	r3, r3, #7
 80069b4:	4903      	ldr	r1, [pc, #12]	; (80069c4 <HAL_RCC_GetPCLK2Freq+0x24>)
 80069b6:	5ccb      	ldrb	r3, [r1, r3]
 80069b8:	fa22 f303 	lsr.w	r3, r2, r3
}
 80069bc:	4618      	mov	r0, r3
 80069be:	bd80      	pop	{r7, pc}
 80069c0:	40021000 	.word	0x40021000
 80069c4:	08008730 	.word	0x08008730

080069c8 <HAL_RCC_GetClockConfig>:
  * contains the current clock configuration.
  * @param  pFLatency Pointer on the Flash Latency.
  * @retval None
  */
void HAL_RCC_GetClockConfig(RCC_ClkInitTypeDef  *RCC_ClkInitStruct, uint32_t *pFLatency)
{
 80069c8:	b480      	push	{r7}
 80069ca:	b083      	sub	sp, #12
 80069cc:	af00      	add	r7, sp, #0
 80069ce:	6078      	str	r0, [r7, #4]
 80069d0:	6039      	str	r1, [r7, #0]
  /* Check the parameters */
  assert_param(RCC_ClkInitStruct != NULL);
  assert_param(pFLatency != NULL);

  /* Set all possible values for the Clock type parameter --------------------*/
  RCC_ClkInitStruct->ClockType = RCC_CLOCKTYPE_SYSCLK | RCC_CLOCKTYPE_HCLK | RCC_CLOCKTYPE_PCLK1 | RCC_CLOCKTYPE_PCLK2;
 80069d2:	687b      	ldr	r3, [r7, #4]
 80069d4:	220f      	movs	r2, #15
 80069d6:	601a      	str	r2, [r3, #0]

  /* Get the SYSCLK configuration --------------------------------------------*/
  RCC_ClkInitStruct->SYSCLKSource = (uint32_t)(RCC->CFGR & RCC_CFGR_SW);
 80069d8:	4b10      	ldr	r3, [pc, #64]	; (8006a1c <HAL_RCC_GetClockConfig+0x54>)
 80069da:	685b      	ldr	r3, [r3, #4]
 80069dc:	f003 0203 	and.w	r2, r3, #3
 80069e0:	687b      	ldr	r3, [r7, #4]
 80069e2:	605a      	str	r2, [r3, #4]

  /* Get the HCLK configuration ----------------------------------------------*/
  RCC_ClkInitStruct->AHBCLKDivider = (uint32_t)(RCC->CFGR & RCC_CFGR_HPRE);
 80069e4:	4b0d      	ldr	r3, [pc, #52]	; (8006a1c <HAL_RCC_GetClockConfig+0x54>)
 80069e6:	685b      	ldr	r3, [r3, #4]
 80069e8:	f003 02f0 	and.w	r2, r3, #240	; 0xf0
 80069ec:	687b      	ldr	r3, [r7, #4]
 80069ee:	609a      	str	r2, [r3, #8]

  /* Get the APB1 configuration ----------------------------------------------*/
  RCC_ClkInitStruct->APB1CLKDivider = (uint32_t)(RCC->CFGR & RCC_CFGR_PPRE1);
 80069f0:	4b0a      	ldr	r3, [pc, #40]	; (8006a1c <HAL_RCC_GetClockConfig+0x54>)
 80069f2:	685b      	ldr	r3, [r3, #4]
 80069f4:	f403 62e0 	and.w	r2, r3, #1792	; 0x700
 80069f8:	687b      	ldr	r3, [r7, #4]
 80069fa:	60da      	str	r2, [r3, #12]

  /* Get the APB2 configuration ----------------------------------------------*/
  RCC_ClkInitStruct->APB2CLKDivider = (uint32_t)((RCC->CFGR & RCC_CFGR_PPRE2) >> 3);
 80069fc:	4b07      	ldr	r3, [pc, #28]	; (8006a1c <HAL_RCC_GetClockConfig+0x54>)
 80069fe:	685b      	ldr	r3, [r3, #4]
 8006a00:	08db      	lsrs	r3, r3, #3
 8006a02:	f403 62e0 	and.w	r2, r3, #1792	; 0x700
 8006a06:	687b      	ldr	r3, [r7, #4]
 8006a08:	611a      	str	r2, [r3, #16]
#if   defined(FLASH_ACR_LATENCY)
  /* Get the Flash Wait State (Latency) configuration ------------------------*/
  *pFLatency = (uint32_t)(FLASH->ACR & FLASH_ACR_LATENCY);
#else
  /* For VALUE lines devices, only LATENCY_0 can be set*/
  *pFLatency = (uint32_t)FLASH_LATENCY_0;
 8006a0a:	683b      	ldr	r3, [r7, #0]
 8006a0c:	2200      	movs	r2, #0
 8006a0e:	601a      	str	r2, [r3, #0]
#endif
}
 8006a10:	bf00      	nop
 8006a12:	370c      	adds	r7, #12
 8006a14:	46bd      	mov	sp, r7
 8006a16:	bc80      	pop	{r7}
 8006a18:	4770      	bx	lr
 8006a1a:	bf00      	nop
 8006a1c:	40021000 	.word	0x40021000

08006a20 <RCC_Delay>:
  * @brief  This function provides delay (in milliseconds) based on CPU cycles method.
  * @param  mdelay: specifies the delay time length, in milliseconds.
  * @retval None
  */
static void RCC_Delay(uint32_t mdelay)
{
 8006a20:	b480      	push	{r7}
 8006a22:	b085      	sub	sp, #20
 8006a24:	af00      	add	r7, sp, #0
 8006a26:	6078      	str	r0, [r7, #4]
  __IO uint32_t Delay = mdelay * (SystemCoreClock / 8U / 1000U);
 8006a28:	4b0a      	ldr	r3, [pc, #40]	; (8006a54 <RCC_Delay+0x34>)
 8006a2a:	681b      	ldr	r3, [r3, #0]
 8006a2c:	4a0a      	ldr	r2, [pc, #40]	; (8006a58 <RCC_Delay+0x38>)
 8006a2e:	fba2 2303 	umull	r2, r3, r2, r3
 8006a32:	0a5b      	lsrs	r3, r3, #9
 8006a34:	687a      	ldr	r2, [r7, #4]
 8006a36:	fb02 f303 	mul.w	r3, r2, r3
 8006a3a:	60fb      	str	r3, [r7, #12]
  do
  {
    __NOP();
 8006a3c:	bf00      	nop
  }
  while (Delay --);
 8006a3e:	68fb      	ldr	r3, [r7, #12]
 8006a40:	1e5a      	subs	r2, r3, #1
 8006a42:	60fa      	str	r2, [r7, #12]
 8006a44:	2b00      	cmp	r3, #0
 8006a46:	d1f9      	bne.n	8006a3c <RCC_Delay+0x1c>
}
 8006a48:	bf00      	nop
 8006a4a:	bf00      	nop
 8006a4c:	3714      	adds	r7, #20
 8006a4e:	46bd      	mov	sp, r7
 8006a50:	bc80      	pop	{r7}
 8006a52:	4770      	bx	lr
 8006a54:	20000034 	.word	0x20000034
 8006a58:	10624dd3 	.word	0x10624dd3

08006a5c <HAL_RCCEx_PeriphCLKConfig>:
  *         manually disable it.
  *
  * @retval HAL status
  */
HAL_StatusTypeDef HAL_RCCEx_PeriphCLKConfig(RCC_PeriphCLKInitTypeDef  *PeriphClkInit)
{
 8006a5c:	b580      	push	{r7, lr}
 8006a5e:	b086      	sub	sp, #24
 8006a60:	af00      	add	r7, sp, #0
 8006a62:	6078      	str	r0, [r7, #4]
  uint32_t tickstart = 0U, temp_reg = 0U;
 8006a64:	2300      	movs	r3, #0
 8006a66:	613b      	str	r3, [r7, #16]
 8006a68:	2300      	movs	r3, #0
 8006a6a:	60fb      	str	r3, [r7, #12]

  /* Check the parameters */
  assert_param(IS_RCC_PERIPHCLOCK(PeriphClkInit->PeriphClockSelection));

  /*------------------------------- RTC/LCD Configuration ------------------------*/
  if ((((PeriphClkInit->PeriphClockSelection) & RCC_PERIPHCLK_RTC) == RCC_PERIPHCLK_RTC))
 8006a6c:	687b      	ldr	r3, [r7, #4]
 8006a6e:	681b      	ldr	r3, [r3, #0]
 8006a70:	f003 0301 	and.w	r3, r3, #1
 8006a74:	2b00      	cmp	r3, #0
 8006a76:	d07d      	beq.n	8006b74 <HAL_RCCEx_PeriphCLKConfig+0x118>
  {
    FlagStatus pwrclkchanged = RESET;
 8006a78:	2300      	movs	r3, #0
 8006a7a:	75fb      	strb	r3, [r7, #23]
    assert_param(IS_RCC_RTCCLKSOURCE(PeriphClkInit->RTCClockSelection));

    /* As soon as function is called to change RTC clock source, activation of the
       power domain is done. */
    /* Requires to enable write access to Backup Domain of necessary */
    if (__HAL_RCC_PWR_IS_CLK_DISABLED())
 8006a7c:	4b47      	ldr	r3, [pc, #284]	; (8006b9c <HAL_RCCEx_PeriphCLKConfig+0x140>)
 8006a7e:	69db      	ldr	r3, [r3, #28]
 8006a80:	f003 5380 	and.w	r3, r3, #268435456	; 0x10000000
 8006a84:	2b00      	cmp	r3, #0
 8006a86:	d10d      	bne.n	8006aa4 <HAL_RCCEx_PeriphCLKConfig+0x48>
    {
      __HAL_RCC_PWR_CLK_ENABLE();
 8006a88:	4b44      	ldr	r3, [pc, #272]	; (8006b9c <HAL_RCCEx_PeriphCLKConfig+0x140>)
 8006a8a:	69db      	ldr	r3, [r3, #28]
 8006a8c:	4a43      	ldr	r2, [pc, #268]	; (8006b9c <HAL_RCCEx_PeriphCLKConfig+0x140>)
 8006a8e:	f043 5380 	orr.w	r3, r3, #268435456	; 0x10000000
 8006a92:	61d3      	str	r3, [r2, #28]
 8006a94:	4b41      	ldr	r3, [pc, #260]	; (8006b9c <HAL_RCCEx_PeriphCLKConfig+0x140>)
 8006a96:	69db      	ldr	r3, [r3, #28]
 8006a98:	f003 5380 	and.w	r3, r3, #268435456	; 0x10000000
 8006a9c:	60bb      	str	r3, [r7, #8]
 8006a9e:	68bb      	ldr	r3, [r7, #8]
      pwrclkchanged = SET;
 8006aa0:	2301      	movs	r3, #1
 8006aa2:	75fb      	strb	r3, [r7, #23]
    }

    if (HAL_IS_BIT_CLR(PWR->CR, PWR_CR_DBP))
 8006aa4:	4b3e      	ldr	r3, [pc, #248]	; (8006ba0 <HAL_RCCEx_PeriphCLKConfig+0x144>)
 8006aa6:	681b      	ldr	r3, [r3, #0]
 8006aa8:	f403 7380 	and.w	r3, r3, #256	; 0x100
 8006aac:	2b00      	cmp	r3, #0
 8006aae:	d118      	bne.n	8006ae2 <HAL_RCCEx_PeriphCLKConfig+0x86>
    {
      /* Enable write access to Backup domain */
      SET_BIT(PWR->CR, PWR_CR_DBP);
 8006ab0:	4b3b      	ldr	r3, [pc, #236]	; (8006ba0 <HAL_RCCEx_PeriphCLKConfig+0x144>)
 8006ab2:	681b      	ldr	r3, [r3, #0]
 8006ab4:	4a3a      	ldr	r2, [pc, #232]	; (8006ba0 <HAL_RCCEx_PeriphCLKConfig+0x144>)
 8006ab6:	f443 7380 	orr.w	r3, r3, #256	; 0x100
 8006aba:	6013      	str	r3, [r2, #0]

      /* Wait for Backup domain Write protection disable */
      tickstart = HAL_GetTick();
 8006abc:	f7fe fcd4 	bl	8005468 <HAL_GetTick>
 8006ac0:	6138      	str	r0, [r7, #16]

      while (HAL_IS_BIT_CLR(PWR->CR, PWR_CR_DBP))
 8006ac2:	e008      	b.n	8006ad6 <HAL_RCCEx_PeriphCLKConfig+0x7a>
      {
        if ((HAL_GetTick() - tickstart) > RCC_DBP_TIMEOUT_VALUE)
 8006ac4:	f7fe fcd0 	bl	8005468 <HAL_GetTick>
 8006ac8:	4602      	mov	r2, r0
 8006aca:	693b      	ldr	r3, [r7, #16]
 8006acc:	1ad3      	subs	r3, r2, r3
 8006ace:	2b64      	cmp	r3, #100	; 0x64
 8006ad0:	d901      	bls.n	8006ad6 <HAL_RCCEx_PeriphCLKConfig+0x7a>
        {
          return HAL_TIMEOUT;
 8006ad2:	2303      	movs	r3, #3
 8006ad4:	e05e      	b.n	8006b94 <HAL_RCCEx_PeriphCLKConfig+0x138>
      while (HAL_IS_BIT_CLR(PWR->CR, PWR_CR_DBP))
 8006ad6:	4b32      	ldr	r3, [pc, #200]	; (8006ba0 <HAL_RCCEx_PeriphCLKConfig+0x144>)
 8006ad8:	681b      	ldr	r3, [r3, #0]
 8006ada:	f403 7380 	and.w	r3, r3, #256	; 0x100
 8006ade:	2b00      	cmp	r3, #0
 8006ae0:	d0f0      	beq.n	8006ac4 <HAL_RCCEx_PeriphCLKConfig+0x68>
        }
      }
    }

    /* Reset the Backup domain only if the RTC Clock source selection is modified from reset value */
    temp_reg = (RCC->BDCR & RCC_BDCR_RTCSEL);
 8006ae2:	4b2e      	ldr	r3, [pc, #184]	; (8006b9c <HAL_RCCEx_PeriphCLKConfig+0x140>)
 8006ae4:	6a1b      	ldr	r3, [r3, #32]
 8006ae6:	f403 7340 	and.w	r3, r3, #768	; 0x300
 8006aea:	60fb      	str	r3, [r7, #12]
    if ((temp_reg != 0x00000000U) && (temp_reg != (PeriphClkInit->RTCClockSelection & RCC_BDCR_RTCSEL)))
 8006aec:	68fb      	ldr	r3, [r7, #12]
 8006aee:	2b00      	cmp	r3, #0
 8006af0:	d02e      	beq.n	8006b50 <HAL_RCCEx_PeriphCLKConfig+0xf4>
 8006af2:	687b      	ldr	r3, [r7, #4]
 8006af4:	685b      	ldr	r3, [r3, #4]
 8006af6:	f403 7340 	and.w	r3, r3, #768	; 0x300
 8006afa:	68fa      	ldr	r2, [r7, #12]
 8006afc:	429a      	cmp	r2, r3
 8006afe:	d027      	beq.n	8006b50 <HAL_RCCEx_PeriphCLKConfig+0xf4>
    {
      /* Store the content of BDCR register before the reset of Backup Domain */
      temp_reg = (RCC->BDCR & ~(RCC_BDCR_RTCSEL));
 8006b00:	4b26      	ldr	r3, [pc, #152]	; (8006b9c <HAL_RCCEx_PeriphCLKConfig+0x140>)
 8006b02:	6a1b      	ldr	r3, [r3, #32]
 8006b04:	f423 7340 	bic.w	r3, r3, #768	; 0x300
 8006b08:	60fb      	str	r3, [r7, #12]
      /* RTC Clock selection can be changed only if the Backup Domain is reset */
      __HAL_RCC_BACKUPRESET_FORCE();
 8006b0a:	4b26      	ldr	r3, [pc, #152]	; (8006ba4 <HAL_RCCEx_PeriphCLKConfig+0x148>)
 8006b0c:	2201      	movs	r2, #1
 8006b0e:	601a      	str	r2, [r3, #0]
      __HAL_RCC_BACKUPRESET_RELEASE();
 8006b10:	4b24      	ldr	r3, [pc, #144]	; (8006ba4 <HAL_RCCEx_PeriphCLKConfig+0x148>)
 8006b12:	2200      	movs	r2, #0
 8006b14:	601a      	str	r2, [r3, #0]
      /* Restore the Content of BDCR register */
      RCC->BDCR = temp_reg;
 8006b16:	4a21      	ldr	r2, [pc, #132]	; (8006b9c <HAL_RCCEx_PeriphCLKConfig+0x140>)
 8006b18:	68fb      	ldr	r3, [r7, #12]
 8006b1a:	6213      	str	r3, [r2, #32]

      /* Wait for LSERDY if LSE was enabled */
      if (HAL_IS_BIT_SET(temp_reg, RCC_BDCR_LSEON))
 8006b1c:	68fb      	ldr	r3, [r7, #12]
 8006b1e:	f003 0301 	and.w	r3, r3, #1
 8006b22:	2b00      	cmp	r3, #0
 8006b24:	d014      	beq.n	8006b50 <HAL_RCCEx_PeriphCLKConfig+0xf4>
      {
        /* Get Start Tick */
        tickstart = HAL_GetTick();
 8006b26:	f7fe fc9f 	bl	8005468 <HAL_GetTick>
 8006b2a:	6138      	str	r0, [r7, #16]

        /* Wait till LSE is ready */
        while (__HAL_RCC_GET_FLAG(RCC_FLAG_LSERDY) == RESET)
 8006b2c:	e00a      	b.n	8006b44 <HAL_RCCEx_PeriphCLKConfig+0xe8>
        {
          if ((HAL_GetTick() - tickstart) > RCC_LSE_TIMEOUT_VALUE)
 8006b2e:	f7fe fc9b 	bl	8005468 <HAL_GetTick>
 8006b32:	4602      	mov	r2, r0
 8006b34:	693b      	ldr	r3, [r7, #16]
 8006b36:	1ad3      	subs	r3, r2, r3
 8006b38:	f241 3288 	movw	r2, #5000	; 0x1388
 8006b3c:	4293      	cmp	r3, r2
 8006b3e:	d901      	bls.n	8006b44 <HAL_RCCEx_PeriphCLKConfig+0xe8>
          {
            return HAL_TIMEOUT;
 8006b40:	2303      	movs	r3, #3
 8006b42:	e027      	b.n	8006b94 <HAL_RCCEx_PeriphCLKConfig+0x138>
        while (__HAL_RCC_GET_FLAG(RCC_FLAG_LSERDY) == RESET)
 8006b44:	4b15      	ldr	r3, [pc, #84]	; (8006b9c <HAL_RCCEx_PeriphCLKConfig+0x140>)
 8006b46:	6a1b      	ldr	r3, [r3, #32]
 8006b48:	f003 0302 	and.w	r3, r3, #2
 8006b4c:	2b00      	cmp	r3, #0
 8006b4e:	d0ee      	beq.n	8006b2e <HAL_RCCEx_PeriphCLKConfig+0xd2>
          }
        }
      }
    }
    __HAL_RCC_RTC_CONFIG(PeriphClkInit->RTCClockSelection);
 8006b50:	4b12      	ldr	r3, [pc, #72]	; (8006b9c <HAL_RCCEx_PeriphCLKConfig+0x140>)
 8006b52:	6a1b      	ldr	r3, [r3, #32]
 8006b54:	f423 7240 	bic.w	r2, r3, #768	; 0x300
 8006b58:	687b      	ldr	r3, [r7, #4]
 8006b5a:	685b      	ldr	r3, [r3, #4]
 8006b5c:	490f      	ldr	r1, [pc, #60]	; (8006b9c <HAL_RCCEx_PeriphCLKConfig+0x140>)
 8006b5e:	4313      	orrs	r3, r2
 8006b60:	620b      	str	r3, [r1, #32]

    /* Require to disable power clock if necessary */
    if (pwrclkchanged == SET)
 8006b62:	7dfb      	ldrb	r3, [r7, #23]
 8006b64:	2b01      	cmp	r3, #1
 8006b66:	d105      	bne.n	8006b74 <HAL_RCCEx_PeriphCLKConfig+0x118>
    {
      __HAL_RCC_PWR_CLK_DISABLE();
 8006b68:	4b0c      	ldr	r3, [pc, #48]	; (8006b9c <HAL_RCCEx_PeriphCLKConfig+0x140>)
 8006b6a:	69db      	ldr	r3, [r3, #28]
 8006b6c:	4a0b      	ldr	r2, [pc, #44]	; (8006b9c <HAL_RCCEx_PeriphCLKConfig+0x140>)
 8006b6e:	f023 5380 	bic.w	r3, r3, #268435456	; 0x10000000
 8006b72:	61d3      	str	r3, [r2, #28]
    }
  }

  /*------------------------------ ADC clock Configuration ------------------*/
  if (((PeriphClkInit->PeriphClockSelection) & RCC_PERIPHCLK_ADC) == RCC_PERIPHCLK_ADC)
 8006b74:	687b      	ldr	r3, [r7, #4]
 8006b76:	681b      	ldr	r3, [r3, #0]
 8006b78:	f003 0302 	and.w	r3, r3, #2
 8006b7c:	2b00      	cmp	r3, #0
 8006b7e:	d008      	beq.n	8006b92 <HAL_RCCEx_PeriphCLKConfig+0x136>
  {
    /* Check the parameters */
    assert_param(IS_RCC_ADCPLLCLK_DIV(PeriphClkInit->AdcClockSelection));

    /* Configure the ADC clock source */
    __HAL_RCC_ADC_CONFIG(PeriphClkInit->AdcClockSelection);
 8006b80:	4b06      	ldr	r3, [pc, #24]	; (8006b9c <HAL_RCCEx_PeriphCLKConfig+0x140>)
 8006b82:	685b      	ldr	r3, [r3, #4]
 8006b84:	f423 4240 	bic.w	r2, r3, #49152	; 0xc000
 8006b88:	687b      	ldr	r3, [r7, #4]
 8006b8a:	689b      	ldr	r3, [r3, #8]
 8006b8c:	4903      	ldr	r1, [pc, #12]	; (8006b9c <HAL_RCCEx_PeriphCLKConfig+0x140>)
 8006b8e:	4313      	orrs	r3, r2
 8006b90:	604b      	str	r3, [r1, #4]
    /* Configure the USB clock source */
    __HAL_RCC_USB_CONFIG(PeriphClkInit->UsbClockSelection);
  }
#endif /* STM32F102x6 || STM32F102xB || STM32F103x6 || STM32F103xB || STM32F103xE || STM32F103xG || STM32F105xC || STM32F107xC */

  return HAL_OK;
 8006b92:	2300      	movs	r3, #0
}
 8006b94:	4618      	mov	r0, r3
 8006b96:	3718      	adds	r7, #24
 8006b98:	46bd      	mov	sp, r7
 8006b9a:	bd80      	pop	{r7, pc}
 8006b9c:	40021000 	.word	0x40021000
 8006ba0:	40007000 	.word	0x40007000
 8006ba4:	42420440 	.word	0x42420440

08006ba8 <HAL_RCCEx_GetPeriphCLKFreq>:
  *            @arg @ref RCC_PERIPHCLK_USB  USB peripheral clock
  @endif
  * @retval Frequency in Hz (0: means that no available frequency for the peripheral)
  */
uint32_t HAL_RCCEx_GetPeriphCLKFreq(uint32_t PeriphClk)
{
 8006ba8:	b580      	push	{r7, lr}
 8006baa:	b084      	sub	sp, #16
 8006bac:	af00      	add	r7, sp, #0
 8006bae:	6078      	str	r0, [r7, #4]
  const uint8_t aPLLMULFactorTable[16] = {2, 3, 4, 5, 6, 7, 8, 9, 10, 11, 12, 13, 14, 15, 16, 16};
  const uint8_t aPredivFactorTable[2] = {1, 2};

  uint32_t prediv1 = 0U, pllclk = 0U, pllmul = 0U;
#endif /* STM32F102x6 || STM32F102xB || STM32F103x6 || STM32F103xB || STM32F103xE || STM32F103xG */
  uint32_t temp_reg = 0U, frequency = 0U;
 8006bb0:	2300      	movs	r3, #0
 8006bb2:	60bb      	str	r3, [r7, #8]
 8006bb4:	2300      	movs	r3, #0
 8006bb6:	60fb      	str	r3, [r7, #12]

  /* Check the parameters */
  assert_param(IS_RCC_PERIPHCLOCK(PeriphClk));

  switch (PeriphClk)
 8006bb8:	687b      	ldr	r3, [r7, #4]
 8006bba:	2b01      	cmp	r3, #1
 8006bbc:	d003      	beq.n	8006bc6 <HAL_RCCEx_GetPeriphCLKFreq+0x1e>
 8006bbe:	687b      	ldr	r3, [r7, #4]
 8006bc0:	2b02      	cmp	r3, #2
 8006bc2:	d033      	beq.n	8006c2c <HAL_RCCEx_GetPeriphCLKFreq+0x84>
      frequency = HAL_RCC_GetPCLK2Freq() / (((__HAL_RCC_GET_ADC_SOURCE() >> RCC_CFGR_ADCPRE_Pos) + 1) * 2);
      break;
    }
    default:
    {
      break;
 8006bc4:	e041      	b.n	8006c4a <HAL_RCCEx_GetPeriphCLKFreq+0xa2>
      temp_reg = RCC->BDCR;
 8006bc6:	4b23      	ldr	r3, [pc, #140]	; (8006c54 <HAL_RCCEx_GetPeriphCLKFreq+0xac>)
 8006bc8:	6a1b      	ldr	r3, [r3, #32]
 8006bca:	60bb      	str	r3, [r7, #8]
      if (((temp_reg & RCC_BDCR_RTCSEL) == RCC_RTCCLKSOURCE_LSE) && (HAL_IS_BIT_SET(temp_reg, RCC_BDCR_LSERDY)))
 8006bcc:	68bb      	ldr	r3, [r7, #8]
 8006bce:	f403 7340 	and.w	r3, r3, #768	; 0x300
 8006bd2:	f5b3 7f80 	cmp.w	r3, #256	; 0x100
 8006bd6:	d108      	bne.n	8006bea <HAL_RCCEx_GetPeriphCLKFreq+0x42>
 8006bd8:	68bb      	ldr	r3, [r7, #8]
 8006bda:	f003 0302 	and.w	r3, r3, #2
 8006bde:	2b00      	cmp	r3, #0
 8006be0:	d003      	beq.n	8006bea <HAL_RCCEx_GetPeriphCLKFreq+0x42>
        frequency = LSE_VALUE;
 8006be2:	f44f 4300 	mov.w	r3, #32768	; 0x8000
 8006be6:	60fb      	str	r3, [r7, #12]
 8006be8:	e01f      	b.n	8006c2a <HAL_RCCEx_GetPeriphCLKFreq+0x82>
      else if (((temp_reg & RCC_BDCR_RTCSEL) == RCC_RTCCLKSOURCE_LSI) && (HAL_IS_BIT_SET(RCC->CSR, RCC_CSR_LSIRDY)))
 8006bea:	68bb      	ldr	r3, [r7, #8]
 8006bec:	f403 7340 	and.w	r3, r3, #768	; 0x300
 8006bf0:	f5b3 7f00 	cmp.w	r3, #512	; 0x200
 8006bf4:	d109      	bne.n	8006c0a <HAL_RCCEx_GetPeriphCLKFreq+0x62>
 8006bf6:	4b17      	ldr	r3, [pc, #92]	; (8006c54 <HAL_RCCEx_GetPeriphCLKFreq+0xac>)
 8006bf8:	6a5b      	ldr	r3, [r3, #36]	; 0x24
 8006bfa:	f003 0302 	and.w	r3, r3, #2
 8006bfe:	2b00      	cmp	r3, #0
 8006c00:	d003      	beq.n	8006c0a <HAL_RCCEx_GetPeriphCLKFreq+0x62>
        frequency = LSI_VALUE;
 8006c02:	f649 4340 	movw	r3, #40000	; 0x9c40
 8006c06:	60fb      	str	r3, [r7, #12]
 8006c08:	e00f      	b.n	8006c2a <HAL_RCCEx_GetPeriphCLKFreq+0x82>
      else if (((temp_reg & RCC_BDCR_RTCSEL) == RCC_RTCCLKSOURCE_HSE_DIV128) && (HAL_IS_BIT_SET(RCC->CR, RCC_CR_HSERDY)))
 8006c0a:	68bb      	ldr	r3, [r7, #8]
 8006c0c:	f403 7340 	and.w	r3, r3, #768	; 0x300
 8006c10:	f5b3 7f40 	cmp.w	r3, #768	; 0x300
 8006c14:	d118      	bne.n	8006c48 <HAL_RCCEx_GetPeriphCLKFreq+0xa0>
 8006c16:	4b0f      	ldr	r3, [pc, #60]	; (8006c54 <HAL_RCCEx_GetPeriphCLKFreq+0xac>)
 8006c18:	681b      	ldr	r3, [r3, #0]
 8006c1a:	f403 3300 	and.w	r3, r3, #131072	; 0x20000
 8006c1e:	2b00      	cmp	r3, #0
 8006c20:	d012      	beq.n	8006c48 <HAL_RCCEx_GetPeriphCLKFreq+0xa0>
        frequency = HSE_VALUE / 128U;
 8006c22:	f24f 4324 	movw	r3, #62500	; 0xf424
 8006c26:	60fb      	str	r3, [r7, #12]
      break;
 8006c28:	e00e      	b.n	8006c48 <HAL_RCCEx_GetPeriphCLKFreq+0xa0>
 8006c2a:	e00d      	b.n	8006c48 <HAL_RCCEx_GetPeriphCLKFreq+0xa0>
      frequency = HAL_RCC_GetPCLK2Freq() / (((__HAL_RCC_GET_ADC_SOURCE() >> RCC_CFGR_ADCPRE_Pos) + 1) * 2);
 8006c2c:	f7ff feb8 	bl	80069a0 <HAL_RCC_GetPCLK2Freq>
 8006c30:	4602      	mov	r2, r0
 8006c32:	4b08      	ldr	r3, [pc, #32]	; (8006c54 <HAL_RCCEx_GetPeriphCLKFreq+0xac>)
 8006c34:	685b      	ldr	r3, [r3, #4]
 8006c36:	0b9b      	lsrs	r3, r3, #14
 8006c38:	f003 0303 	and.w	r3, r3, #3
 8006c3c:	3301      	adds	r3, #1
 8006c3e:	005b      	lsls	r3, r3, #1
 8006c40:	fbb2 f3f3 	udiv	r3, r2, r3
 8006c44:	60fb      	str	r3, [r7, #12]
      break;
 8006c46:	e000      	b.n	8006c4a <HAL_RCCEx_GetPeriphCLKFreq+0xa2>
      break;
 8006c48:	bf00      	nop
    }
  }
  return (frequency);
 8006c4a:	68fb      	ldr	r3, [r7, #12]
}
 8006c4c:	4618      	mov	r0, r3
 8006c4e:	3710      	adds	r7, #16
 8006c50:	46bd      	mov	sp, r7
 8006c52:	bd80      	pop	{r7, pc}
 8006c54:	40021000 	.word	0x40021000

08006c58 <HAL_SPI_Init>:
  * @param  hspi pointer to a SPI_HandleTypeDef structure that contains
  *               the configuration information for SPI module.
  * @retval HAL status
  */
HAL_StatusTypeDef HAL_SPI_Init(SPI_HandleTypeDef *hspi)
{
 8006c58:	b580      	push	{r7, lr}
 8006c5a:	b082      	sub	sp, #8
 8006c5c:	af00      	add	r7, sp, #0
 8006c5e:	6078      	str	r0, [r7, #4]
  /* Check the SPI handle allocation */
  if (hspi == NULL)
 8006c60:	687b      	ldr	r3, [r7, #4]
 8006c62:	2b00      	cmp	r3, #0
 8006c64:	d101      	bne.n	8006c6a <HAL_SPI_Init+0x12>
  {
    return HAL_ERROR;
 8006c66:	2301      	movs	r3, #1
 8006c68:	e06e      	b.n	8006d48 <HAL_SPI_Init+0xf0>
  assert_param(IS_SPI_BAUDRATE_PRESCALER(hspi->Init.BaudRatePrescaler));
  assert_param(IS_SPI_FIRST_BIT(hspi->Init.FirstBit));
  /* TI mode is not supported on this device.
     TIMode parameter is mandatory equal to SPI_TIMODE_DISABLE */
  assert_param(IS_SPI_TIMODE(hspi->Init.TIMode));
  if (hspi->Init.TIMode == SPI_TIMODE_DISABLE)
 8006c6a:	687b      	ldr	r3, [r7, #4]
 8006c6c:	6a5b      	ldr	r3, [r3, #36]	; 0x24
 8006c6e:	2b00      	cmp	r3, #0
 8006c70:	d108      	bne.n	8006c84 <HAL_SPI_Init+0x2c>
  {
    assert_param(IS_SPI_CPOL(hspi->Init.CLKPolarity));
    assert_param(IS_SPI_CPHA(hspi->Init.CLKPhase));

    if (hspi->Init.Mode == SPI_MODE_MASTER)
 8006c72:	687b      	ldr	r3, [r7, #4]
 8006c74:	685b      	ldr	r3, [r3, #4]
 8006c76:	f5b3 7f82 	cmp.w	r3, #260	; 0x104
 8006c7a:	d009      	beq.n	8006c90 <HAL_SPI_Init+0x38>
      assert_param(IS_SPI_BAUDRATE_PRESCALER(hspi->Init.BaudRatePrescaler));
    }
    else
    {
      /* Baudrate prescaler not use in Motoraola Slave mode. force to default value */
      hspi->Init.BaudRatePrescaler = SPI_BAUDRATEPRESCALER_2;
 8006c7c:	687b      	ldr	r3, [r7, #4]
 8006c7e:	2200      	movs	r2, #0
 8006c80:	61da      	str	r2, [r3, #28]
 8006c82:	e005      	b.n	8006c90 <HAL_SPI_Init+0x38>
  else
  {
    assert_param(IS_SPI_BAUDRATE_PRESCALER(hspi->Init.BaudRatePrescaler));

    /* Force polarity and phase to TI protocaol requirements */
    hspi->Init.CLKPolarity = SPI_POLARITY_LOW;
 8006c84:	687b      	ldr	r3, [r7, #4]
 8006c86:	2200      	movs	r2, #0
 8006c88:	611a      	str	r2, [r3, #16]
    hspi->Init.CLKPhase    = SPI_PHASE_1EDGE;
 8006c8a:	687b      	ldr	r3, [r7, #4]
 8006c8c:	2200      	movs	r2, #0
 8006c8e:	615a      	str	r2, [r3, #20]
  if (hspi->Init.CRCCalculation == SPI_CRCCALCULATION_ENABLE)
  {
    assert_param(IS_SPI_CRC_POLYNOMIAL(hspi->Init.CRCPolynomial));
  }
#else
  hspi->Init.CRCCalculation = SPI_CRCCALCULATION_DISABLE;
 8006c90:	687b      	ldr	r3, [r7, #4]
 8006c92:	2200      	movs	r2, #0
 8006c94:	629a      	str	r2, [r3, #40]	; 0x28
#endif /* USE_SPI_CRC */

  if (hspi->State == HAL_SPI_STATE_RESET)
 8006c96:	687b      	ldr	r3, [r7, #4]
 8006c98:	f893 3051 	ldrb.w	r3, [r3, #81]	; 0x51
 8006c9c:	b2db      	uxtb	r3, r3
 8006c9e:	2b00      	cmp	r3, #0
 8006ca0:	d106      	bne.n	8006cb0 <HAL_SPI_Init+0x58>
  {
    /* Allocate lock resource and initialize it */
    hspi->Lock = HAL_UNLOCKED;
 8006ca2:	687b      	ldr	r3, [r7, #4]
 8006ca4:	2200      	movs	r2, #0
 8006ca6:	f883 2050 	strb.w	r2, [r3, #80]	; 0x50

    /* Init the low level hardware : GPIO, CLOCK, NVIC... */
    hspi->MspInitCallback(hspi);
#else
    /* Init the low level hardware : GPIO, CLOCK, NVIC... */
    HAL_SPI_MspInit(hspi);
 8006caa:	6878      	ldr	r0, [r7, #4]
 8006cac:	f7fe f8a8 	bl	8004e00 <HAL_SPI_MspInit>
#endif /* USE_HAL_SPI_REGISTER_CALLBACKS */
  }

  hspi->State = HAL_SPI_STATE_BUSY;
 8006cb0:	687b      	ldr	r3, [r7, #4]
 8006cb2:	2202      	movs	r2, #2
 8006cb4:	f883 2051 	strb.w	r2, [r3, #81]	; 0x51

  /* Disable the selected SPI peripheral */
  __HAL_SPI_DISABLE(hspi);
 8006cb8:	687b      	ldr	r3, [r7, #4]
 8006cba:	681b      	ldr	r3, [r3, #0]
 8006cbc:	681a      	ldr	r2, [r3, #0]
 8006cbe:	687b      	ldr	r3, [r7, #4]
 8006cc0:	681b      	ldr	r3, [r3, #0]
 8006cc2:	f022 0240 	bic.w	r2, r2, #64	; 0x40
 8006cc6:	601a      	str	r2, [r3, #0]

  /*----------------------- SPIx CR1 & CR2 Configuration ---------------------*/
  /* Configure : SPI Mode, Communication Mode, Data size, Clock polarity and phase, NSS management,
  Communication speed, First bit and CRC calculation state */
  WRITE_REG(hspi->Instance->CR1, ((hspi->Init.Mode & (SPI_CR1_MSTR | SPI_CR1_SSI)) |
 8006cc8:	687b      	ldr	r3, [r7, #4]
 8006cca:	685b      	ldr	r3, [r3, #4]
 8006ccc:	f403 7282 	and.w	r2, r3, #260	; 0x104
 8006cd0:	687b      	ldr	r3, [r7, #4]
 8006cd2:	689b      	ldr	r3, [r3, #8]
 8006cd4:	f403 4304 	and.w	r3, r3, #33792	; 0x8400
 8006cd8:	431a      	orrs	r2, r3
 8006cda:	687b      	ldr	r3, [r7, #4]
 8006cdc:	68db      	ldr	r3, [r3, #12]
 8006cde:	f403 6300 	and.w	r3, r3, #2048	; 0x800
 8006ce2:	431a      	orrs	r2, r3
 8006ce4:	687b      	ldr	r3, [r7, #4]
 8006ce6:	691b      	ldr	r3, [r3, #16]
 8006ce8:	f003 0302 	and.w	r3, r3, #2
 8006cec:	431a      	orrs	r2, r3
 8006cee:	687b      	ldr	r3, [r7, #4]
 8006cf0:	695b      	ldr	r3, [r3, #20]
 8006cf2:	f003 0301 	and.w	r3, r3, #1
 8006cf6:	431a      	orrs	r2, r3
 8006cf8:	687b      	ldr	r3, [r7, #4]
 8006cfa:	699b      	ldr	r3, [r3, #24]
 8006cfc:	f403 7300 	and.w	r3, r3, #512	; 0x200
 8006d00:	431a      	orrs	r2, r3
 8006d02:	687b      	ldr	r3, [r7, #4]
 8006d04:	69db      	ldr	r3, [r3, #28]
 8006d06:	f003 0338 	and.w	r3, r3, #56	; 0x38
 8006d0a:	431a      	orrs	r2, r3
 8006d0c:	687b      	ldr	r3, [r7, #4]
 8006d0e:	6a1b      	ldr	r3, [r3, #32]
 8006d10:	f003 0380 	and.w	r3, r3, #128	; 0x80
 8006d14:	ea42 0103 	orr.w	r1, r2, r3
 8006d18:	687b      	ldr	r3, [r7, #4]
 8006d1a:	6a9b      	ldr	r3, [r3, #40]	; 0x28
 8006d1c:	f403 5200 	and.w	r2, r3, #8192	; 0x2000
 8006d20:	687b      	ldr	r3, [r7, #4]
 8006d22:	681b      	ldr	r3, [r3, #0]
 8006d24:	430a      	orrs	r2, r1
 8006d26:	601a      	str	r2, [r3, #0]
                                  (hspi->Init.BaudRatePrescaler & SPI_CR1_BR_Msk) |
                                  (hspi->Init.FirstBit  & SPI_CR1_LSBFIRST) |
                                  (hspi->Init.CRCCalculation & SPI_CR1_CRCEN)));

  /* Configure : NSS management */
  WRITE_REG(hspi->Instance->CR2, ((hspi->Init.NSS >> 16U) & SPI_CR2_SSOE));
 8006d28:	687b      	ldr	r3, [r7, #4]
 8006d2a:	699b      	ldr	r3, [r3, #24]
 8006d2c:	0c1a      	lsrs	r2, r3, #16
 8006d2e:	687b      	ldr	r3, [r7, #4]
 8006d30:	681b      	ldr	r3, [r3, #0]
 8006d32:	f002 0204 	and.w	r2, r2, #4
 8006d36:	605a      	str	r2, [r3, #4]
#if defined(SPI_I2SCFGR_I2SMOD)
  /* Activate the SPI mode (Make sure that I2SMOD bit in I2SCFGR register is reset) */
  CLEAR_BIT(hspi->Instance->I2SCFGR, SPI_I2SCFGR_I2SMOD);
#endif /* SPI_I2SCFGR_I2SMOD */

  hspi->ErrorCode = HAL_SPI_ERROR_NONE;
 8006d38:	687b      	ldr	r3, [r7, #4]
 8006d3a:	2200      	movs	r2, #0
 8006d3c:	655a      	str	r2, [r3, #84]	; 0x54
  hspi->State     = HAL_SPI_STATE_READY;
 8006d3e:	687b      	ldr	r3, [r7, #4]
 8006d40:	2201      	movs	r2, #1
 8006d42:	f883 2051 	strb.w	r2, [r3, #81]	; 0x51

  return HAL_OK;
 8006d46:	2300      	movs	r3, #0
}
 8006d48:	4618      	mov	r0, r3
 8006d4a:	3708      	adds	r7, #8
 8006d4c:	46bd      	mov	sp, r7
 8006d4e:	bd80      	pop	{r7, pc}

08006d50 <HAL_SPI_Transmit>:
  * @param  Size amount of data to be sent
  * @param  Timeout Timeout duration
  * @retval HAL status
  */
HAL_StatusTypeDef HAL_SPI_Transmit(SPI_HandleTypeDef *hspi, uint8_t *pData, uint16_t Size, uint32_t Timeout)
{
 8006d50:	b580      	push	{r7, lr}
 8006d52:	b088      	sub	sp, #32
 8006d54:	af00      	add	r7, sp, #0
 8006d56:	60f8      	str	r0, [r7, #12]
 8006d58:	60b9      	str	r1, [r7, #8]
 8006d5a:	603b      	str	r3, [r7, #0]
 8006d5c:	4613      	mov	r3, r2
 8006d5e:	80fb      	strh	r3, [r7, #6]
  uint32_t tickstart;
  HAL_StatusTypeDef errorcode = HAL_OK;
 8006d60:	2300      	movs	r3, #0
 8006d62:	77fb      	strb	r3, [r7, #31]

  /* Check Direction parameter */
  assert_param(IS_SPI_DIRECTION_2LINES_OR_1LINE(hspi->Init.Direction));

  /* Process Locked */
  __HAL_LOCK(hspi);
 8006d64:	68fb      	ldr	r3, [r7, #12]
 8006d66:	f893 3050 	ldrb.w	r3, [r3, #80]	; 0x50
 8006d6a:	2b01      	cmp	r3, #1
 8006d6c:	d101      	bne.n	8006d72 <HAL_SPI_Transmit+0x22>
 8006d6e:	2302      	movs	r3, #2
 8006d70:	e126      	b.n	8006fc0 <HAL_SPI_Transmit+0x270>
 8006d72:	68fb      	ldr	r3, [r7, #12]
 8006d74:	2201      	movs	r2, #1
 8006d76:	f883 2050 	strb.w	r2, [r3, #80]	; 0x50

  /* Init tickstart for timeout management*/
  tickstart = HAL_GetTick();
 8006d7a:	f7fe fb75 	bl	8005468 <HAL_GetTick>
 8006d7e:	61b8      	str	r0, [r7, #24]
  initial_TxXferCount = Size;
 8006d80:	88fb      	ldrh	r3, [r7, #6]
 8006d82:	82fb      	strh	r3, [r7, #22]

  if (hspi->State != HAL_SPI_STATE_READY)
 8006d84:	68fb      	ldr	r3, [r7, #12]
 8006d86:	f893 3051 	ldrb.w	r3, [r3, #81]	; 0x51
 8006d8a:	b2db      	uxtb	r3, r3
 8006d8c:	2b01      	cmp	r3, #1
 8006d8e:	d002      	beq.n	8006d96 <HAL_SPI_Transmit+0x46>
  {
    errorcode = HAL_BUSY;
 8006d90:	2302      	movs	r3, #2
 8006d92:	77fb      	strb	r3, [r7, #31]
    goto error;
 8006d94:	e10b      	b.n	8006fae <HAL_SPI_Transmit+0x25e>
  }

  if ((pData == NULL) || (Size == 0U))
 8006d96:	68bb      	ldr	r3, [r7, #8]
 8006d98:	2b00      	cmp	r3, #0
 8006d9a:	d002      	beq.n	8006da2 <HAL_SPI_Transmit+0x52>
 8006d9c:	88fb      	ldrh	r3, [r7, #6]
 8006d9e:	2b00      	cmp	r3, #0
 8006da0:	d102      	bne.n	8006da8 <HAL_SPI_Transmit+0x58>
  {
    errorcode = HAL_ERROR;
 8006da2:	2301      	movs	r3, #1
 8006da4:	77fb      	strb	r3, [r7, #31]
    goto error;
 8006da6:	e102      	b.n	8006fae <HAL_SPI_Transmit+0x25e>
  }

  /* Set the transaction information */
  hspi->State       = HAL_SPI_STATE_BUSY_TX;
 8006da8:	68fb      	ldr	r3, [r7, #12]
 8006daa:	2203      	movs	r2, #3
 8006dac:	f883 2051 	strb.w	r2, [r3, #81]	; 0x51
  hspi->ErrorCode   = HAL_SPI_ERROR_NONE;
 8006db0:	68fb      	ldr	r3, [r7, #12]
 8006db2:	2200      	movs	r2, #0
 8006db4:	655a      	str	r2, [r3, #84]	; 0x54
  hspi->pTxBuffPtr  = (uint8_t *)pData;
 8006db6:	68fb      	ldr	r3, [r7, #12]
 8006db8:	68ba      	ldr	r2, [r7, #8]
 8006dba:	631a      	str	r2, [r3, #48]	; 0x30
  hspi->TxXferSize  = Size;
 8006dbc:	68fb      	ldr	r3, [r7, #12]
 8006dbe:	88fa      	ldrh	r2, [r7, #6]
 8006dc0:	869a      	strh	r2, [r3, #52]	; 0x34
  hspi->TxXferCount = Size;
 8006dc2:	68fb      	ldr	r3, [r7, #12]
 8006dc4:	88fa      	ldrh	r2, [r7, #6]
 8006dc6:	86da      	strh	r2, [r3, #54]	; 0x36

  /*Init field not used in handle to zero */
  hspi->pRxBuffPtr  = (uint8_t *)NULL;
 8006dc8:	68fb      	ldr	r3, [r7, #12]
 8006dca:	2200      	movs	r2, #0
 8006dcc:	639a      	str	r2, [r3, #56]	; 0x38
  hspi->RxXferSize  = 0U;
 8006dce:	68fb      	ldr	r3, [r7, #12]
 8006dd0:	2200      	movs	r2, #0
 8006dd2:	879a      	strh	r2, [r3, #60]	; 0x3c
  hspi->RxXferCount = 0U;
 8006dd4:	68fb      	ldr	r3, [r7, #12]
 8006dd6:	2200      	movs	r2, #0
 8006dd8:	87da      	strh	r2, [r3, #62]	; 0x3e
  hspi->TxISR       = NULL;
 8006dda:	68fb      	ldr	r3, [r7, #12]
 8006ddc:	2200      	movs	r2, #0
 8006dde:	645a      	str	r2, [r3, #68]	; 0x44
  hspi->RxISR       = NULL;
 8006de0:	68fb      	ldr	r3, [r7, #12]
 8006de2:	2200      	movs	r2, #0
 8006de4:	641a      	str	r2, [r3, #64]	; 0x40

  /* Configure communication direction : 1Line */
  if (hspi->Init.Direction == SPI_DIRECTION_1LINE)
 8006de6:	68fb      	ldr	r3, [r7, #12]
 8006de8:	689b      	ldr	r3, [r3, #8]
 8006dea:	f5b3 4f00 	cmp.w	r3, #32768	; 0x8000
 8006dee:	d10f      	bne.n	8006e10 <HAL_SPI_Transmit+0xc0>
  {
    /* Disable SPI Peripheral before set 1Line direction (BIDIOE bit) */
    __HAL_SPI_DISABLE(hspi);
 8006df0:	68fb      	ldr	r3, [r7, #12]
 8006df2:	681b      	ldr	r3, [r3, #0]
 8006df4:	681a      	ldr	r2, [r3, #0]
 8006df6:	68fb      	ldr	r3, [r7, #12]
 8006df8:	681b      	ldr	r3, [r3, #0]
 8006dfa:	f022 0240 	bic.w	r2, r2, #64	; 0x40
 8006dfe:	601a      	str	r2, [r3, #0]
    SPI_1LINE_TX(hspi);
 8006e00:	68fb      	ldr	r3, [r7, #12]
 8006e02:	681b      	ldr	r3, [r3, #0]
 8006e04:	681a      	ldr	r2, [r3, #0]
 8006e06:	68fb      	ldr	r3, [r7, #12]
 8006e08:	681b      	ldr	r3, [r3, #0]
 8006e0a:	f442 4280 	orr.w	r2, r2, #16384	; 0x4000
 8006e0e:	601a      	str	r2, [r3, #0]
    SPI_RESET_CRC(hspi);
  }
#endif /* USE_SPI_CRC */

  /* Check if the SPI is already enabled */
  if ((hspi->Instance->CR1 & SPI_CR1_SPE) != SPI_CR1_SPE)
 8006e10:	68fb      	ldr	r3, [r7, #12]
 8006e12:	681b      	ldr	r3, [r3, #0]
 8006e14:	681b      	ldr	r3, [r3, #0]
 8006e16:	f003 0340 	and.w	r3, r3, #64	; 0x40
 8006e1a:	2b40      	cmp	r3, #64	; 0x40
 8006e1c:	d007      	beq.n	8006e2e <HAL_SPI_Transmit+0xde>
  {
    /* Enable SPI peripheral */
    __HAL_SPI_ENABLE(hspi);
 8006e1e:	68fb      	ldr	r3, [r7, #12]
 8006e20:	681b      	ldr	r3, [r3, #0]
 8006e22:	681a      	ldr	r2, [r3, #0]
 8006e24:	68fb      	ldr	r3, [r7, #12]
 8006e26:	681b      	ldr	r3, [r3, #0]
 8006e28:	f042 0240 	orr.w	r2, r2, #64	; 0x40
 8006e2c:	601a      	str	r2, [r3, #0]
  }

  /* Transmit data in 16 Bit mode */
  if (hspi->Init.DataSize == SPI_DATASIZE_16BIT)
 8006e2e:	68fb      	ldr	r3, [r7, #12]
 8006e30:	68db      	ldr	r3, [r3, #12]
 8006e32:	f5b3 6f00 	cmp.w	r3, #2048	; 0x800
 8006e36:	d14b      	bne.n	8006ed0 <HAL_SPI_Transmit+0x180>
  {
    if ((hspi->Init.Mode == SPI_MODE_SLAVE) || (initial_TxXferCount == 0x01U))
 8006e38:	68fb      	ldr	r3, [r7, #12]
 8006e3a:	685b      	ldr	r3, [r3, #4]
 8006e3c:	2b00      	cmp	r3, #0
 8006e3e:	d002      	beq.n	8006e46 <HAL_SPI_Transmit+0xf6>
 8006e40:	8afb      	ldrh	r3, [r7, #22]
 8006e42:	2b01      	cmp	r3, #1
 8006e44:	d13e      	bne.n	8006ec4 <HAL_SPI_Transmit+0x174>
    {
      hspi->Instance->DR = *((uint16_t *)hspi->pTxBuffPtr);
 8006e46:	68fb      	ldr	r3, [r7, #12]
 8006e48:	6b1b      	ldr	r3, [r3, #48]	; 0x30
 8006e4a:	881a      	ldrh	r2, [r3, #0]
 8006e4c:	68fb      	ldr	r3, [r7, #12]
 8006e4e:	681b      	ldr	r3, [r3, #0]
 8006e50:	60da      	str	r2, [r3, #12]
      hspi->pTxBuffPtr += sizeof(uint16_t);
 8006e52:	68fb      	ldr	r3, [r7, #12]
 8006e54:	6b1b      	ldr	r3, [r3, #48]	; 0x30
 8006e56:	1c9a      	adds	r2, r3, #2
 8006e58:	68fb      	ldr	r3, [r7, #12]
 8006e5a:	631a      	str	r2, [r3, #48]	; 0x30
      hspi->TxXferCount--;
 8006e5c:	68fb      	ldr	r3, [r7, #12]
 8006e5e:	8edb      	ldrh	r3, [r3, #54]	; 0x36
 8006e60:	b29b      	uxth	r3, r3
 8006e62:	3b01      	subs	r3, #1
 8006e64:	b29a      	uxth	r2, r3
 8006e66:	68fb      	ldr	r3, [r7, #12]
 8006e68:	86da      	strh	r2, [r3, #54]	; 0x36
    }
    /* Transmit data in 16 Bit mode */
    while (hspi->TxXferCount > 0U)
 8006e6a:	e02b      	b.n	8006ec4 <HAL_SPI_Transmit+0x174>
    {
      /* Wait until TXE flag is set to send data */
      if (__HAL_SPI_GET_FLAG(hspi, SPI_FLAG_TXE))
 8006e6c:	68fb      	ldr	r3, [r7, #12]
 8006e6e:	681b      	ldr	r3, [r3, #0]
 8006e70:	689b      	ldr	r3, [r3, #8]
 8006e72:	f003 0302 	and.w	r3, r3, #2
 8006e76:	2b02      	cmp	r3, #2
 8006e78:	d112      	bne.n	8006ea0 <HAL_SPI_Transmit+0x150>
      {
        hspi->Instance->DR = *((uint16_t *)hspi->pTxBuffPtr);
 8006e7a:	68fb      	ldr	r3, [r7, #12]
 8006e7c:	6b1b      	ldr	r3, [r3, #48]	; 0x30
 8006e7e:	881a      	ldrh	r2, [r3, #0]
 8006e80:	68fb      	ldr	r3, [r7, #12]
 8006e82:	681b      	ldr	r3, [r3, #0]
 8006e84:	60da      	str	r2, [r3, #12]
        hspi->pTxBuffPtr += sizeof(uint16_t);
 8006e86:	68fb      	ldr	r3, [r7, #12]
 8006e88:	6b1b      	ldr	r3, [r3, #48]	; 0x30
 8006e8a:	1c9a      	adds	r2, r3, #2
 8006e8c:	68fb      	ldr	r3, [r7, #12]
 8006e8e:	631a      	str	r2, [r3, #48]	; 0x30
        hspi->TxXferCount--;
 8006e90:	68fb      	ldr	r3, [r7, #12]
 8006e92:	8edb      	ldrh	r3, [r3, #54]	; 0x36
 8006e94:	b29b      	uxth	r3, r3
 8006e96:	3b01      	subs	r3, #1
 8006e98:	b29a      	uxth	r2, r3
 8006e9a:	68fb      	ldr	r3, [r7, #12]
 8006e9c:	86da      	strh	r2, [r3, #54]	; 0x36
 8006e9e:	e011      	b.n	8006ec4 <HAL_SPI_Transmit+0x174>
      }
      else
      {
        /* Timeout management */
        if ((((HAL_GetTick() - tickstart) >=  Timeout) && (Timeout != HAL_MAX_DELAY)) || (Timeout == 0U))
 8006ea0:	f7fe fae2 	bl	8005468 <HAL_GetTick>
 8006ea4:	4602      	mov	r2, r0
 8006ea6:	69bb      	ldr	r3, [r7, #24]
 8006ea8:	1ad3      	subs	r3, r2, r3
 8006eaa:	683a      	ldr	r2, [r7, #0]
 8006eac:	429a      	cmp	r2, r3
 8006eae:	d803      	bhi.n	8006eb8 <HAL_SPI_Transmit+0x168>
 8006eb0:	683b      	ldr	r3, [r7, #0]
 8006eb2:	f1b3 3fff 	cmp.w	r3, #4294967295
 8006eb6:	d102      	bne.n	8006ebe <HAL_SPI_Transmit+0x16e>
 8006eb8:	683b      	ldr	r3, [r7, #0]
 8006eba:	2b00      	cmp	r3, #0
 8006ebc:	d102      	bne.n	8006ec4 <HAL_SPI_Transmit+0x174>
        {
          errorcode = HAL_TIMEOUT;
 8006ebe:	2303      	movs	r3, #3
 8006ec0:	77fb      	strb	r3, [r7, #31]
          goto error;
 8006ec2:	e074      	b.n	8006fae <HAL_SPI_Transmit+0x25e>
    while (hspi->TxXferCount > 0U)
 8006ec4:	68fb      	ldr	r3, [r7, #12]
 8006ec6:	8edb      	ldrh	r3, [r3, #54]	; 0x36
 8006ec8:	b29b      	uxth	r3, r3
 8006eca:	2b00      	cmp	r3, #0
 8006ecc:	d1ce      	bne.n	8006e6c <HAL_SPI_Transmit+0x11c>
 8006ece:	e04c      	b.n	8006f6a <HAL_SPI_Transmit+0x21a>
    }
  }
  /* Transmit data in 8 Bit mode */
  else
  {
    if ((hspi->Init.Mode == SPI_MODE_SLAVE) || (initial_TxXferCount == 0x01U))
 8006ed0:	68fb      	ldr	r3, [r7, #12]
 8006ed2:	685b      	ldr	r3, [r3, #4]
 8006ed4:	2b00      	cmp	r3, #0
 8006ed6:	d002      	beq.n	8006ede <HAL_SPI_Transmit+0x18e>
 8006ed8:	8afb      	ldrh	r3, [r7, #22]
 8006eda:	2b01      	cmp	r3, #1
 8006edc:	d140      	bne.n	8006f60 <HAL_SPI_Transmit+0x210>
    {
      *((__IO uint8_t *)&hspi->Instance->DR) = (*hspi->pTxBuffPtr);
 8006ede:	68fb      	ldr	r3, [r7, #12]
 8006ee0:	6b1a      	ldr	r2, [r3, #48]	; 0x30
 8006ee2:	68fb      	ldr	r3, [r7, #12]
 8006ee4:	681b      	ldr	r3, [r3, #0]
 8006ee6:	330c      	adds	r3, #12
 8006ee8:	7812      	ldrb	r2, [r2, #0]
 8006eea:	701a      	strb	r2, [r3, #0]
      hspi->pTxBuffPtr += sizeof(uint8_t);
 8006eec:	68fb      	ldr	r3, [r7, #12]
 8006eee:	6b1b      	ldr	r3, [r3, #48]	; 0x30
 8006ef0:	1c5a      	adds	r2, r3, #1
 8006ef2:	68fb      	ldr	r3, [r7, #12]
 8006ef4:	631a      	str	r2, [r3, #48]	; 0x30
      hspi->TxXferCount--;
 8006ef6:	68fb      	ldr	r3, [r7, #12]
 8006ef8:	8edb      	ldrh	r3, [r3, #54]	; 0x36
 8006efa:	b29b      	uxth	r3, r3
 8006efc:	3b01      	subs	r3, #1
 8006efe:	b29a      	uxth	r2, r3
 8006f00:	68fb      	ldr	r3, [r7, #12]
 8006f02:	86da      	strh	r2, [r3, #54]	; 0x36
    }
    while (hspi->TxXferCount > 0U)
 8006f04:	e02c      	b.n	8006f60 <HAL_SPI_Transmit+0x210>
    {
      /* Wait until TXE flag is set to send data */
      if (__HAL_SPI_GET_FLAG(hspi, SPI_FLAG_TXE))
 8006f06:	68fb      	ldr	r3, [r7, #12]
 8006f08:	681b      	ldr	r3, [r3, #0]
 8006f0a:	689b      	ldr	r3, [r3, #8]
 8006f0c:	f003 0302 	and.w	r3, r3, #2
 8006f10:	2b02      	cmp	r3, #2
 8006f12:	d113      	bne.n	8006f3c <HAL_SPI_Transmit+0x1ec>
      {
        *((__IO uint8_t *)&hspi->Instance->DR) = (*hspi->pTxBuffPtr);
 8006f14:	68fb      	ldr	r3, [r7, #12]
 8006f16:	6b1a      	ldr	r2, [r3, #48]	; 0x30
 8006f18:	68fb      	ldr	r3, [r7, #12]
 8006f1a:	681b      	ldr	r3, [r3, #0]
 8006f1c:	330c      	adds	r3, #12
 8006f1e:	7812      	ldrb	r2, [r2, #0]
 8006f20:	701a      	strb	r2, [r3, #0]
        hspi->pTxBuffPtr += sizeof(uint8_t);
 8006f22:	68fb      	ldr	r3, [r7, #12]
 8006f24:	6b1b      	ldr	r3, [r3, #48]	; 0x30
 8006f26:	1c5a      	adds	r2, r3, #1
 8006f28:	68fb      	ldr	r3, [r7, #12]
 8006f2a:	631a      	str	r2, [r3, #48]	; 0x30
        hspi->TxXferCount--;
 8006f2c:	68fb      	ldr	r3, [r7, #12]
 8006f2e:	8edb      	ldrh	r3, [r3, #54]	; 0x36
 8006f30:	b29b      	uxth	r3, r3
 8006f32:	3b01      	subs	r3, #1
 8006f34:	b29a      	uxth	r2, r3
 8006f36:	68fb      	ldr	r3, [r7, #12]
 8006f38:	86da      	strh	r2, [r3, #54]	; 0x36
 8006f3a:	e011      	b.n	8006f60 <HAL_SPI_Transmit+0x210>
      }
      else
      {
        /* Timeout management */
        if ((((HAL_GetTick() - tickstart) >=  Timeout) && (Timeout != HAL_MAX_DELAY)) || (Timeout == 0U))
 8006f3c:	f7fe fa94 	bl	8005468 <HAL_GetTick>
 8006f40:	4602      	mov	r2, r0
 8006f42:	69bb      	ldr	r3, [r7, #24]
 8006f44:	1ad3      	subs	r3, r2, r3
 8006f46:	683a      	ldr	r2, [r7, #0]
 8006f48:	429a      	cmp	r2, r3
 8006f4a:	d803      	bhi.n	8006f54 <HAL_SPI_Transmit+0x204>
 8006f4c:	683b      	ldr	r3, [r7, #0]
 8006f4e:	f1b3 3fff 	cmp.w	r3, #4294967295
 8006f52:	d102      	bne.n	8006f5a <HAL_SPI_Transmit+0x20a>
 8006f54:	683b      	ldr	r3, [r7, #0]
 8006f56:	2b00      	cmp	r3, #0
 8006f58:	d102      	bne.n	8006f60 <HAL_SPI_Transmit+0x210>
        {
          errorcode = HAL_TIMEOUT;
 8006f5a:	2303      	movs	r3, #3
 8006f5c:	77fb      	strb	r3, [r7, #31]
          goto error;
 8006f5e:	e026      	b.n	8006fae <HAL_SPI_Transmit+0x25e>
    while (hspi->TxXferCount > 0U)
 8006f60:	68fb      	ldr	r3, [r7, #12]
 8006f62:	8edb      	ldrh	r3, [r3, #54]	; 0x36
 8006f64:	b29b      	uxth	r3, r3
 8006f66:	2b00      	cmp	r3, #0
 8006f68:	d1cd      	bne.n	8006f06 <HAL_SPI_Transmit+0x1b6>
    SET_BIT(hspi->Instance->CR1, SPI_CR1_CRCNEXT);
  }
#endif /* USE_SPI_CRC */

  /* Check the end of the transaction */
  if (SPI_EndRxTxTransaction(hspi, Timeout, tickstart) != HAL_OK)
 8006f6a:	69ba      	ldr	r2, [r7, #24]
 8006f6c:	6839      	ldr	r1, [r7, #0]
 8006f6e:	68f8      	ldr	r0, [r7, #12]
 8006f70:	f000 fbb8 	bl	80076e4 <SPI_EndRxTxTransaction>
 8006f74:	4603      	mov	r3, r0
 8006f76:	2b00      	cmp	r3, #0
 8006f78:	d002      	beq.n	8006f80 <HAL_SPI_Transmit+0x230>
  {
    hspi->ErrorCode = HAL_SPI_ERROR_FLAG;
 8006f7a:	68fb      	ldr	r3, [r7, #12]
 8006f7c:	2220      	movs	r2, #32
 8006f7e:	655a      	str	r2, [r3, #84]	; 0x54
  }

  /* Clear overrun flag in 2 Lines communication mode because received is not read */
  if (hspi->Init.Direction == SPI_DIRECTION_2LINES)
 8006f80:	68fb      	ldr	r3, [r7, #12]
 8006f82:	689b      	ldr	r3, [r3, #8]
 8006f84:	2b00      	cmp	r3, #0
 8006f86:	d10a      	bne.n	8006f9e <HAL_SPI_Transmit+0x24e>
  {
    __HAL_SPI_CLEAR_OVRFLAG(hspi);
 8006f88:	2300      	movs	r3, #0
 8006f8a:	613b      	str	r3, [r7, #16]
 8006f8c:	68fb      	ldr	r3, [r7, #12]
 8006f8e:	681b      	ldr	r3, [r3, #0]
 8006f90:	68db      	ldr	r3, [r3, #12]
 8006f92:	613b      	str	r3, [r7, #16]
 8006f94:	68fb      	ldr	r3, [r7, #12]
 8006f96:	681b      	ldr	r3, [r3, #0]
 8006f98:	689b      	ldr	r3, [r3, #8]
 8006f9a:	613b      	str	r3, [r7, #16]
 8006f9c:	693b      	ldr	r3, [r7, #16]
  }

  if (hspi->ErrorCode != HAL_SPI_ERROR_NONE)
 8006f9e:	68fb      	ldr	r3, [r7, #12]
 8006fa0:	6d5b      	ldr	r3, [r3, #84]	; 0x54
 8006fa2:	2b00      	cmp	r3, #0
 8006fa4:	d002      	beq.n	8006fac <HAL_SPI_Transmit+0x25c>
  {
    errorcode = HAL_ERROR;
 8006fa6:	2301      	movs	r3, #1
 8006fa8:	77fb      	strb	r3, [r7, #31]
 8006faa:	e000      	b.n	8006fae <HAL_SPI_Transmit+0x25e>
  }

error:
 8006fac:	bf00      	nop
  hspi->State = HAL_SPI_STATE_READY;
 8006fae:	68fb      	ldr	r3, [r7, #12]
 8006fb0:	2201      	movs	r2, #1
 8006fb2:	f883 2051 	strb.w	r2, [r3, #81]	; 0x51
  /* Process Unlocked */
  __HAL_UNLOCK(hspi);
 8006fb6:	68fb      	ldr	r3, [r7, #12]
 8006fb8:	2200      	movs	r2, #0
 8006fba:	f883 2050 	strb.w	r2, [r3, #80]	; 0x50
  return errorcode;
 8006fbe:	7ffb      	ldrb	r3, [r7, #31]
}
 8006fc0:	4618      	mov	r0, r3
 8006fc2:	3720      	adds	r7, #32
 8006fc4:	46bd      	mov	sp, r7
 8006fc6:	bd80      	pop	{r7, pc}

08006fc8 <HAL_SPI_Receive>:
  * @param  Size amount of data to be received
  * @param  Timeout Timeout duration
  * @retval HAL status
  */
HAL_StatusTypeDef HAL_SPI_Receive(SPI_HandleTypeDef *hspi, uint8_t *pData, uint16_t Size, uint32_t Timeout)
{
 8006fc8:	b580      	push	{r7, lr}
 8006fca:	b088      	sub	sp, #32
 8006fcc:	af02      	add	r7, sp, #8
 8006fce:	60f8      	str	r0, [r7, #12]
 8006fd0:	60b9      	str	r1, [r7, #8]
 8006fd2:	603b      	str	r3, [r7, #0]
 8006fd4:	4613      	mov	r3, r2
 8006fd6:	80fb      	strh	r3, [r7, #6]
#if (USE_SPI_CRC != 0U)
  __IO uint32_t tmpreg = 0U;
#endif /* USE_SPI_CRC */
  uint32_t tickstart;
  HAL_StatusTypeDef errorcode = HAL_OK;
 8006fd8:	2300      	movs	r3, #0
 8006fda:	75fb      	strb	r3, [r7, #23]

  if ((hspi->Init.Mode == SPI_MODE_MASTER) && (hspi->Init.Direction == SPI_DIRECTION_2LINES))
 8006fdc:	68fb      	ldr	r3, [r7, #12]
 8006fde:	685b      	ldr	r3, [r3, #4]
 8006fe0:	f5b3 7f82 	cmp.w	r3, #260	; 0x104
 8006fe4:	d112      	bne.n	800700c <HAL_SPI_Receive+0x44>
 8006fe6:	68fb      	ldr	r3, [r7, #12]
 8006fe8:	689b      	ldr	r3, [r3, #8]
 8006fea:	2b00      	cmp	r3, #0
 8006fec:	d10e      	bne.n	800700c <HAL_SPI_Receive+0x44>
  {
    hspi->State = HAL_SPI_STATE_BUSY_RX;
 8006fee:	68fb      	ldr	r3, [r7, #12]
 8006ff0:	2204      	movs	r2, #4
 8006ff2:	f883 2051 	strb.w	r2, [r3, #81]	; 0x51
    /* Call transmit-receive function to send Dummy data on Tx line and generate clock on CLK line */
    return HAL_SPI_TransmitReceive(hspi, pData, pData, Size, Timeout);
 8006ff6:	88fa      	ldrh	r2, [r7, #6]
 8006ff8:	683b      	ldr	r3, [r7, #0]
 8006ffa:	9300      	str	r3, [sp, #0]
 8006ffc:	4613      	mov	r3, r2
 8006ffe:	68ba      	ldr	r2, [r7, #8]
 8007000:	68b9      	ldr	r1, [r7, #8]
 8007002:	68f8      	ldr	r0, [r7, #12]
 8007004:	f000 f8f1 	bl	80071ea <HAL_SPI_TransmitReceive>
 8007008:	4603      	mov	r3, r0
 800700a:	e0ea      	b.n	80071e2 <HAL_SPI_Receive+0x21a>
  }

  /* Process Locked */
  __HAL_LOCK(hspi);
 800700c:	68fb      	ldr	r3, [r7, #12]
 800700e:	f893 3050 	ldrb.w	r3, [r3, #80]	; 0x50
 8007012:	2b01      	cmp	r3, #1
 8007014:	d101      	bne.n	800701a <HAL_SPI_Receive+0x52>
 8007016:	2302      	movs	r3, #2
 8007018:	e0e3      	b.n	80071e2 <HAL_SPI_Receive+0x21a>
 800701a:	68fb      	ldr	r3, [r7, #12]
 800701c:	2201      	movs	r2, #1
 800701e:	f883 2050 	strb.w	r2, [r3, #80]	; 0x50

  /* Init tickstart for timeout management*/
  tickstart = HAL_GetTick();
 8007022:	f7fe fa21 	bl	8005468 <HAL_GetTick>
 8007026:	6138      	str	r0, [r7, #16]

  if (hspi->State != HAL_SPI_STATE_READY)
 8007028:	68fb      	ldr	r3, [r7, #12]
 800702a:	f893 3051 	ldrb.w	r3, [r3, #81]	; 0x51
 800702e:	b2db      	uxtb	r3, r3
 8007030:	2b01      	cmp	r3, #1
 8007032:	d002      	beq.n	800703a <HAL_SPI_Receive+0x72>
  {
    errorcode = HAL_BUSY;
 8007034:	2302      	movs	r3, #2
 8007036:	75fb      	strb	r3, [r7, #23]
    goto error;
 8007038:	e0ca      	b.n	80071d0 <HAL_SPI_Receive+0x208>
  }

  if ((pData == NULL) || (Size == 0U))
 800703a:	68bb      	ldr	r3, [r7, #8]
 800703c:	2b00      	cmp	r3, #0
 800703e:	d002      	beq.n	8007046 <HAL_SPI_Receive+0x7e>
 8007040:	88fb      	ldrh	r3, [r7, #6]
 8007042:	2b00      	cmp	r3, #0
 8007044:	d102      	bne.n	800704c <HAL_SPI_Receive+0x84>
  {
    errorcode = HAL_ERROR;
 8007046:	2301      	movs	r3, #1
 8007048:	75fb      	strb	r3, [r7, #23]
    goto error;
 800704a:	e0c1      	b.n	80071d0 <HAL_SPI_Receive+0x208>
  }

  /* Set the transaction information */
  hspi->State       = HAL_SPI_STATE_BUSY_RX;
 800704c:	68fb      	ldr	r3, [r7, #12]
 800704e:	2204      	movs	r2, #4
 8007050:	f883 2051 	strb.w	r2, [r3, #81]	; 0x51
  hspi->ErrorCode   = HAL_SPI_ERROR_NONE;
 8007054:	68fb      	ldr	r3, [r7, #12]
 8007056:	2200      	movs	r2, #0
 8007058:	655a      	str	r2, [r3, #84]	; 0x54
  hspi->pRxBuffPtr  = (uint8_t *)pData;
 800705a:	68fb      	ldr	r3, [r7, #12]
 800705c:	68ba      	ldr	r2, [r7, #8]
 800705e:	639a      	str	r2, [r3, #56]	; 0x38
  hspi->RxXferSize  = Size;
 8007060:	68fb      	ldr	r3, [r7, #12]
 8007062:	88fa      	ldrh	r2, [r7, #6]
 8007064:	879a      	strh	r2, [r3, #60]	; 0x3c
  hspi->RxXferCount = Size;
 8007066:	68fb      	ldr	r3, [r7, #12]
 8007068:	88fa      	ldrh	r2, [r7, #6]
 800706a:	87da      	strh	r2, [r3, #62]	; 0x3e

  /*Init field not used in handle to zero */
  hspi->pTxBuffPtr  = (uint8_t *)NULL;
 800706c:	68fb      	ldr	r3, [r7, #12]
 800706e:	2200      	movs	r2, #0
 8007070:	631a      	str	r2, [r3, #48]	; 0x30
  hspi->TxXferSize  = 0U;
 8007072:	68fb      	ldr	r3, [r7, #12]
 8007074:	2200      	movs	r2, #0
 8007076:	869a      	strh	r2, [r3, #52]	; 0x34
  hspi->TxXferCount = 0U;
 8007078:	68fb      	ldr	r3, [r7, #12]
 800707a:	2200      	movs	r2, #0
 800707c:	86da      	strh	r2, [r3, #54]	; 0x36
  hspi->RxISR       = NULL;
 800707e:	68fb      	ldr	r3, [r7, #12]
 8007080:	2200      	movs	r2, #0
 8007082:	641a      	str	r2, [r3, #64]	; 0x40
  hspi->TxISR       = NULL;
 8007084:	68fb      	ldr	r3, [r7, #12]
 8007086:	2200      	movs	r2, #0
 8007088:	645a      	str	r2, [r3, #68]	; 0x44
    hspi->RxXferCount--;
  }
#endif /* USE_SPI_CRC */

  /* Configure communication direction: 1Line */
  if (hspi->Init.Direction == SPI_DIRECTION_1LINE)
 800708a:	68fb      	ldr	r3, [r7, #12]
 800708c:	689b      	ldr	r3, [r3, #8]
 800708e:	f5b3 4f00 	cmp.w	r3, #32768	; 0x8000
 8007092:	d10f      	bne.n	80070b4 <HAL_SPI_Receive+0xec>
  {
    /* Disable SPI Peripheral before set 1Line direction (BIDIOE bit) */
    __HAL_SPI_DISABLE(hspi);
 8007094:	68fb      	ldr	r3, [r7, #12]
 8007096:	681b      	ldr	r3, [r3, #0]
 8007098:	681a      	ldr	r2, [r3, #0]
 800709a:	68fb      	ldr	r3, [r7, #12]
 800709c:	681b      	ldr	r3, [r3, #0]
 800709e:	f022 0240 	bic.w	r2, r2, #64	; 0x40
 80070a2:	601a      	str	r2, [r3, #0]
    SPI_1LINE_RX(hspi);
 80070a4:	68fb      	ldr	r3, [r7, #12]
 80070a6:	681b      	ldr	r3, [r3, #0]
 80070a8:	681a      	ldr	r2, [r3, #0]
 80070aa:	68fb      	ldr	r3, [r7, #12]
 80070ac:	681b      	ldr	r3, [r3, #0]
 80070ae:	f422 4280 	bic.w	r2, r2, #16384	; 0x4000
 80070b2:	601a      	str	r2, [r3, #0]
  }

  /* Check if the SPI is already enabled */
  if ((hspi->Instance->CR1 & SPI_CR1_SPE) != SPI_CR1_SPE)
 80070b4:	68fb      	ldr	r3, [r7, #12]
 80070b6:	681b      	ldr	r3, [r3, #0]
 80070b8:	681b      	ldr	r3, [r3, #0]
 80070ba:	f003 0340 	and.w	r3, r3, #64	; 0x40
 80070be:	2b40      	cmp	r3, #64	; 0x40
 80070c0:	d007      	beq.n	80070d2 <HAL_SPI_Receive+0x10a>
  {
    /* Enable SPI peripheral */
    __HAL_SPI_ENABLE(hspi);
 80070c2:	68fb      	ldr	r3, [r7, #12]
 80070c4:	681b      	ldr	r3, [r3, #0]
 80070c6:	681a      	ldr	r2, [r3, #0]
 80070c8:	68fb      	ldr	r3, [r7, #12]
 80070ca:	681b      	ldr	r3, [r3, #0]
 80070cc:	f042 0240 	orr.w	r2, r2, #64	; 0x40
 80070d0:	601a      	str	r2, [r3, #0]
  }

  /* Receive data in 8 Bit mode */
  if (hspi->Init.DataSize == SPI_DATASIZE_8BIT)
 80070d2:	68fb      	ldr	r3, [r7, #12]
 80070d4:	68db      	ldr	r3, [r3, #12]
 80070d6:	2b00      	cmp	r3, #0
 80070d8:	d162      	bne.n	80071a0 <HAL_SPI_Receive+0x1d8>
  {
    /* Transfer loop */
    while (hspi->RxXferCount > 0U)
 80070da:	e02e      	b.n	800713a <HAL_SPI_Receive+0x172>
    {
      /* Check the RXNE flag */
      if (__HAL_SPI_GET_FLAG(hspi, SPI_FLAG_RXNE))
 80070dc:	68fb      	ldr	r3, [r7, #12]
 80070de:	681b      	ldr	r3, [r3, #0]
 80070e0:	689b      	ldr	r3, [r3, #8]
 80070e2:	f003 0301 	and.w	r3, r3, #1
 80070e6:	2b01      	cmp	r3, #1
 80070e8:	d115      	bne.n	8007116 <HAL_SPI_Receive+0x14e>
      {
        /* read the received data */
        (* (uint8_t *)hspi->pRxBuffPtr) = *(__IO uint8_t *)&hspi->Instance->DR;
 80070ea:	68fb      	ldr	r3, [r7, #12]
 80070ec:	681b      	ldr	r3, [r3, #0]
 80070ee:	f103 020c 	add.w	r2, r3, #12
 80070f2:	68fb      	ldr	r3, [r7, #12]
 80070f4:	6b9b      	ldr	r3, [r3, #56]	; 0x38
 80070f6:	7812      	ldrb	r2, [r2, #0]
 80070f8:	b2d2      	uxtb	r2, r2
 80070fa:	701a      	strb	r2, [r3, #0]
        hspi->pRxBuffPtr += sizeof(uint8_t);
 80070fc:	68fb      	ldr	r3, [r7, #12]
 80070fe:	6b9b      	ldr	r3, [r3, #56]	; 0x38
 8007100:	1c5a      	adds	r2, r3, #1
 8007102:	68fb      	ldr	r3, [r7, #12]
 8007104:	639a      	str	r2, [r3, #56]	; 0x38
        hspi->RxXferCount--;
 8007106:	68fb      	ldr	r3, [r7, #12]
 8007108:	8fdb      	ldrh	r3, [r3, #62]	; 0x3e
 800710a:	b29b      	uxth	r3, r3
 800710c:	3b01      	subs	r3, #1
 800710e:	b29a      	uxth	r2, r3
 8007110:	68fb      	ldr	r3, [r7, #12]
 8007112:	87da      	strh	r2, [r3, #62]	; 0x3e
 8007114:	e011      	b.n	800713a <HAL_SPI_Receive+0x172>
      }
      else
      {
        /* Timeout management */
        if ((((HAL_GetTick() - tickstart) >=  Timeout) && (Timeout != HAL_MAX_DELAY)) || (Timeout == 0U))
 8007116:	f7fe f9a7 	bl	8005468 <HAL_GetTick>
 800711a:	4602      	mov	r2, r0
 800711c:	693b      	ldr	r3, [r7, #16]
 800711e:	1ad3      	subs	r3, r2, r3
 8007120:	683a      	ldr	r2, [r7, #0]
 8007122:	429a      	cmp	r2, r3
 8007124:	d803      	bhi.n	800712e <HAL_SPI_Receive+0x166>
 8007126:	683b      	ldr	r3, [r7, #0]
 8007128:	f1b3 3fff 	cmp.w	r3, #4294967295
 800712c:	d102      	bne.n	8007134 <HAL_SPI_Receive+0x16c>
 800712e:	683b      	ldr	r3, [r7, #0]
 8007130:	2b00      	cmp	r3, #0
 8007132:	d102      	bne.n	800713a <HAL_SPI_Receive+0x172>
        {
          errorcode = HAL_TIMEOUT;
 8007134:	2303      	movs	r3, #3
 8007136:	75fb      	strb	r3, [r7, #23]
          goto error;
 8007138:	e04a      	b.n	80071d0 <HAL_SPI_Receive+0x208>
    while (hspi->RxXferCount > 0U)
 800713a:	68fb      	ldr	r3, [r7, #12]
 800713c:	8fdb      	ldrh	r3, [r3, #62]	; 0x3e
 800713e:	b29b      	uxth	r3, r3
 8007140:	2b00      	cmp	r3, #0
 8007142:	d1cb      	bne.n	80070dc <HAL_SPI_Receive+0x114>
 8007144:	e031      	b.n	80071aa <HAL_SPI_Receive+0x1e2>
  {
    /* Transfer loop */
    while (hspi->RxXferCount > 0U)
    {
      /* Check the RXNE flag */
      if (__HAL_SPI_GET_FLAG(hspi, SPI_FLAG_RXNE))
 8007146:	68fb      	ldr	r3, [r7, #12]
 8007148:	681b      	ldr	r3, [r3, #0]
 800714a:	689b      	ldr	r3, [r3, #8]
 800714c:	f003 0301 	and.w	r3, r3, #1
 8007150:	2b01      	cmp	r3, #1
 8007152:	d113      	bne.n	800717c <HAL_SPI_Receive+0x1b4>
      {
        *((uint16_t *)hspi->pRxBuffPtr) = (uint16_t)hspi->Instance->DR;
 8007154:	68fb      	ldr	r3, [r7, #12]
 8007156:	681b      	ldr	r3, [r3, #0]
 8007158:	68da      	ldr	r2, [r3, #12]
 800715a:	68fb      	ldr	r3, [r7, #12]
 800715c:	6b9b      	ldr	r3, [r3, #56]	; 0x38
 800715e:	b292      	uxth	r2, r2
 8007160:	801a      	strh	r2, [r3, #0]
        hspi->pRxBuffPtr += sizeof(uint16_t);
 8007162:	68fb      	ldr	r3, [r7, #12]
 8007164:	6b9b      	ldr	r3, [r3, #56]	; 0x38
 8007166:	1c9a      	adds	r2, r3, #2
 8007168:	68fb      	ldr	r3, [r7, #12]
 800716a:	639a      	str	r2, [r3, #56]	; 0x38
        hspi->RxXferCount--;
 800716c:	68fb      	ldr	r3, [r7, #12]
 800716e:	8fdb      	ldrh	r3, [r3, #62]	; 0x3e
 8007170:	b29b      	uxth	r3, r3
 8007172:	3b01      	subs	r3, #1
 8007174:	b29a      	uxth	r2, r3
 8007176:	68fb      	ldr	r3, [r7, #12]
 8007178:	87da      	strh	r2, [r3, #62]	; 0x3e
 800717a:	e011      	b.n	80071a0 <HAL_SPI_Receive+0x1d8>
      }
      else
      {
        /* Timeout management */
        if ((((HAL_GetTick() - tickstart) >=  Timeout) && (Timeout != HAL_MAX_DELAY)) || (Timeout == 0U))
 800717c:	f7fe f974 	bl	8005468 <HAL_GetTick>
 8007180:	4602      	mov	r2, r0
 8007182:	693b      	ldr	r3, [r7, #16]
 8007184:	1ad3      	subs	r3, r2, r3
 8007186:	683a      	ldr	r2, [r7, #0]
 8007188:	429a      	cmp	r2, r3
 800718a:	d803      	bhi.n	8007194 <HAL_SPI_Receive+0x1cc>
 800718c:	683b      	ldr	r3, [r7, #0]
 800718e:	f1b3 3fff 	cmp.w	r3, #4294967295
 8007192:	d102      	bne.n	800719a <HAL_SPI_Receive+0x1d2>
 8007194:	683b      	ldr	r3, [r7, #0]
 8007196:	2b00      	cmp	r3, #0
 8007198:	d102      	bne.n	80071a0 <HAL_SPI_Receive+0x1d8>
        {
          errorcode = HAL_TIMEOUT;
 800719a:	2303      	movs	r3, #3
 800719c:	75fb      	strb	r3, [r7, #23]
          goto error;
 800719e:	e017      	b.n	80071d0 <HAL_SPI_Receive+0x208>
    while (hspi->RxXferCount > 0U)
 80071a0:	68fb      	ldr	r3, [r7, #12]
 80071a2:	8fdb      	ldrh	r3, [r3, #62]	; 0x3e
 80071a4:	b29b      	uxth	r3, r3
 80071a6:	2b00      	cmp	r3, #0
 80071a8:	d1cd      	bne.n	8007146 <HAL_SPI_Receive+0x17e>
    UNUSED(tmpreg);
  }
#endif /* USE_SPI_CRC */

  /* Check the end of the transaction */
  if (SPI_EndRxTransaction(hspi, Timeout, tickstart) != HAL_OK)
 80071aa:	693a      	ldr	r2, [r7, #16]
 80071ac:	6839      	ldr	r1, [r7, #0]
 80071ae:	68f8      	ldr	r0, [r7, #12]
 80071b0:	f000 fa46 	bl	8007640 <SPI_EndRxTransaction>
 80071b4:	4603      	mov	r3, r0
 80071b6:	2b00      	cmp	r3, #0
 80071b8:	d002      	beq.n	80071c0 <HAL_SPI_Receive+0x1f8>
  {
    hspi->ErrorCode = HAL_SPI_ERROR_FLAG;
 80071ba:	68fb      	ldr	r3, [r7, #12]
 80071bc:	2220      	movs	r2, #32
 80071be:	655a      	str	r2, [r3, #84]	; 0x54
      __HAL_SPI_CLEAR_CRCERRFLAG(hspi);
    }
  }
#endif /* USE_SPI_CRC */

  if (hspi->ErrorCode != HAL_SPI_ERROR_NONE)
 80071c0:	68fb      	ldr	r3, [r7, #12]
 80071c2:	6d5b      	ldr	r3, [r3, #84]	; 0x54
 80071c4:	2b00      	cmp	r3, #0
 80071c6:	d002      	beq.n	80071ce <HAL_SPI_Receive+0x206>
  {
    errorcode = HAL_ERROR;
 80071c8:	2301      	movs	r3, #1
 80071ca:	75fb      	strb	r3, [r7, #23]
 80071cc:	e000      	b.n	80071d0 <HAL_SPI_Receive+0x208>
  }

error :
 80071ce:	bf00      	nop
  hspi->State = HAL_SPI_STATE_READY;
 80071d0:	68fb      	ldr	r3, [r7, #12]
 80071d2:	2201      	movs	r2, #1
 80071d4:	f883 2051 	strb.w	r2, [r3, #81]	; 0x51
  __HAL_UNLOCK(hspi);
 80071d8:	68fb      	ldr	r3, [r7, #12]
 80071da:	2200      	movs	r2, #0
 80071dc:	f883 2050 	strb.w	r2, [r3, #80]	; 0x50
  return errorcode;
 80071e0:	7dfb      	ldrb	r3, [r7, #23]
}
 80071e2:	4618      	mov	r0, r3
 80071e4:	3718      	adds	r7, #24
 80071e6:	46bd      	mov	sp, r7
 80071e8:	bd80      	pop	{r7, pc}

080071ea <HAL_SPI_TransmitReceive>:
  * @param  Timeout Timeout duration
  * @retval HAL status
  */
HAL_StatusTypeDef HAL_SPI_TransmitReceive(SPI_HandleTypeDef *hspi, uint8_t *pTxData, uint8_t *pRxData, uint16_t Size,
                                          uint32_t Timeout)
{
 80071ea:	b580      	push	{r7, lr}
 80071ec:	b08c      	sub	sp, #48	; 0x30
 80071ee:	af00      	add	r7, sp, #0
 80071f0:	60f8      	str	r0, [r7, #12]
 80071f2:	60b9      	str	r1, [r7, #8]
 80071f4:	607a      	str	r2, [r7, #4]
 80071f6:	807b      	strh	r3, [r7, #2]
#if (USE_SPI_CRC != 0U)
  __IO uint32_t tmpreg = 0U;
#endif /* USE_SPI_CRC */

  /* Variable used to alternate Rx and Tx during transfer */
  uint32_t             txallowed = 1U;
 80071f8:	2301      	movs	r3, #1
 80071fa:	62fb      	str	r3, [r7, #44]	; 0x2c
  HAL_StatusTypeDef    errorcode = HAL_OK;
 80071fc:	2300      	movs	r3, #0
 80071fe:	f887 302b 	strb.w	r3, [r7, #43]	; 0x2b

  /* Check Direction parameter */
  assert_param(IS_SPI_DIRECTION_2LINES(hspi->Init.Direction));

  /* Process Locked */
  __HAL_LOCK(hspi);
 8007202:	68fb      	ldr	r3, [r7, #12]
 8007204:	f893 3050 	ldrb.w	r3, [r3, #80]	; 0x50
 8007208:	2b01      	cmp	r3, #1
 800720a:	d101      	bne.n	8007210 <HAL_SPI_TransmitReceive+0x26>
 800720c:	2302      	movs	r3, #2
 800720e:	e18a      	b.n	8007526 <HAL_SPI_TransmitReceive+0x33c>
 8007210:	68fb      	ldr	r3, [r7, #12]
 8007212:	2201      	movs	r2, #1
 8007214:	f883 2050 	strb.w	r2, [r3, #80]	; 0x50

  /* Init tickstart for timeout management*/
  tickstart = HAL_GetTick();
 8007218:	f7fe f926 	bl	8005468 <HAL_GetTick>
 800721c:	6278      	str	r0, [r7, #36]	; 0x24

  /* Init temporary variables */
  tmp_state           = hspi->State;
 800721e:	68fb      	ldr	r3, [r7, #12]
 8007220:	f893 3051 	ldrb.w	r3, [r3, #81]	; 0x51
 8007224:	f887 3023 	strb.w	r3, [r7, #35]	; 0x23
  tmp_mode            = hspi->Init.Mode;
 8007228:	68fb      	ldr	r3, [r7, #12]
 800722a:	685b      	ldr	r3, [r3, #4]
 800722c:	61fb      	str	r3, [r7, #28]
  initial_TxXferCount = Size;
 800722e:	887b      	ldrh	r3, [r7, #2]
 8007230:	837b      	strh	r3, [r7, #26]

  if (!((tmp_state == HAL_SPI_STATE_READY) || \
 8007232:	f897 3023 	ldrb.w	r3, [r7, #35]	; 0x23
 8007236:	2b01      	cmp	r3, #1
 8007238:	d00f      	beq.n	800725a <HAL_SPI_TransmitReceive+0x70>
 800723a:	69fb      	ldr	r3, [r7, #28]
 800723c:	f5b3 7f82 	cmp.w	r3, #260	; 0x104
 8007240:	d107      	bne.n	8007252 <HAL_SPI_TransmitReceive+0x68>
        ((tmp_mode == SPI_MODE_MASTER) && (hspi->Init.Direction == SPI_DIRECTION_2LINES) && (tmp_state == HAL_SPI_STATE_BUSY_RX))))
 8007242:	68fb      	ldr	r3, [r7, #12]
 8007244:	689b      	ldr	r3, [r3, #8]
 8007246:	2b00      	cmp	r3, #0
 8007248:	d103      	bne.n	8007252 <HAL_SPI_TransmitReceive+0x68>
 800724a:	f897 3023 	ldrb.w	r3, [r7, #35]	; 0x23
 800724e:	2b04      	cmp	r3, #4
 8007250:	d003      	beq.n	800725a <HAL_SPI_TransmitReceive+0x70>
  {
    errorcode = HAL_BUSY;
 8007252:	2302      	movs	r3, #2
 8007254:	f887 302b 	strb.w	r3, [r7, #43]	; 0x2b
    goto error;
 8007258:	e15b      	b.n	8007512 <HAL_SPI_TransmitReceive+0x328>
  }

  if ((pTxData == NULL) || (pRxData == NULL) || (Size == 0U))
 800725a:	68bb      	ldr	r3, [r7, #8]
 800725c:	2b00      	cmp	r3, #0
 800725e:	d005      	beq.n	800726c <HAL_SPI_TransmitReceive+0x82>
 8007260:	687b      	ldr	r3, [r7, #4]
 8007262:	2b00      	cmp	r3, #0
 8007264:	d002      	beq.n	800726c <HAL_SPI_TransmitReceive+0x82>
 8007266:	887b      	ldrh	r3, [r7, #2]
 8007268:	2b00      	cmp	r3, #0
 800726a:	d103      	bne.n	8007274 <HAL_SPI_TransmitReceive+0x8a>
  {
    errorcode = HAL_ERROR;
 800726c:	2301      	movs	r3, #1
 800726e:	f887 302b 	strb.w	r3, [r7, #43]	; 0x2b
    goto error;
 8007272:	e14e      	b.n	8007512 <HAL_SPI_TransmitReceive+0x328>
  }

  /* Don't overwrite in case of HAL_SPI_STATE_BUSY_RX */
  if (hspi->State != HAL_SPI_STATE_BUSY_RX)
 8007274:	68fb      	ldr	r3, [r7, #12]
 8007276:	f893 3051 	ldrb.w	r3, [r3, #81]	; 0x51
 800727a:	b2db      	uxtb	r3, r3
 800727c:	2b04      	cmp	r3, #4
 800727e:	d003      	beq.n	8007288 <HAL_SPI_TransmitReceive+0x9e>
  {
    hspi->State = HAL_SPI_STATE_BUSY_TX_RX;
 8007280:	68fb      	ldr	r3, [r7, #12]
 8007282:	2205      	movs	r2, #5
 8007284:	f883 2051 	strb.w	r2, [r3, #81]	; 0x51
  }

  /* Set the transaction information */
  hspi->ErrorCode   = HAL_SPI_ERROR_NONE;
 8007288:	68fb      	ldr	r3, [r7, #12]
 800728a:	2200      	movs	r2, #0
 800728c:	655a      	str	r2, [r3, #84]	; 0x54
  hspi->pRxBuffPtr  = (uint8_t *)pRxData;
 800728e:	68fb      	ldr	r3, [r7, #12]
 8007290:	687a      	ldr	r2, [r7, #4]
 8007292:	639a      	str	r2, [r3, #56]	; 0x38
  hspi->RxXferCount = Size;
 8007294:	68fb      	ldr	r3, [r7, #12]
 8007296:	887a      	ldrh	r2, [r7, #2]
 8007298:	87da      	strh	r2, [r3, #62]	; 0x3e
  hspi->RxXferSize  = Size;
 800729a:	68fb      	ldr	r3, [r7, #12]
 800729c:	887a      	ldrh	r2, [r7, #2]
 800729e:	879a      	strh	r2, [r3, #60]	; 0x3c
  hspi->pTxBuffPtr  = (uint8_t *)pTxData;
 80072a0:	68fb      	ldr	r3, [r7, #12]
 80072a2:	68ba      	ldr	r2, [r7, #8]
 80072a4:	631a      	str	r2, [r3, #48]	; 0x30
  hspi->TxXferCount = Size;
 80072a6:	68fb      	ldr	r3, [r7, #12]
 80072a8:	887a      	ldrh	r2, [r7, #2]
 80072aa:	86da      	strh	r2, [r3, #54]	; 0x36
  hspi->TxXferSize  = Size;
 80072ac:	68fb      	ldr	r3, [r7, #12]
 80072ae:	887a      	ldrh	r2, [r7, #2]
 80072b0:	869a      	strh	r2, [r3, #52]	; 0x34

  /*Init field not used in handle to zero */
  hspi->RxISR       = NULL;
 80072b2:	68fb      	ldr	r3, [r7, #12]
 80072b4:	2200      	movs	r2, #0
 80072b6:	641a      	str	r2, [r3, #64]	; 0x40
  hspi->TxISR       = NULL;
 80072b8:	68fb      	ldr	r3, [r7, #12]
 80072ba:	2200      	movs	r2, #0
 80072bc:	645a      	str	r2, [r3, #68]	; 0x44
    SPI_RESET_CRC(hspi);
  }
#endif /* USE_SPI_CRC */

  /* Check if the SPI is already enabled */
  if ((hspi->Instance->CR1 & SPI_CR1_SPE) != SPI_CR1_SPE)
 80072be:	68fb      	ldr	r3, [r7, #12]
 80072c0:	681b      	ldr	r3, [r3, #0]
 80072c2:	681b      	ldr	r3, [r3, #0]
 80072c4:	f003 0340 	and.w	r3, r3, #64	; 0x40
 80072c8:	2b40      	cmp	r3, #64	; 0x40
 80072ca:	d007      	beq.n	80072dc <HAL_SPI_TransmitReceive+0xf2>
  {
    /* Enable SPI peripheral */
    __HAL_SPI_ENABLE(hspi);
 80072cc:	68fb      	ldr	r3, [r7, #12]
 80072ce:	681b      	ldr	r3, [r3, #0]
 80072d0:	681a      	ldr	r2, [r3, #0]
 80072d2:	68fb      	ldr	r3, [r7, #12]
 80072d4:	681b      	ldr	r3, [r3, #0]
 80072d6:	f042 0240 	orr.w	r2, r2, #64	; 0x40
 80072da:	601a      	str	r2, [r3, #0]
  }

  /* Transmit and Receive data in 16 Bit mode */
  if (hspi->Init.DataSize == SPI_DATASIZE_16BIT)
 80072dc:	68fb      	ldr	r3, [r7, #12]
 80072de:	68db      	ldr	r3, [r3, #12]
 80072e0:	f5b3 6f00 	cmp.w	r3, #2048	; 0x800
 80072e4:	d178      	bne.n	80073d8 <HAL_SPI_TransmitReceive+0x1ee>
  {
    if ((hspi->Init.Mode == SPI_MODE_SLAVE) || (initial_TxXferCount == 0x01U))
 80072e6:	68fb      	ldr	r3, [r7, #12]
 80072e8:	685b      	ldr	r3, [r3, #4]
 80072ea:	2b00      	cmp	r3, #0
 80072ec:	d002      	beq.n	80072f4 <HAL_SPI_TransmitReceive+0x10a>
 80072ee:	8b7b      	ldrh	r3, [r7, #26]
 80072f0:	2b01      	cmp	r3, #1
 80072f2:	d166      	bne.n	80073c2 <HAL_SPI_TransmitReceive+0x1d8>
    {
      hspi->Instance->DR = *((uint16_t *)hspi->pTxBuffPtr);
 80072f4:	68fb      	ldr	r3, [r7, #12]
 80072f6:	6b1b      	ldr	r3, [r3, #48]	; 0x30
 80072f8:	881a      	ldrh	r2, [r3, #0]
 80072fa:	68fb      	ldr	r3, [r7, #12]
 80072fc:	681b      	ldr	r3, [r3, #0]
 80072fe:	60da      	str	r2, [r3, #12]
      hspi->pTxBuffPtr += sizeof(uint16_t);
 8007300:	68fb      	ldr	r3, [r7, #12]
 8007302:	6b1b      	ldr	r3, [r3, #48]	; 0x30
 8007304:	1c9a      	adds	r2, r3, #2
 8007306:	68fb      	ldr	r3, [r7, #12]
 8007308:	631a      	str	r2, [r3, #48]	; 0x30
      hspi->TxXferCount--;
 800730a:	68fb      	ldr	r3, [r7, #12]
 800730c:	8edb      	ldrh	r3, [r3, #54]	; 0x36
 800730e:	b29b      	uxth	r3, r3
 8007310:	3b01      	subs	r3, #1
 8007312:	b29a      	uxth	r2, r3
 8007314:	68fb      	ldr	r3, [r7, #12]
 8007316:	86da      	strh	r2, [r3, #54]	; 0x36
    }
    while ((hspi->TxXferCount > 0U) || (hspi->RxXferCount > 0U))
 8007318:	e053      	b.n	80073c2 <HAL_SPI_TransmitReceive+0x1d8>
    {
      /* Check TXE flag */
      if ((__HAL_SPI_GET_FLAG(hspi, SPI_FLAG_TXE)) && (hspi->TxXferCount > 0U) && (txallowed == 1U))
 800731a:	68fb      	ldr	r3, [r7, #12]
 800731c:	681b      	ldr	r3, [r3, #0]
 800731e:	689b      	ldr	r3, [r3, #8]
 8007320:	f003 0302 	and.w	r3, r3, #2
 8007324:	2b02      	cmp	r3, #2
 8007326:	d11b      	bne.n	8007360 <HAL_SPI_TransmitReceive+0x176>
 8007328:	68fb      	ldr	r3, [r7, #12]
 800732a:	8edb      	ldrh	r3, [r3, #54]	; 0x36
 800732c:	b29b      	uxth	r3, r3
 800732e:	2b00      	cmp	r3, #0
 8007330:	d016      	beq.n	8007360 <HAL_SPI_TransmitReceive+0x176>
 8007332:	6afb      	ldr	r3, [r7, #44]	; 0x2c
 8007334:	2b01      	cmp	r3, #1
 8007336:	d113      	bne.n	8007360 <HAL_SPI_TransmitReceive+0x176>
      {
        hspi->Instance->DR = *((uint16_t *)hspi->pTxBuffPtr);
 8007338:	68fb      	ldr	r3, [r7, #12]
 800733a:	6b1b      	ldr	r3, [r3, #48]	; 0x30
 800733c:	881a      	ldrh	r2, [r3, #0]
 800733e:	68fb      	ldr	r3, [r7, #12]
 8007340:	681b      	ldr	r3, [r3, #0]
 8007342:	60da      	str	r2, [r3, #12]
        hspi->pTxBuffPtr += sizeof(uint16_t);
 8007344:	68fb      	ldr	r3, [r7, #12]
 8007346:	6b1b      	ldr	r3, [r3, #48]	; 0x30
 8007348:	1c9a      	adds	r2, r3, #2
 800734a:	68fb      	ldr	r3, [r7, #12]
 800734c:	631a      	str	r2, [r3, #48]	; 0x30
        hspi->TxXferCount--;
 800734e:	68fb      	ldr	r3, [r7, #12]
 8007350:	8edb      	ldrh	r3, [r3, #54]	; 0x36
 8007352:	b29b      	uxth	r3, r3
 8007354:	3b01      	subs	r3, #1
 8007356:	b29a      	uxth	r2, r3
 8007358:	68fb      	ldr	r3, [r7, #12]
 800735a:	86da      	strh	r2, [r3, #54]	; 0x36
        /* Next Data is a reception (Rx). Tx not allowed */
        txallowed = 0U;
 800735c:	2300      	movs	r3, #0
 800735e:	62fb      	str	r3, [r7, #44]	; 0x2c
        }
#endif /* USE_SPI_CRC */
      }

      /* Check RXNE flag */
      if ((__HAL_SPI_GET_FLAG(hspi, SPI_FLAG_RXNE)) && (hspi->RxXferCount > 0U))
 8007360:	68fb      	ldr	r3, [r7, #12]
 8007362:	681b      	ldr	r3, [r3, #0]
 8007364:	689b      	ldr	r3, [r3, #8]
 8007366:	f003 0301 	and.w	r3, r3, #1
 800736a:	2b01      	cmp	r3, #1
 800736c:	d119      	bne.n	80073a2 <HAL_SPI_TransmitReceive+0x1b8>
 800736e:	68fb      	ldr	r3, [r7, #12]
 8007370:	8fdb      	ldrh	r3, [r3, #62]	; 0x3e
 8007372:	b29b      	uxth	r3, r3
 8007374:	2b00      	cmp	r3, #0
 8007376:	d014      	beq.n	80073a2 <HAL_SPI_TransmitReceive+0x1b8>
      {
        *((uint16_t *)hspi->pRxBuffPtr) = (uint16_t)hspi->Instance->DR;
 8007378:	68fb      	ldr	r3, [r7, #12]
 800737a:	681b      	ldr	r3, [r3, #0]
 800737c:	68da      	ldr	r2, [r3, #12]
 800737e:	68fb      	ldr	r3, [r7, #12]
 8007380:	6b9b      	ldr	r3, [r3, #56]	; 0x38
 8007382:	b292      	uxth	r2, r2
 8007384:	801a      	strh	r2, [r3, #0]
        hspi->pRxBuffPtr += sizeof(uint16_t);
 8007386:	68fb      	ldr	r3, [r7, #12]
 8007388:	6b9b      	ldr	r3, [r3, #56]	; 0x38
 800738a:	1c9a      	adds	r2, r3, #2
 800738c:	68fb      	ldr	r3, [r7, #12]
 800738e:	639a      	str	r2, [r3, #56]	; 0x38
        hspi->RxXferCount--;
 8007390:	68fb      	ldr	r3, [r7, #12]
 8007392:	8fdb      	ldrh	r3, [r3, #62]	; 0x3e
 8007394:	b29b      	uxth	r3, r3
 8007396:	3b01      	subs	r3, #1
 8007398:	b29a      	uxth	r2, r3
 800739a:	68fb      	ldr	r3, [r7, #12]
 800739c:	87da      	strh	r2, [r3, #62]	; 0x3e
        /* Next Data is a Transmission (Tx). Tx is allowed */
        txallowed = 1U;
 800739e:	2301      	movs	r3, #1
 80073a0:	62fb      	str	r3, [r7, #44]	; 0x2c
      }
      if (((HAL_GetTick() - tickstart) >=  Timeout) && (Timeout != HAL_MAX_DELAY))
 80073a2:	f7fe f861 	bl	8005468 <HAL_GetTick>
 80073a6:	4602      	mov	r2, r0
 80073a8:	6a7b      	ldr	r3, [r7, #36]	; 0x24
 80073aa:	1ad3      	subs	r3, r2, r3
 80073ac:	6bba      	ldr	r2, [r7, #56]	; 0x38
 80073ae:	429a      	cmp	r2, r3
 80073b0:	d807      	bhi.n	80073c2 <HAL_SPI_TransmitReceive+0x1d8>
 80073b2:	6bbb      	ldr	r3, [r7, #56]	; 0x38
 80073b4:	f1b3 3fff 	cmp.w	r3, #4294967295
 80073b8:	d003      	beq.n	80073c2 <HAL_SPI_TransmitReceive+0x1d8>
      {
        errorcode = HAL_TIMEOUT;
 80073ba:	2303      	movs	r3, #3
 80073bc:	f887 302b 	strb.w	r3, [r7, #43]	; 0x2b
        goto error;
 80073c0:	e0a7      	b.n	8007512 <HAL_SPI_TransmitReceive+0x328>
    while ((hspi->TxXferCount > 0U) || (hspi->RxXferCount > 0U))
 80073c2:	68fb      	ldr	r3, [r7, #12]
 80073c4:	8edb      	ldrh	r3, [r3, #54]	; 0x36
 80073c6:	b29b      	uxth	r3, r3
 80073c8:	2b00      	cmp	r3, #0
 80073ca:	d1a6      	bne.n	800731a <HAL_SPI_TransmitReceive+0x130>
 80073cc:	68fb      	ldr	r3, [r7, #12]
 80073ce:	8fdb      	ldrh	r3, [r3, #62]	; 0x3e
 80073d0:	b29b      	uxth	r3, r3
 80073d2:	2b00      	cmp	r3, #0
 80073d4:	d1a1      	bne.n	800731a <HAL_SPI_TransmitReceive+0x130>
 80073d6:	e07c      	b.n	80074d2 <HAL_SPI_TransmitReceive+0x2e8>
    }
  }
  /* Transmit and Receive data in 8 Bit mode */
  else
  {
    if ((hspi->Init.Mode == SPI_MODE_SLAVE) || (initial_TxXferCount == 0x01U))
 80073d8:	68fb      	ldr	r3, [r7, #12]
 80073da:	685b      	ldr	r3, [r3, #4]
 80073dc:	2b00      	cmp	r3, #0
 80073de:	d002      	beq.n	80073e6 <HAL_SPI_TransmitReceive+0x1fc>
 80073e0:	8b7b      	ldrh	r3, [r7, #26]
 80073e2:	2b01      	cmp	r3, #1
 80073e4:	d16b      	bne.n	80074be <HAL_SPI_TransmitReceive+0x2d4>
    {
      *((__IO uint8_t *)&hspi->Instance->DR) = (*hspi->pTxBuffPtr);
 80073e6:	68fb      	ldr	r3, [r7, #12]
 80073e8:	6b1a      	ldr	r2, [r3, #48]	; 0x30
 80073ea:	68fb      	ldr	r3, [r7, #12]
 80073ec:	681b      	ldr	r3, [r3, #0]
 80073ee:	330c      	adds	r3, #12
 80073f0:	7812      	ldrb	r2, [r2, #0]
 80073f2:	701a      	strb	r2, [r3, #0]
      hspi->pTxBuffPtr += sizeof(uint8_t);
 80073f4:	68fb      	ldr	r3, [r7, #12]
 80073f6:	6b1b      	ldr	r3, [r3, #48]	; 0x30
 80073f8:	1c5a      	adds	r2, r3, #1
 80073fa:	68fb      	ldr	r3, [r7, #12]
 80073fc:	631a      	str	r2, [r3, #48]	; 0x30
      hspi->TxXferCount--;
 80073fe:	68fb      	ldr	r3, [r7, #12]
 8007400:	8edb      	ldrh	r3, [r3, #54]	; 0x36
 8007402:	b29b      	uxth	r3, r3
 8007404:	3b01      	subs	r3, #1
 8007406:	b29a      	uxth	r2, r3
 8007408:	68fb      	ldr	r3, [r7, #12]
 800740a:	86da      	strh	r2, [r3, #54]	; 0x36
    }
    while ((hspi->TxXferCount > 0U) || (hspi->RxXferCount > 0U))
 800740c:	e057      	b.n	80074be <HAL_SPI_TransmitReceive+0x2d4>
    {
      /* Check TXE flag */
      if ((__HAL_SPI_GET_FLAG(hspi, SPI_FLAG_TXE)) && (hspi->TxXferCount > 0U) && (txallowed == 1U))
 800740e:	68fb      	ldr	r3, [r7, #12]
 8007410:	681b      	ldr	r3, [r3, #0]
 8007412:	689b      	ldr	r3, [r3, #8]
 8007414:	f003 0302 	and.w	r3, r3, #2
 8007418:	2b02      	cmp	r3, #2
 800741a:	d11c      	bne.n	8007456 <HAL_SPI_TransmitReceive+0x26c>
 800741c:	68fb      	ldr	r3, [r7, #12]
 800741e:	8edb      	ldrh	r3, [r3, #54]	; 0x36
 8007420:	b29b      	uxth	r3, r3
 8007422:	2b00      	cmp	r3, #0
 8007424:	d017      	beq.n	8007456 <HAL_SPI_TransmitReceive+0x26c>
 8007426:	6afb      	ldr	r3, [r7, #44]	; 0x2c
 8007428:	2b01      	cmp	r3, #1
 800742a:	d114      	bne.n	8007456 <HAL_SPI_TransmitReceive+0x26c>
      {
        *(__IO uint8_t *)&hspi->Instance->DR = (*hspi->pTxBuffPtr);
 800742c:	68fb      	ldr	r3, [r7, #12]
 800742e:	6b1a      	ldr	r2, [r3, #48]	; 0x30
 8007430:	68fb      	ldr	r3, [r7, #12]
 8007432:	681b      	ldr	r3, [r3, #0]
 8007434:	330c      	adds	r3, #12
 8007436:	7812      	ldrb	r2, [r2, #0]
 8007438:	701a      	strb	r2, [r3, #0]
        hspi->pTxBuffPtr++;
 800743a:	68fb      	ldr	r3, [r7, #12]
 800743c:	6b1b      	ldr	r3, [r3, #48]	; 0x30
 800743e:	1c5a      	adds	r2, r3, #1
 8007440:	68fb      	ldr	r3, [r7, #12]
 8007442:	631a      	str	r2, [r3, #48]	; 0x30
        hspi->TxXferCount--;
 8007444:	68fb      	ldr	r3, [r7, #12]
 8007446:	8edb      	ldrh	r3, [r3, #54]	; 0x36
 8007448:	b29b      	uxth	r3, r3
 800744a:	3b01      	subs	r3, #1
 800744c:	b29a      	uxth	r2, r3
 800744e:	68fb      	ldr	r3, [r7, #12]
 8007450:	86da      	strh	r2, [r3, #54]	; 0x36
        /* Next Data is a reception (Rx). Tx not allowed */
        txallowed = 0U;
 8007452:	2300      	movs	r3, #0
 8007454:	62fb      	str	r3, [r7, #44]	; 0x2c
        }
#endif /* USE_SPI_CRC */
      }

      /* Wait until RXNE flag is reset */
      if ((__HAL_SPI_GET_FLAG(hspi, SPI_FLAG_RXNE)) && (hspi->RxXferCount > 0U))
 8007456:	68fb      	ldr	r3, [r7, #12]
 8007458:	681b      	ldr	r3, [r3, #0]
 800745a:	689b      	ldr	r3, [r3, #8]
 800745c:	f003 0301 	and.w	r3, r3, #1
 8007460:	2b01      	cmp	r3, #1
 8007462:	d119      	bne.n	8007498 <HAL_SPI_TransmitReceive+0x2ae>
 8007464:	68fb      	ldr	r3, [r7, #12]
 8007466:	8fdb      	ldrh	r3, [r3, #62]	; 0x3e
 8007468:	b29b      	uxth	r3, r3
 800746a:	2b00      	cmp	r3, #0
 800746c:	d014      	beq.n	8007498 <HAL_SPI_TransmitReceive+0x2ae>
      {
        (*(uint8_t *)hspi->pRxBuffPtr) = hspi->Instance->DR;
 800746e:	68fb      	ldr	r3, [r7, #12]
 8007470:	681b      	ldr	r3, [r3, #0]
 8007472:	68da      	ldr	r2, [r3, #12]
 8007474:	68fb      	ldr	r3, [r7, #12]
 8007476:	6b9b      	ldr	r3, [r3, #56]	; 0x38
 8007478:	b2d2      	uxtb	r2, r2
 800747a:	701a      	strb	r2, [r3, #0]
        hspi->pRxBuffPtr++;
 800747c:	68fb      	ldr	r3, [r7, #12]
 800747e:	6b9b      	ldr	r3, [r3, #56]	; 0x38
 8007480:	1c5a      	adds	r2, r3, #1
 8007482:	68fb      	ldr	r3, [r7, #12]
 8007484:	639a      	str	r2, [r3, #56]	; 0x38
        hspi->RxXferCount--;
 8007486:	68fb      	ldr	r3, [r7, #12]
 8007488:	8fdb      	ldrh	r3, [r3, #62]	; 0x3e
 800748a:	b29b      	uxth	r3, r3
 800748c:	3b01      	subs	r3, #1
 800748e:	b29a      	uxth	r2, r3
 8007490:	68fb      	ldr	r3, [r7, #12]
 8007492:	87da      	strh	r2, [r3, #62]	; 0x3e
        /* Next Data is a Transmission (Tx). Tx is allowed */
        txallowed = 1U;
 8007494:	2301      	movs	r3, #1
 8007496:	62fb      	str	r3, [r7, #44]	; 0x2c
      }
      if ((((HAL_GetTick() - tickstart) >=  Timeout) && ((Timeout != HAL_MAX_DELAY))) || (Timeout == 0U))
 8007498:	f7fd ffe6 	bl	8005468 <HAL_GetTick>
 800749c:	4602      	mov	r2, r0
 800749e:	6a7b      	ldr	r3, [r7, #36]	; 0x24
 80074a0:	1ad3      	subs	r3, r2, r3
 80074a2:	6bba      	ldr	r2, [r7, #56]	; 0x38
 80074a4:	429a      	cmp	r2, r3
 80074a6:	d803      	bhi.n	80074b0 <HAL_SPI_TransmitReceive+0x2c6>
 80074a8:	6bbb      	ldr	r3, [r7, #56]	; 0x38
 80074aa:	f1b3 3fff 	cmp.w	r3, #4294967295
 80074ae:	d102      	bne.n	80074b6 <HAL_SPI_TransmitReceive+0x2cc>
 80074b0:	6bbb      	ldr	r3, [r7, #56]	; 0x38
 80074b2:	2b00      	cmp	r3, #0
 80074b4:	d103      	bne.n	80074be <HAL_SPI_TransmitReceive+0x2d4>
      {
        errorcode = HAL_TIMEOUT;
 80074b6:	2303      	movs	r3, #3
 80074b8:	f887 302b 	strb.w	r3, [r7, #43]	; 0x2b
        goto error;
 80074bc:	e029      	b.n	8007512 <HAL_SPI_TransmitReceive+0x328>
    while ((hspi->TxXferCount > 0U) || (hspi->RxXferCount > 0U))
 80074be:	68fb      	ldr	r3, [r7, #12]
 80074c0:	8edb      	ldrh	r3, [r3, #54]	; 0x36
 80074c2:	b29b      	uxth	r3, r3
 80074c4:	2b00      	cmp	r3, #0
 80074c6:	d1a2      	bne.n	800740e <HAL_SPI_TransmitReceive+0x224>
 80074c8:	68fb      	ldr	r3, [r7, #12]
 80074ca:	8fdb      	ldrh	r3, [r3, #62]	; 0x3e
 80074cc:	b29b      	uxth	r3, r3
 80074ce:	2b00      	cmp	r3, #0
 80074d0:	d19d      	bne.n	800740e <HAL_SPI_TransmitReceive+0x224>
    }
  }
#endif /* USE_SPI_CRC */

  /* Check the end of the transaction */
  if (SPI_EndRxTxTransaction(hspi, Timeout, tickstart) != HAL_OK)
 80074d2:	6a7a      	ldr	r2, [r7, #36]	; 0x24
 80074d4:	6bb9      	ldr	r1, [r7, #56]	; 0x38
 80074d6:	68f8      	ldr	r0, [r7, #12]
 80074d8:	f000 f904 	bl	80076e4 <SPI_EndRxTxTransaction>
 80074dc:	4603      	mov	r3, r0
 80074de:	2b00      	cmp	r3, #0
 80074e0:	d006      	beq.n	80074f0 <HAL_SPI_TransmitReceive+0x306>
  {
    errorcode = HAL_ERROR;
 80074e2:	2301      	movs	r3, #1
 80074e4:	f887 302b 	strb.w	r3, [r7, #43]	; 0x2b
    hspi->ErrorCode = HAL_SPI_ERROR_FLAG;
 80074e8:	68fb      	ldr	r3, [r7, #12]
 80074ea:	2220      	movs	r2, #32
 80074ec:	655a      	str	r2, [r3, #84]	; 0x54
    goto error;
 80074ee:	e010      	b.n	8007512 <HAL_SPI_TransmitReceive+0x328>
  }

  /* Clear overrun flag in 2 Lines communication mode because received is not read */
  if (hspi->Init.Direction == SPI_DIRECTION_2LINES)
 80074f0:	68fb      	ldr	r3, [r7, #12]
 80074f2:	689b      	ldr	r3, [r3, #8]
 80074f4:	2b00      	cmp	r3, #0
 80074f6:	d10b      	bne.n	8007510 <HAL_SPI_TransmitReceive+0x326>
  {
    __HAL_SPI_CLEAR_OVRFLAG(hspi);
 80074f8:	2300      	movs	r3, #0
 80074fa:	617b      	str	r3, [r7, #20]
 80074fc:	68fb      	ldr	r3, [r7, #12]
 80074fe:	681b      	ldr	r3, [r3, #0]
 8007500:	68db      	ldr	r3, [r3, #12]
 8007502:	617b      	str	r3, [r7, #20]
 8007504:	68fb      	ldr	r3, [r7, #12]
 8007506:	681b      	ldr	r3, [r3, #0]
 8007508:	689b      	ldr	r3, [r3, #8]
 800750a:	617b      	str	r3, [r7, #20]
 800750c:	697b      	ldr	r3, [r7, #20]
 800750e:	e000      	b.n	8007512 <HAL_SPI_TransmitReceive+0x328>
  }

error :
 8007510:	bf00      	nop
  hspi->State = HAL_SPI_STATE_READY;
 8007512:	68fb      	ldr	r3, [r7, #12]
 8007514:	2201      	movs	r2, #1
 8007516:	f883 2051 	strb.w	r2, [r3, #81]	; 0x51
  __HAL_UNLOCK(hspi);
 800751a:	68fb      	ldr	r3, [r7, #12]
 800751c:	2200      	movs	r2, #0
 800751e:	f883 2050 	strb.w	r2, [r3, #80]	; 0x50
  return errorcode;
 8007522:	f897 302b 	ldrb.w	r3, [r7, #43]	; 0x2b
}
 8007526:	4618      	mov	r0, r3
 8007528:	3730      	adds	r7, #48	; 0x30
 800752a:	46bd      	mov	sp, r7
 800752c:	bd80      	pop	{r7, pc}
	...

08007530 <SPI_WaitFlagStateUntilTimeout>:
  * @param  Tickstart tick start value
  * @retval HAL status
  */
static HAL_StatusTypeDef SPI_WaitFlagStateUntilTimeout(SPI_HandleTypeDef *hspi, uint32_t Flag, FlagStatus State,
                                                       uint32_t Timeout, uint32_t Tickstart)
{
 8007530:	b580      	push	{r7, lr}
 8007532:	b088      	sub	sp, #32
 8007534:	af00      	add	r7, sp, #0
 8007536:	60f8      	str	r0, [r7, #12]
 8007538:	60b9      	str	r1, [r7, #8]
 800753a:	603b      	str	r3, [r7, #0]
 800753c:	4613      	mov	r3, r2
 800753e:	71fb      	strb	r3, [r7, #7]
  __IO uint32_t count;
  uint32_t tmp_timeout;
  uint32_t tmp_tickstart;

  /* Adjust Timeout value  in case of end of transfer */
  tmp_timeout   = Timeout - (HAL_GetTick() - Tickstart);
 8007540:	f7fd ff92 	bl	8005468 <HAL_GetTick>
 8007544:	4602      	mov	r2, r0
 8007546:	6abb      	ldr	r3, [r7, #40]	; 0x28
 8007548:	1a9b      	subs	r3, r3, r2
 800754a:	683a      	ldr	r2, [r7, #0]
 800754c:	4413      	add	r3, r2
 800754e:	61fb      	str	r3, [r7, #28]
  tmp_tickstart = HAL_GetTick();
 8007550:	f7fd ff8a 	bl	8005468 <HAL_GetTick>
 8007554:	61b8      	str	r0, [r7, #24]

  /* Calculate Timeout based on a software loop to avoid blocking issue if Systick is disabled */
  count = tmp_timeout * ((SystemCoreClock * 32U) >> 20U);
 8007556:	4b39      	ldr	r3, [pc, #228]	; (800763c <SPI_WaitFlagStateUntilTimeout+0x10c>)
 8007558:	681b      	ldr	r3, [r3, #0]
 800755a:	015b      	lsls	r3, r3, #5
 800755c:	0d1b      	lsrs	r3, r3, #20
 800755e:	69fa      	ldr	r2, [r7, #28]
 8007560:	fb02 f303 	mul.w	r3, r2, r3
 8007564:	617b      	str	r3, [r7, #20]

  while ((__HAL_SPI_GET_FLAG(hspi, Flag) ? SET : RESET) != State)
 8007566:	e054      	b.n	8007612 <SPI_WaitFlagStateUntilTimeout+0xe2>
  {
    if (Timeout != HAL_MAX_DELAY)
 8007568:	683b      	ldr	r3, [r7, #0]
 800756a:	f1b3 3fff 	cmp.w	r3, #4294967295
 800756e:	d050      	beq.n	8007612 <SPI_WaitFlagStateUntilTimeout+0xe2>
    {
      if (((HAL_GetTick() - tmp_tickstart) >= tmp_timeout) || (tmp_timeout == 0U))
 8007570:	f7fd ff7a 	bl	8005468 <HAL_GetTick>
 8007574:	4602      	mov	r2, r0
 8007576:	69bb      	ldr	r3, [r7, #24]
 8007578:	1ad3      	subs	r3, r2, r3
 800757a:	69fa      	ldr	r2, [r7, #28]
 800757c:	429a      	cmp	r2, r3
 800757e:	d902      	bls.n	8007586 <SPI_WaitFlagStateUntilTimeout+0x56>
 8007580:	69fb      	ldr	r3, [r7, #28]
 8007582:	2b00      	cmp	r3, #0
 8007584:	d13d      	bne.n	8007602 <SPI_WaitFlagStateUntilTimeout+0xd2>
        /* Disable the SPI and reset the CRC: the CRC value should be cleared
           on both master and slave sides in order to resynchronize the master
           and slave for their respective CRC calculation */

        /* Disable TXE, RXNE and ERR interrupts for the interrupt process */
        __HAL_SPI_DISABLE_IT(hspi, (SPI_IT_TXE | SPI_IT_RXNE | SPI_IT_ERR));
 8007586:	68fb      	ldr	r3, [r7, #12]
 8007588:	681b      	ldr	r3, [r3, #0]
 800758a:	685a      	ldr	r2, [r3, #4]
 800758c:	68fb      	ldr	r3, [r7, #12]
 800758e:	681b      	ldr	r3, [r3, #0]
 8007590:	f022 02e0 	bic.w	r2, r2, #224	; 0xe0
 8007594:	605a      	str	r2, [r3, #4]

        if ((hspi->Init.Mode == SPI_MODE_MASTER) && ((hspi->Init.Direction == SPI_DIRECTION_1LINE)
 8007596:	68fb      	ldr	r3, [r7, #12]
 8007598:	685b      	ldr	r3, [r3, #4]
 800759a:	f5b3 7f82 	cmp.w	r3, #260	; 0x104
 800759e:	d111      	bne.n	80075c4 <SPI_WaitFlagStateUntilTimeout+0x94>
 80075a0:	68fb      	ldr	r3, [r7, #12]
 80075a2:	689b      	ldr	r3, [r3, #8]
 80075a4:	f5b3 4f00 	cmp.w	r3, #32768	; 0x8000
 80075a8:	d004      	beq.n	80075b4 <SPI_WaitFlagStateUntilTimeout+0x84>
                                                     || (hspi->Init.Direction == SPI_DIRECTION_2LINES_RXONLY)))
 80075aa:	68fb      	ldr	r3, [r7, #12]
 80075ac:	689b      	ldr	r3, [r3, #8]
 80075ae:	f5b3 6f80 	cmp.w	r3, #1024	; 0x400
 80075b2:	d107      	bne.n	80075c4 <SPI_WaitFlagStateUntilTimeout+0x94>
        {
          /* Disable SPI peripheral */
          __HAL_SPI_DISABLE(hspi);
 80075b4:	68fb      	ldr	r3, [r7, #12]
 80075b6:	681b      	ldr	r3, [r3, #0]
 80075b8:	681a      	ldr	r2, [r3, #0]
 80075ba:	68fb      	ldr	r3, [r7, #12]
 80075bc:	681b      	ldr	r3, [r3, #0]
 80075be:	f022 0240 	bic.w	r2, r2, #64	; 0x40
 80075c2:	601a      	str	r2, [r3, #0]
        }

        /* Reset CRC Calculation */
        if (hspi->Init.CRCCalculation == SPI_CRCCALCULATION_ENABLE)
 80075c4:	68fb      	ldr	r3, [r7, #12]
 80075c6:	6a9b      	ldr	r3, [r3, #40]	; 0x28
 80075c8:	f5b3 5f00 	cmp.w	r3, #8192	; 0x2000
 80075cc:	d10f      	bne.n	80075ee <SPI_WaitFlagStateUntilTimeout+0xbe>
        {
          SPI_RESET_CRC(hspi);
 80075ce:	68fb      	ldr	r3, [r7, #12]
 80075d0:	681b      	ldr	r3, [r3, #0]
 80075d2:	681a      	ldr	r2, [r3, #0]
 80075d4:	68fb      	ldr	r3, [r7, #12]
 80075d6:	681b      	ldr	r3, [r3, #0]
 80075d8:	f422 5200 	bic.w	r2, r2, #8192	; 0x2000
 80075dc:	601a      	str	r2, [r3, #0]
 80075de:	68fb      	ldr	r3, [r7, #12]
 80075e0:	681b      	ldr	r3, [r3, #0]
 80075e2:	681a      	ldr	r2, [r3, #0]
 80075e4:	68fb      	ldr	r3, [r7, #12]
 80075e6:	681b      	ldr	r3, [r3, #0]
 80075e8:	f442 5200 	orr.w	r2, r2, #8192	; 0x2000
 80075ec:	601a      	str	r2, [r3, #0]
        }

        hspi->State = HAL_SPI_STATE_READY;
 80075ee:	68fb      	ldr	r3, [r7, #12]
 80075f0:	2201      	movs	r2, #1
 80075f2:	f883 2051 	strb.w	r2, [r3, #81]	; 0x51

        /* Process Unlocked */
        __HAL_UNLOCK(hspi);
 80075f6:	68fb      	ldr	r3, [r7, #12]
 80075f8:	2200      	movs	r2, #0
 80075fa:	f883 2050 	strb.w	r2, [r3, #80]	; 0x50

        return HAL_TIMEOUT;
 80075fe:	2303      	movs	r3, #3
 8007600:	e017      	b.n	8007632 <SPI_WaitFlagStateUntilTimeout+0x102>
      }
      /* If Systick is disabled or not incremented, deactivate timeout to go in disable loop procedure */
      if(count == 0U)
 8007602:	697b      	ldr	r3, [r7, #20]
 8007604:	2b00      	cmp	r3, #0
 8007606:	d101      	bne.n	800760c <SPI_WaitFlagStateUntilTimeout+0xdc>
      {
        tmp_timeout = 0U;
 8007608:	2300      	movs	r3, #0
 800760a:	61fb      	str	r3, [r7, #28]
      }
      count--;
 800760c:	697b      	ldr	r3, [r7, #20]
 800760e:	3b01      	subs	r3, #1
 8007610:	617b      	str	r3, [r7, #20]
  while ((__HAL_SPI_GET_FLAG(hspi, Flag) ? SET : RESET) != State)
 8007612:	68fb      	ldr	r3, [r7, #12]
 8007614:	681b      	ldr	r3, [r3, #0]
 8007616:	689a      	ldr	r2, [r3, #8]
 8007618:	68bb      	ldr	r3, [r7, #8]
 800761a:	4013      	ands	r3, r2
 800761c:	68ba      	ldr	r2, [r7, #8]
 800761e:	429a      	cmp	r2, r3
 8007620:	bf0c      	ite	eq
 8007622:	2301      	moveq	r3, #1
 8007624:	2300      	movne	r3, #0
 8007626:	b2db      	uxtb	r3, r3
 8007628:	461a      	mov	r2, r3
 800762a:	79fb      	ldrb	r3, [r7, #7]
 800762c:	429a      	cmp	r2, r3
 800762e:	d19b      	bne.n	8007568 <SPI_WaitFlagStateUntilTimeout+0x38>
    }
  }

  return HAL_OK;
 8007630:	2300      	movs	r3, #0
}
 8007632:	4618      	mov	r0, r3
 8007634:	3720      	adds	r7, #32
 8007636:	46bd      	mov	sp, r7
 8007638:	bd80      	pop	{r7, pc}
 800763a:	bf00      	nop
 800763c:	20000034 	.word	0x20000034

08007640 <SPI_EndRxTransaction>:
  * @param  Timeout Timeout duration
  * @param  Tickstart tick start value
  * @retval HAL status
  */
static HAL_StatusTypeDef SPI_EndRxTransaction(SPI_HandleTypeDef *hspi,  uint32_t Timeout, uint32_t Tickstart)
{
 8007640:	b580      	push	{r7, lr}
 8007642:	b086      	sub	sp, #24
 8007644:	af02      	add	r7, sp, #8
 8007646:	60f8      	str	r0, [r7, #12]
 8007648:	60b9      	str	r1, [r7, #8]
 800764a:	607a      	str	r2, [r7, #4]
  if ((hspi->Init.Mode == SPI_MODE_MASTER) && ((hspi->Init.Direction == SPI_DIRECTION_1LINE)
 800764c:	68fb      	ldr	r3, [r7, #12]
 800764e:	685b      	ldr	r3, [r3, #4]
 8007650:	f5b3 7f82 	cmp.w	r3, #260	; 0x104
 8007654:	d111      	bne.n	800767a <SPI_EndRxTransaction+0x3a>
 8007656:	68fb      	ldr	r3, [r7, #12]
 8007658:	689b      	ldr	r3, [r3, #8]
 800765a:	f5b3 4f00 	cmp.w	r3, #32768	; 0x8000
 800765e:	d004      	beq.n	800766a <SPI_EndRxTransaction+0x2a>
                                               || (hspi->Init.Direction == SPI_DIRECTION_2LINES_RXONLY)))
 8007660:	68fb      	ldr	r3, [r7, #12]
 8007662:	689b      	ldr	r3, [r3, #8]
 8007664:	f5b3 6f80 	cmp.w	r3, #1024	; 0x400
 8007668:	d107      	bne.n	800767a <SPI_EndRxTransaction+0x3a>
  {
    /* Disable SPI peripheral */
    __HAL_SPI_DISABLE(hspi);
 800766a:	68fb      	ldr	r3, [r7, #12]
 800766c:	681b      	ldr	r3, [r3, #0]
 800766e:	681a      	ldr	r2, [r3, #0]
 8007670:	68fb      	ldr	r3, [r7, #12]
 8007672:	681b      	ldr	r3, [r3, #0]
 8007674:	f022 0240 	bic.w	r2, r2, #64	; 0x40
 8007678:	601a      	str	r2, [r3, #0]
  }

  if ((hspi->Init.Mode == SPI_MODE_MASTER) && (hspi->Init.Direction == SPI_DIRECTION_2LINES_RXONLY))
 800767a:	68fb      	ldr	r3, [r7, #12]
 800767c:	685b      	ldr	r3, [r3, #4]
 800767e:	f5b3 7f82 	cmp.w	r3, #260	; 0x104
 8007682:	d117      	bne.n	80076b4 <SPI_EndRxTransaction+0x74>
 8007684:	68fb      	ldr	r3, [r7, #12]
 8007686:	689b      	ldr	r3, [r3, #8]
 8007688:	f5b3 6f80 	cmp.w	r3, #1024	; 0x400
 800768c:	d112      	bne.n	80076b4 <SPI_EndRxTransaction+0x74>
  {
    /* Wait the RXNE reset */
    if (SPI_WaitFlagStateUntilTimeout(hspi, SPI_FLAG_RXNE, RESET, Timeout, Tickstart) != HAL_OK)
 800768e:	687b      	ldr	r3, [r7, #4]
 8007690:	9300      	str	r3, [sp, #0]
 8007692:	68bb      	ldr	r3, [r7, #8]
 8007694:	2200      	movs	r2, #0
 8007696:	2101      	movs	r1, #1
 8007698:	68f8      	ldr	r0, [r7, #12]
 800769a:	f7ff ff49 	bl	8007530 <SPI_WaitFlagStateUntilTimeout>
 800769e:	4603      	mov	r3, r0
 80076a0:	2b00      	cmp	r3, #0
 80076a2:	d01a      	beq.n	80076da <SPI_EndRxTransaction+0x9a>
    {
      SET_BIT(hspi->ErrorCode, HAL_SPI_ERROR_FLAG);
 80076a4:	68fb      	ldr	r3, [r7, #12]
 80076a6:	6d5b      	ldr	r3, [r3, #84]	; 0x54
 80076a8:	f043 0220 	orr.w	r2, r3, #32
 80076ac:	68fb      	ldr	r3, [r7, #12]
 80076ae:	655a      	str	r2, [r3, #84]	; 0x54
      return HAL_TIMEOUT;
 80076b0:	2303      	movs	r3, #3
 80076b2:	e013      	b.n	80076dc <SPI_EndRxTransaction+0x9c>
    }
  }
  else
  {
    /* Control the BSY flag */
    if (SPI_WaitFlagStateUntilTimeout(hspi, SPI_FLAG_BSY, RESET, Timeout, Tickstart) != HAL_OK)
 80076b4:	687b      	ldr	r3, [r7, #4]
 80076b6:	9300      	str	r3, [sp, #0]
 80076b8:	68bb      	ldr	r3, [r7, #8]
 80076ba:	2200      	movs	r2, #0
 80076bc:	2180      	movs	r1, #128	; 0x80
 80076be:	68f8      	ldr	r0, [r7, #12]
 80076c0:	f7ff ff36 	bl	8007530 <SPI_WaitFlagStateUntilTimeout>
 80076c4:	4603      	mov	r3, r0
 80076c6:	2b00      	cmp	r3, #0
 80076c8:	d007      	beq.n	80076da <SPI_EndRxTransaction+0x9a>
    {
      SET_BIT(hspi->ErrorCode, HAL_SPI_ERROR_FLAG);
 80076ca:	68fb      	ldr	r3, [r7, #12]
 80076cc:	6d5b      	ldr	r3, [r3, #84]	; 0x54
 80076ce:	f043 0220 	orr.w	r2, r3, #32
 80076d2:	68fb      	ldr	r3, [r7, #12]
 80076d4:	655a      	str	r2, [r3, #84]	; 0x54
      return HAL_TIMEOUT;
 80076d6:	2303      	movs	r3, #3
 80076d8:	e000      	b.n	80076dc <SPI_EndRxTransaction+0x9c>
    }
  }
  return HAL_OK;
 80076da:	2300      	movs	r3, #0
}
 80076dc:	4618      	mov	r0, r3
 80076de:	3710      	adds	r7, #16
 80076e0:	46bd      	mov	sp, r7
 80076e2:	bd80      	pop	{r7, pc}

080076e4 <SPI_EndRxTxTransaction>:
  * @param  Timeout Timeout duration
  * @param  Tickstart tick start value
  * @retval HAL status
  */
static HAL_StatusTypeDef SPI_EndRxTxTransaction(SPI_HandleTypeDef *hspi, uint32_t Timeout, uint32_t Tickstart)
{
 80076e4:	b580      	push	{r7, lr}
 80076e6:	b086      	sub	sp, #24
 80076e8:	af02      	add	r7, sp, #8
 80076ea:	60f8      	str	r0, [r7, #12]
 80076ec:	60b9      	str	r1, [r7, #8]
 80076ee:	607a      	str	r2, [r7, #4]
  /* Control the BSY flag */
  if (SPI_WaitFlagStateUntilTimeout(hspi, SPI_FLAG_BSY, RESET, Timeout, Tickstart) != HAL_OK)
 80076f0:	687b      	ldr	r3, [r7, #4]
 80076f2:	9300      	str	r3, [sp, #0]
 80076f4:	68bb      	ldr	r3, [r7, #8]
 80076f6:	2200      	movs	r2, #0
 80076f8:	2180      	movs	r1, #128	; 0x80
 80076fa:	68f8      	ldr	r0, [r7, #12]
 80076fc:	f7ff ff18 	bl	8007530 <SPI_WaitFlagStateUntilTimeout>
 8007700:	4603      	mov	r3, r0
 8007702:	2b00      	cmp	r3, #0
 8007704:	d007      	beq.n	8007716 <SPI_EndRxTxTransaction+0x32>
  {
    SET_BIT(hspi->ErrorCode, HAL_SPI_ERROR_FLAG);
 8007706:	68fb      	ldr	r3, [r7, #12]
 8007708:	6d5b      	ldr	r3, [r3, #84]	; 0x54
 800770a:	f043 0220 	orr.w	r2, r3, #32
 800770e:	68fb      	ldr	r3, [r7, #12]
 8007710:	655a      	str	r2, [r3, #84]	; 0x54
    return HAL_TIMEOUT;
 8007712:	2303      	movs	r3, #3
 8007714:	e000      	b.n	8007718 <SPI_EndRxTxTransaction+0x34>
  }
  return HAL_OK;
 8007716:	2300      	movs	r3, #0
}
 8007718:	4618      	mov	r0, r3
 800771a:	3710      	adds	r7, #16
 800771c:	46bd      	mov	sp, r7
 800771e:	bd80      	pop	{r7, pc}

08007720 <HAL_TIM_Base_Init>:
  *         Ex: call @ref HAL_TIM_Base_DeInit() before HAL_TIM_Base_Init()
  * @param  htim TIM Base handle
  * @retval HAL status
  */
HAL_StatusTypeDef HAL_TIM_Base_Init(TIM_HandleTypeDef *htim)
{
 8007720:	b580      	push	{r7, lr}
 8007722:	b082      	sub	sp, #8
 8007724:	af00      	add	r7, sp, #0
 8007726:	6078      	str	r0, [r7, #4]
  /* Check the TIM handle allocation */
  if (htim == NULL)
 8007728:	687b      	ldr	r3, [r7, #4]
 800772a:	2b00      	cmp	r3, #0
 800772c:	d101      	bne.n	8007732 <HAL_TIM_Base_Init+0x12>
  {
    return HAL_ERROR;
 800772e:	2301      	movs	r3, #1
 8007730:	e041      	b.n	80077b6 <HAL_TIM_Base_Init+0x96>
  assert_param(IS_TIM_INSTANCE(htim->Instance));
  assert_param(IS_TIM_COUNTER_MODE(htim->Init.CounterMode));
  assert_param(IS_TIM_CLOCKDIVISION_DIV(htim->Init.ClockDivision));
  assert_param(IS_TIM_AUTORELOAD_PRELOAD(htim->Init.AutoReloadPreload));

  if (htim->State == HAL_TIM_STATE_RESET)
 8007732:	687b      	ldr	r3, [r7, #4]
 8007734:	f893 303d 	ldrb.w	r3, [r3, #61]	; 0x3d
 8007738:	b2db      	uxtb	r3, r3
 800773a:	2b00      	cmp	r3, #0
 800773c:	d106      	bne.n	800774c <HAL_TIM_Base_Init+0x2c>
  {
    /* Allocate lock resource and initialize it */
    htim->Lock = HAL_UNLOCKED;
 800773e:	687b      	ldr	r3, [r7, #4]
 8007740:	2200      	movs	r2, #0
 8007742:	f883 203c 	strb.w	r2, [r3, #60]	; 0x3c
    }
    /* Init the low level hardware : GPIO, CLOCK, NVIC */
    htim->Base_MspInitCallback(htim);
#else
    /* Init the low level hardware : GPIO, CLOCK, NVIC */
    HAL_TIM_Base_MspInit(htim);
 8007746:	6878      	ldr	r0, [r7, #4]
 8007748:	f7fd fba6 	bl	8004e98 <HAL_TIM_Base_MspInit>
#endif /* USE_HAL_TIM_REGISTER_CALLBACKS */
  }

  /* Set the TIM state */
  htim->State = HAL_TIM_STATE_BUSY;
 800774c:	687b      	ldr	r3, [r7, #4]
 800774e:	2202      	movs	r2, #2
 8007750:	f883 203d 	strb.w	r2, [r3, #61]	; 0x3d

  /* Set the Time Base configuration */
  TIM_Base_SetConfig(htim->Instance, &htim->Init);
 8007754:	687b      	ldr	r3, [r7, #4]
 8007756:	681a      	ldr	r2, [r3, #0]
 8007758:	687b      	ldr	r3, [r7, #4]
 800775a:	3304      	adds	r3, #4
 800775c:	4619      	mov	r1, r3
 800775e:	4610      	mov	r0, r2
 8007760:	f000 fa78 	bl	8007c54 <TIM_Base_SetConfig>

  /* Initialize the DMA burst operation state */
  htim->DMABurstState = HAL_DMA_BURST_STATE_READY;
 8007764:	687b      	ldr	r3, [r7, #4]
 8007766:	2201      	movs	r2, #1
 8007768:	f883 2046 	strb.w	r2, [r3, #70]	; 0x46

  /* Initialize the TIM channels state */
  TIM_CHANNEL_STATE_SET_ALL(htim, HAL_TIM_CHANNEL_STATE_READY);
 800776c:	687b      	ldr	r3, [r7, #4]
 800776e:	2201      	movs	r2, #1
 8007770:	f883 203e 	strb.w	r2, [r3, #62]	; 0x3e
 8007774:	687b      	ldr	r3, [r7, #4]
 8007776:	2201      	movs	r2, #1
 8007778:	f883 203f 	strb.w	r2, [r3, #63]	; 0x3f
 800777c:	687b      	ldr	r3, [r7, #4]
 800777e:	2201      	movs	r2, #1
 8007780:	f883 2040 	strb.w	r2, [r3, #64]	; 0x40
 8007784:	687b      	ldr	r3, [r7, #4]
 8007786:	2201      	movs	r2, #1
 8007788:	f883 2041 	strb.w	r2, [r3, #65]	; 0x41
  TIM_CHANNEL_N_STATE_SET_ALL(htim, HAL_TIM_CHANNEL_STATE_READY);
 800778c:	687b      	ldr	r3, [r7, #4]
 800778e:	2201      	movs	r2, #1
 8007790:	f883 2042 	strb.w	r2, [r3, #66]	; 0x42
 8007794:	687b      	ldr	r3, [r7, #4]
 8007796:	2201      	movs	r2, #1
 8007798:	f883 2043 	strb.w	r2, [r3, #67]	; 0x43
 800779c:	687b      	ldr	r3, [r7, #4]
 800779e:	2201      	movs	r2, #1
 80077a0:	f883 2044 	strb.w	r2, [r3, #68]	; 0x44
 80077a4:	687b      	ldr	r3, [r7, #4]
 80077a6:	2201      	movs	r2, #1
 80077a8:	f883 2045 	strb.w	r2, [r3, #69]	; 0x45

  /* Initialize the TIM state*/
  htim->State = HAL_TIM_STATE_READY;
 80077ac:	687b      	ldr	r3, [r7, #4]
 80077ae:	2201      	movs	r2, #1
 80077b0:	f883 203d 	strb.w	r2, [r3, #61]	; 0x3d

  return HAL_OK;
 80077b4:	2300      	movs	r3, #0
}
 80077b6:	4618      	mov	r0, r3
 80077b8:	3708      	adds	r7, #8
 80077ba:	46bd      	mov	sp, r7
 80077bc:	bd80      	pop	{r7, pc}
	...

080077c0 <HAL_TIM_Base_Start_IT>:
  * @brief  Starts the TIM Base generation in interrupt mode.
  * @param  htim TIM Base handle
  * @retval HAL status
  */
HAL_StatusTypeDef HAL_TIM_Base_Start_IT(TIM_HandleTypeDef *htim)
{
 80077c0:	b480      	push	{r7}
 80077c2:	b085      	sub	sp, #20
 80077c4:	af00      	add	r7, sp, #0
 80077c6:	6078      	str	r0, [r7, #4]

  /* Check the parameters */
  assert_param(IS_TIM_INSTANCE(htim->Instance));

  /* Check the TIM state */
  if (htim->State != HAL_TIM_STATE_READY)
 80077c8:	687b      	ldr	r3, [r7, #4]
 80077ca:	f893 303d 	ldrb.w	r3, [r3, #61]	; 0x3d
 80077ce:	b2db      	uxtb	r3, r3
 80077d0:	2b01      	cmp	r3, #1
 80077d2:	d001      	beq.n	80077d8 <HAL_TIM_Base_Start_IT+0x18>
  {
    return HAL_ERROR;
 80077d4:	2301      	movs	r3, #1
 80077d6:	e03f      	b.n	8007858 <HAL_TIM_Base_Start_IT+0x98>
  }

  /* Set the TIM state */
  htim->State = HAL_TIM_STATE_BUSY;
 80077d8:	687b      	ldr	r3, [r7, #4]
 80077da:	2202      	movs	r2, #2
 80077dc:	f883 203d 	strb.w	r2, [r3, #61]	; 0x3d

  /* Enable the TIM Update interrupt */
  __HAL_TIM_ENABLE_IT(htim, TIM_IT_UPDATE);
 80077e0:	687b      	ldr	r3, [r7, #4]
 80077e2:	681b      	ldr	r3, [r3, #0]
 80077e4:	68da      	ldr	r2, [r3, #12]
 80077e6:	687b      	ldr	r3, [r7, #4]
 80077e8:	681b      	ldr	r3, [r3, #0]
 80077ea:	f042 0201 	orr.w	r2, r2, #1
 80077ee:	60da      	str	r2, [r3, #12]

  /* Enable the Peripheral, except in trigger mode where enable is automatically done with trigger */
  if (IS_TIM_SLAVE_INSTANCE(htim->Instance))
 80077f0:	687b      	ldr	r3, [r7, #4]
 80077f2:	681b      	ldr	r3, [r3, #0]
 80077f4:	4a1b      	ldr	r2, [pc, #108]	; (8007864 <HAL_TIM_Base_Start_IT+0xa4>)
 80077f6:	4293      	cmp	r3, r2
 80077f8:	d013      	beq.n	8007822 <HAL_TIM_Base_Start_IT+0x62>
 80077fa:	687b      	ldr	r3, [r7, #4]
 80077fc:	681b      	ldr	r3, [r3, #0]
 80077fe:	f1b3 4f80 	cmp.w	r3, #1073741824	; 0x40000000
 8007802:	d00e      	beq.n	8007822 <HAL_TIM_Base_Start_IT+0x62>
 8007804:	687b      	ldr	r3, [r7, #4]
 8007806:	681b      	ldr	r3, [r3, #0]
 8007808:	4a17      	ldr	r2, [pc, #92]	; (8007868 <HAL_TIM_Base_Start_IT+0xa8>)
 800780a:	4293      	cmp	r3, r2
 800780c:	d009      	beq.n	8007822 <HAL_TIM_Base_Start_IT+0x62>
 800780e:	687b      	ldr	r3, [r7, #4]
 8007810:	681b      	ldr	r3, [r3, #0]
 8007812:	4a16      	ldr	r2, [pc, #88]	; (800786c <HAL_TIM_Base_Start_IT+0xac>)
 8007814:	4293      	cmp	r3, r2
 8007816:	d004      	beq.n	8007822 <HAL_TIM_Base_Start_IT+0x62>
 8007818:	687b      	ldr	r3, [r7, #4]
 800781a:	681b      	ldr	r3, [r3, #0]
 800781c:	4a14      	ldr	r2, [pc, #80]	; (8007870 <HAL_TIM_Base_Start_IT+0xb0>)
 800781e:	4293      	cmp	r3, r2
 8007820:	d111      	bne.n	8007846 <HAL_TIM_Base_Start_IT+0x86>
  {
    tmpsmcr = htim->Instance->SMCR & TIM_SMCR_SMS;
 8007822:	687b      	ldr	r3, [r7, #4]
 8007824:	681b      	ldr	r3, [r3, #0]
 8007826:	689b      	ldr	r3, [r3, #8]
 8007828:	f003 0307 	and.w	r3, r3, #7
 800782c:	60fb      	str	r3, [r7, #12]
    if (!IS_TIM_SLAVEMODE_TRIGGER_ENABLED(tmpsmcr))
 800782e:	68fb      	ldr	r3, [r7, #12]
 8007830:	2b06      	cmp	r3, #6
 8007832:	d010      	beq.n	8007856 <HAL_TIM_Base_Start_IT+0x96>
    {
      __HAL_TIM_ENABLE(htim);
 8007834:	687b      	ldr	r3, [r7, #4]
 8007836:	681b      	ldr	r3, [r3, #0]
 8007838:	681a      	ldr	r2, [r3, #0]
 800783a:	687b      	ldr	r3, [r7, #4]
 800783c:	681b      	ldr	r3, [r3, #0]
 800783e:	f042 0201 	orr.w	r2, r2, #1
 8007842:	601a      	str	r2, [r3, #0]
    if (!IS_TIM_SLAVEMODE_TRIGGER_ENABLED(tmpsmcr))
 8007844:	e007      	b.n	8007856 <HAL_TIM_Base_Start_IT+0x96>
    }
  }
  else
  {
    __HAL_TIM_ENABLE(htim);
 8007846:	687b      	ldr	r3, [r7, #4]
 8007848:	681b      	ldr	r3, [r3, #0]
 800784a:	681a      	ldr	r2, [r3, #0]
 800784c:	687b      	ldr	r3, [r7, #4]
 800784e:	681b      	ldr	r3, [r3, #0]
 8007850:	f042 0201 	orr.w	r2, r2, #1
 8007854:	601a      	str	r2, [r3, #0]
  }

  /* Return function status */
  return HAL_OK;
 8007856:	2300      	movs	r3, #0
}
 8007858:	4618      	mov	r0, r3
 800785a:	3714      	adds	r7, #20
 800785c:	46bd      	mov	sp, r7
 800785e:	bc80      	pop	{r7}
 8007860:	4770      	bx	lr
 8007862:	bf00      	nop
 8007864:	40012c00 	.word	0x40012c00
 8007868:	40000400 	.word	0x40000400
 800786c:	40000800 	.word	0x40000800
 8007870:	40014000 	.word	0x40014000

08007874 <HAL_TIM_IRQHandler>:
  * @brief  This function handles TIM interrupts requests.
  * @param  htim TIM  handle
  * @retval None
  */
void HAL_TIM_IRQHandler(TIM_HandleTypeDef *htim)
{
 8007874:	b580      	push	{r7, lr}
 8007876:	b082      	sub	sp, #8
 8007878:	af00      	add	r7, sp, #0
 800787a:	6078      	str	r0, [r7, #4]
  /* Capture compare 1 event */
  if (__HAL_TIM_GET_FLAG(htim, TIM_FLAG_CC1) != RESET)
 800787c:	687b      	ldr	r3, [r7, #4]
 800787e:	681b      	ldr	r3, [r3, #0]
 8007880:	691b      	ldr	r3, [r3, #16]
 8007882:	f003 0302 	and.w	r3, r3, #2
 8007886:	2b02      	cmp	r3, #2
 8007888:	d122      	bne.n	80078d0 <HAL_TIM_IRQHandler+0x5c>
  {
    if (__HAL_TIM_GET_IT_SOURCE(htim, TIM_IT_CC1) != RESET)
 800788a:	687b      	ldr	r3, [r7, #4]
 800788c:	681b      	ldr	r3, [r3, #0]
 800788e:	68db      	ldr	r3, [r3, #12]
 8007890:	f003 0302 	and.w	r3, r3, #2
 8007894:	2b02      	cmp	r3, #2
 8007896:	d11b      	bne.n	80078d0 <HAL_TIM_IRQHandler+0x5c>
    {
      {
        __HAL_TIM_CLEAR_IT(htim, TIM_IT_CC1);
 8007898:	687b      	ldr	r3, [r7, #4]
 800789a:	681b      	ldr	r3, [r3, #0]
 800789c:	f06f 0202 	mvn.w	r2, #2
 80078a0:	611a      	str	r2, [r3, #16]
        htim->Channel = HAL_TIM_ACTIVE_CHANNEL_1;
 80078a2:	687b      	ldr	r3, [r7, #4]
 80078a4:	2201      	movs	r2, #1
 80078a6:	771a      	strb	r2, [r3, #28]

        /* Input capture event */
        if ((htim->Instance->CCMR1 & TIM_CCMR1_CC1S) != 0x00U)
 80078a8:	687b      	ldr	r3, [r7, #4]
 80078aa:	681b      	ldr	r3, [r3, #0]
 80078ac:	699b      	ldr	r3, [r3, #24]
 80078ae:	f003 0303 	and.w	r3, r3, #3
 80078b2:	2b00      	cmp	r3, #0
 80078b4:	d003      	beq.n	80078be <HAL_TIM_IRQHandler+0x4a>
        {
#if (USE_HAL_TIM_REGISTER_CALLBACKS == 1)
          htim->IC_CaptureCallback(htim);
#else
          HAL_TIM_IC_CaptureCallback(htim);
 80078b6:	6878      	ldr	r0, [r7, #4]
 80078b8:	f000 f9b1 	bl	8007c1e <HAL_TIM_IC_CaptureCallback>
 80078bc:	e005      	b.n	80078ca <HAL_TIM_IRQHandler+0x56>
        {
#if (USE_HAL_TIM_REGISTER_CALLBACKS == 1)
          htim->OC_DelayElapsedCallback(htim);
          htim->PWM_PulseFinishedCallback(htim);
#else
          HAL_TIM_OC_DelayElapsedCallback(htim);
 80078be:	6878      	ldr	r0, [r7, #4]
 80078c0:	f000 f9a4 	bl	8007c0c <HAL_TIM_OC_DelayElapsedCallback>
          HAL_TIM_PWM_PulseFinishedCallback(htim);
 80078c4:	6878      	ldr	r0, [r7, #4]
 80078c6:	f000 f9b3 	bl	8007c30 <HAL_TIM_PWM_PulseFinishedCallback>
#endif /* USE_HAL_TIM_REGISTER_CALLBACKS */
        }
        htim->Channel = HAL_TIM_ACTIVE_CHANNEL_CLEARED;
 80078ca:	687b      	ldr	r3, [r7, #4]
 80078cc:	2200      	movs	r2, #0
 80078ce:	771a      	strb	r2, [r3, #28]
      }
    }
  }
  /* Capture compare 2 event */
  if (__HAL_TIM_GET_FLAG(htim, TIM_FLAG_CC2) != RESET)
 80078d0:	687b      	ldr	r3, [r7, #4]
 80078d2:	681b      	ldr	r3, [r3, #0]
 80078d4:	691b      	ldr	r3, [r3, #16]
 80078d6:	f003 0304 	and.w	r3, r3, #4
 80078da:	2b04      	cmp	r3, #4
 80078dc:	d122      	bne.n	8007924 <HAL_TIM_IRQHandler+0xb0>
  {
    if (__HAL_TIM_GET_IT_SOURCE(htim, TIM_IT_CC2) != RESET)
 80078de:	687b      	ldr	r3, [r7, #4]
 80078e0:	681b      	ldr	r3, [r3, #0]
 80078e2:	68db      	ldr	r3, [r3, #12]
 80078e4:	f003 0304 	and.w	r3, r3, #4
 80078e8:	2b04      	cmp	r3, #4
 80078ea:	d11b      	bne.n	8007924 <HAL_TIM_IRQHandler+0xb0>
    {
      __HAL_TIM_CLEAR_IT(htim, TIM_IT_CC2);
 80078ec:	687b      	ldr	r3, [r7, #4]
 80078ee:	681b      	ldr	r3, [r3, #0]
 80078f0:	f06f 0204 	mvn.w	r2, #4
 80078f4:	611a      	str	r2, [r3, #16]
      htim->Channel = HAL_TIM_ACTIVE_CHANNEL_2;
 80078f6:	687b      	ldr	r3, [r7, #4]
 80078f8:	2202      	movs	r2, #2
 80078fa:	771a      	strb	r2, [r3, #28]
      /* Input capture event */
      if ((htim->Instance->CCMR1 & TIM_CCMR1_CC2S) != 0x00U)
 80078fc:	687b      	ldr	r3, [r7, #4]
 80078fe:	681b      	ldr	r3, [r3, #0]
 8007900:	699b      	ldr	r3, [r3, #24]
 8007902:	f403 7340 	and.w	r3, r3, #768	; 0x300
 8007906:	2b00      	cmp	r3, #0
 8007908:	d003      	beq.n	8007912 <HAL_TIM_IRQHandler+0x9e>
      {
#if (USE_HAL_TIM_REGISTER_CALLBACKS == 1)
        htim->IC_CaptureCallback(htim);
#else
        HAL_TIM_IC_CaptureCallback(htim);
 800790a:	6878      	ldr	r0, [r7, #4]
 800790c:	f000 f987 	bl	8007c1e <HAL_TIM_IC_CaptureCallback>
 8007910:	e005      	b.n	800791e <HAL_TIM_IRQHandler+0xaa>
      {
#if (USE_HAL_TIM_REGISTER_CALLBACKS == 1)
        htim->OC_DelayElapsedCallback(htim);
        htim->PWM_PulseFinishedCallback(htim);
#else
        HAL_TIM_OC_DelayElapsedCallback(htim);
 8007912:	6878      	ldr	r0, [r7, #4]
 8007914:	f000 f97a 	bl	8007c0c <HAL_TIM_OC_DelayElapsedCallback>
        HAL_TIM_PWM_PulseFinishedCallback(htim);
 8007918:	6878      	ldr	r0, [r7, #4]
 800791a:	f000 f989 	bl	8007c30 <HAL_TIM_PWM_PulseFinishedCallback>
#endif /* USE_HAL_TIM_REGISTER_CALLBACKS */
      }
      htim->Channel = HAL_TIM_ACTIVE_CHANNEL_CLEARED;
 800791e:	687b      	ldr	r3, [r7, #4]
 8007920:	2200      	movs	r2, #0
 8007922:	771a      	strb	r2, [r3, #28]
    }
  }
  /* Capture compare 3 event */
  if (__HAL_TIM_GET_FLAG(htim, TIM_FLAG_CC3) != RESET)
 8007924:	687b      	ldr	r3, [r7, #4]
 8007926:	681b      	ldr	r3, [r3, #0]
 8007928:	691b      	ldr	r3, [r3, #16]
 800792a:	f003 0308 	and.w	r3, r3, #8
 800792e:	2b08      	cmp	r3, #8
 8007930:	d122      	bne.n	8007978 <HAL_TIM_IRQHandler+0x104>
  {
    if (__HAL_TIM_GET_IT_SOURCE(htim, TIM_IT_CC3) != RESET)
 8007932:	687b      	ldr	r3, [r7, #4]
 8007934:	681b      	ldr	r3, [r3, #0]
 8007936:	68db      	ldr	r3, [r3, #12]
 8007938:	f003 0308 	and.w	r3, r3, #8
 800793c:	2b08      	cmp	r3, #8
 800793e:	d11b      	bne.n	8007978 <HAL_TIM_IRQHandler+0x104>
    {
      __HAL_TIM_CLEAR_IT(htim, TIM_IT_CC3);
 8007940:	687b      	ldr	r3, [r7, #4]
 8007942:	681b      	ldr	r3, [r3, #0]
 8007944:	f06f 0208 	mvn.w	r2, #8
 8007948:	611a      	str	r2, [r3, #16]
      htim->Channel = HAL_TIM_ACTIVE_CHANNEL_3;
 800794a:	687b      	ldr	r3, [r7, #4]
 800794c:	2204      	movs	r2, #4
 800794e:	771a      	strb	r2, [r3, #28]
      /* Input capture event */
      if ((htim->Instance->CCMR2 & TIM_CCMR2_CC3S) != 0x00U)
 8007950:	687b      	ldr	r3, [r7, #4]
 8007952:	681b      	ldr	r3, [r3, #0]
 8007954:	69db      	ldr	r3, [r3, #28]
 8007956:	f003 0303 	and.w	r3, r3, #3
 800795a:	2b00      	cmp	r3, #0
 800795c:	d003      	beq.n	8007966 <HAL_TIM_IRQHandler+0xf2>
      {
#if (USE_HAL_TIM_REGISTER_CALLBACKS == 1)
        htim->IC_CaptureCallback(htim);
#else
        HAL_TIM_IC_CaptureCallback(htim);
 800795e:	6878      	ldr	r0, [r7, #4]
 8007960:	f000 f95d 	bl	8007c1e <HAL_TIM_IC_CaptureCallback>
 8007964:	e005      	b.n	8007972 <HAL_TIM_IRQHandler+0xfe>
      {
#if (USE_HAL_TIM_REGISTER_CALLBACKS == 1)
        htim->OC_DelayElapsedCallback(htim);
        htim->PWM_PulseFinishedCallback(htim);
#else
        HAL_TIM_OC_DelayElapsedCallback(htim);
 8007966:	6878      	ldr	r0, [r7, #4]
 8007968:	f000 f950 	bl	8007c0c <HAL_TIM_OC_DelayElapsedCallback>
        HAL_TIM_PWM_PulseFinishedCallback(htim);
 800796c:	6878      	ldr	r0, [r7, #4]
 800796e:	f000 f95f 	bl	8007c30 <HAL_TIM_PWM_PulseFinishedCallback>
#endif /* USE_HAL_TIM_REGISTER_CALLBACKS */
      }
      htim->Channel = HAL_TIM_ACTIVE_CHANNEL_CLEARED;
 8007972:	687b      	ldr	r3, [r7, #4]
 8007974:	2200      	movs	r2, #0
 8007976:	771a      	strb	r2, [r3, #28]
    }
  }
  /* Capture compare 4 event */
  if (__HAL_TIM_GET_FLAG(htim, TIM_FLAG_CC4) != RESET)
 8007978:	687b      	ldr	r3, [r7, #4]
 800797a:	681b      	ldr	r3, [r3, #0]
 800797c:	691b      	ldr	r3, [r3, #16]
 800797e:	f003 0310 	and.w	r3, r3, #16
 8007982:	2b10      	cmp	r3, #16
 8007984:	d122      	bne.n	80079cc <HAL_TIM_IRQHandler+0x158>
  {
    if (__HAL_TIM_GET_IT_SOURCE(htim, TIM_IT_CC4) != RESET)
 8007986:	687b      	ldr	r3, [r7, #4]
 8007988:	681b      	ldr	r3, [r3, #0]
 800798a:	68db      	ldr	r3, [r3, #12]
 800798c:	f003 0310 	and.w	r3, r3, #16
 8007990:	2b10      	cmp	r3, #16
 8007992:	d11b      	bne.n	80079cc <HAL_TIM_IRQHandler+0x158>
    {
      __HAL_TIM_CLEAR_IT(htim, TIM_IT_CC4);
 8007994:	687b      	ldr	r3, [r7, #4]
 8007996:	681b      	ldr	r3, [r3, #0]
 8007998:	f06f 0210 	mvn.w	r2, #16
 800799c:	611a      	str	r2, [r3, #16]
      htim->Channel = HAL_TIM_ACTIVE_CHANNEL_4;
 800799e:	687b      	ldr	r3, [r7, #4]
 80079a0:	2208      	movs	r2, #8
 80079a2:	771a      	strb	r2, [r3, #28]
      /* Input capture event */
      if ((htim->Instance->CCMR2 & TIM_CCMR2_CC4S) != 0x00U)
 80079a4:	687b      	ldr	r3, [r7, #4]
 80079a6:	681b      	ldr	r3, [r3, #0]
 80079a8:	69db      	ldr	r3, [r3, #28]
 80079aa:	f403 7340 	and.w	r3, r3, #768	; 0x300
 80079ae:	2b00      	cmp	r3, #0
 80079b0:	d003      	beq.n	80079ba <HAL_TIM_IRQHandler+0x146>
      {
#if (USE_HAL_TIM_REGISTER_CALLBACKS == 1)
        htim->IC_CaptureCallback(htim);
#else
        HAL_TIM_IC_CaptureCallback(htim);
 80079b2:	6878      	ldr	r0, [r7, #4]
 80079b4:	f000 f933 	bl	8007c1e <HAL_TIM_IC_CaptureCallback>
 80079b8:	e005      	b.n	80079c6 <HAL_TIM_IRQHandler+0x152>
      {
#if (USE_HAL_TIM_REGISTER_CALLBACKS == 1)
        htim->OC_DelayElapsedCallback(htim);
        htim->PWM_PulseFinishedCallback(htim);
#else
        HAL_TIM_OC_DelayElapsedCallback(htim);
 80079ba:	6878      	ldr	r0, [r7, #4]
 80079bc:	f000 f926 	bl	8007c0c <HAL_TIM_OC_DelayElapsedCallback>
        HAL_TIM_PWM_PulseFinishedCallback(htim);
 80079c0:	6878      	ldr	r0, [r7, #4]
 80079c2:	f000 f935 	bl	8007c30 <HAL_TIM_PWM_PulseFinishedCallback>
#endif /* USE_HAL_TIM_REGISTER_CALLBACKS */
      }
      htim->Channel = HAL_TIM_ACTIVE_CHANNEL_CLEARED;
 80079c6:	687b      	ldr	r3, [r7, #4]
 80079c8:	2200      	movs	r2, #0
 80079ca:	771a      	strb	r2, [r3, #28]
    }
  }
  /* TIM Update event */
  if (__HAL_TIM_GET_FLAG(htim, TIM_FLAG_UPDATE) != RESET)
 80079cc:	687b      	ldr	r3, [r7, #4]
 80079ce:	681b      	ldr	r3, [r3, #0]
 80079d0:	691b      	ldr	r3, [r3, #16]
 80079d2:	f003 0301 	and.w	r3, r3, #1
 80079d6:	2b01      	cmp	r3, #1
 80079d8:	d10e      	bne.n	80079f8 <HAL_TIM_IRQHandler+0x184>
  {
    if (__HAL_TIM_GET_IT_SOURCE(htim, TIM_IT_UPDATE) != RESET)
 80079da:	687b      	ldr	r3, [r7, #4]
 80079dc:	681b      	ldr	r3, [r3, #0]
 80079de:	68db      	ldr	r3, [r3, #12]
 80079e0:	f003 0301 	and.w	r3, r3, #1
 80079e4:	2b01      	cmp	r3, #1
 80079e6:	d107      	bne.n	80079f8 <HAL_TIM_IRQHandler+0x184>
    {
      __HAL_TIM_CLEAR_IT(htim, TIM_IT_UPDATE);
 80079e8:	687b      	ldr	r3, [r7, #4]
 80079ea:	681b      	ldr	r3, [r3, #0]
 80079ec:	f06f 0201 	mvn.w	r2, #1
 80079f0:	611a      	str	r2, [r3, #16]
#if (USE_HAL_TIM_REGISTER_CALLBACKS == 1)
      htim->PeriodElapsedCallback(htim);
#else
      HAL_TIM_PeriodElapsedCallback(htim);
 80079f2:	6878      	ldr	r0, [r7, #4]
 80079f4:	f7fc fcbe 	bl	8004374 <HAL_TIM_PeriodElapsedCallback>
#endif /* USE_HAL_TIM_REGISTER_CALLBACKS */
    }
  }
  /* TIM Break input event */
  if (__HAL_TIM_GET_FLAG(htim, TIM_FLAG_BREAK) != RESET)
 80079f8:	687b      	ldr	r3, [r7, #4]
 80079fa:	681b      	ldr	r3, [r3, #0]
 80079fc:	691b      	ldr	r3, [r3, #16]
 80079fe:	f003 0380 	and.w	r3, r3, #128	; 0x80
 8007a02:	2b80      	cmp	r3, #128	; 0x80
 8007a04:	d10e      	bne.n	8007a24 <HAL_TIM_IRQHandler+0x1b0>
  {
    if (__HAL_TIM_GET_IT_SOURCE(htim, TIM_IT_BREAK) != RESET)
 8007a06:	687b      	ldr	r3, [r7, #4]
 8007a08:	681b      	ldr	r3, [r3, #0]
 8007a0a:	68db      	ldr	r3, [r3, #12]
 8007a0c:	f003 0380 	and.w	r3, r3, #128	; 0x80
 8007a10:	2b80      	cmp	r3, #128	; 0x80
 8007a12:	d107      	bne.n	8007a24 <HAL_TIM_IRQHandler+0x1b0>
    {
      __HAL_TIM_CLEAR_IT(htim, TIM_IT_BREAK);
 8007a14:	687b      	ldr	r3, [r7, #4]
 8007a16:	681b      	ldr	r3, [r3, #0]
 8007a18:	f06f 0280 	mvn.w	r2, #128	; 0x80
 8007a1c:	611a      	str	r2, [r3, #16]
#if (USE_HAL_TIM_REGISTER_CALLBACKS == 1)
      htim->BreakCallback(htim);
#else
      HAL_TIMEx_BreakCallback(htim);
 8007a1e:	6878      	ldr	r0, [r7, #4]
 8007a20:	f000 fa9d 	bl	8007f5e <HAL_TIMEx_BreakCallback>
#endif /* USE_HAL_TIM_REGISTER_CALLBACKS */
    }
  }
  /* TIM Trigger detection event */
  if (__HAL_TIM_GET_FLAG(htim, TIM_FLAG_TRIGGER) != RESET)
 8007a24:	687b      	ldr	r3, [r7, #4]
 8007a26:	681b      	ldr	r3, [r3, #0]
 8007a28:	691b      	ldr	r3, [r3, #16]
 8007a2a:	f003 0340 	and.w	r3, r3, #64	; 0x40
 8007a2e:	2b40      	cmp	r3, #64	; 0x40
 8007a30:	d10e      	bne.n	8007a50 <HAL_TIM_IRQHandler+0x1dc>
  {
    if (__HAL_TIM_GET_IT_SOURCE(htim, TIM_IT_TRIGGER) != RESET)
 8007a32:	687b      	ldr	r3, [r7, #4]
 8007a34:	681b      	ldr	r3, [r3, #0]
 8007a36:	68db      	ldr	r3, [r3, #12]
 8007a38:	f003 0340 	and.w	r3, r3, #64	; 0x40
 8007a3c:	2b40      	cmp	r3, #64	; 0x40
 8007a3e:	d107      	bne.n	8007a50 <HAL_TIM_IRQHandler+0x1dc>
    {
      __HAL_TIM_CLEAR_IT(htim, TIM_IT_TRIGGER);
 8007a40:	687b      	ldr	r3, [r7, #4]
 8007a42:	681b      	ldr	r3, [r3, #0]
 8007a44:	f06f 0240 	mvn.w	r2, #64	; 0x40
 8007a48:	611a      	str	r2, [r3, #16]
#if (USE_HAL_TIM_REGISTER_CALLBACKS == 1)
      htim->TriggerCallback(htim);
#else
      HAL_TIM_TriggerCallback(htim);
 8007a4a:	6878      	ldr	r0, [r7, #4]
 8007a4c:	f000 f8f9 	bl	8007c42 <HAL_TIM_TriggerCallback>
#endif /* USE_HAL_TIM_REGISTER_CALLBACKS */
    }
  }
  /* TIM commutation event */
  if (__HAL_TIM_GET_FLAG(htim, TIM_FLAG_COM) != RESET)
 8007a50:	687b      	ldr	r3, [r7, #4]
 8007a52:	681b      	ldr	r3, [r3, #0]
 8007a54:	691b      	ldr	r3, [r3, #16]
 8007a56:	f003 0320 	and.w	r3, r3, #32
 8007a5a:	2b20      	cmp	r3, #32
 8007a5c:	d10e      	bne.n	8007a7c <HAL_TIM_IRQHandler+0x208>
  {
    if (__HAL_TIM_GET_IT_SOURCE(htim, TIM_IT_COM) != RESET)
 8007a5e:	687b      	ldr	r3, [r7, #4]
 8007a60:	681b      	ldr	r3, [r3, #0]
 8007a62:	68db      	ldr	r3, [r3, #12]
 8007a64:	f003 0320 	and.w	r3, r3, #32
 8007a68:	2b20      	cmp	r3, #32
 8007a6a:	d107      	bne.n	8007a7c <HAL_TIM_IRQHandler+0x208>
    {
      __HAL_TIM_CLEAR_IT(htim, TIM_FLAG_COM);
 8007a6c:	687b      	ldr	r3, [r7, #4]
 8007a6e:	681b      	ldr	r3, [r3, #0]
 8007a70:	f06f 0220 	mvn.w	r2, #32
 8007a74:	611a      	str	r2, [r3, #16]
#if (USE_HAL_TIM_REGISTER_CALLBACKS == 1)
      htim->CommutationCallback(htim);
#else
      HAL_TIMEx_CommutCallback(htim);
 8007a76:	6878      	ldr	r0, [r7, #4]
 8007a78:	f000 fa68 	bl	8007f4c <HAL_TIMEx_CommutCallback>
#endif /* USE_HAL_TIM_REGISTER_CALLBACKS */
    }
  }
}
 8007a7c:	bf00      	nop
 8007a7e:	3708      	adds	r7, #8
 8007a80:	46bd      	mov	sp, r7
 8007a82:	bd80      	pop	{r7, pc}

08007a84 <HAL_TIM_ConfigClockSource>:
  * @param  sClockSourceConfig pointer to a TIM_ClockConfigTypeDef structure that
  *         contains the clock source information for the TIM peripheral.
  * @retval HAL status
  */
HAL_StatusTypeDef HAL_TIM_ConfigClockSource(TIM_HandleTypeDef *htim, TIM_ClockConfigTypeDef *sClockSourceConfig)
{
 8007a84:	b580      	push	{r7, lr}
 8007a86:	b084      	sub	sp, #16
 8007a88:	af00      	add	r7, sp, #0
 8007a8a:	6078      	str	r0, [r7, #4]
 8007a8c:	6039      	str	r1, [r7, #0]
  uint32_t tmpsmcr;

  /* Process Locked */
  __HAL_LOCK(htim);
 8007a8e:	687b      	ldr	r3, [r7, #4]
 8007a90:	f893 303c 	ldrb.w	r3, [r3, #60]	; 0x3c
 8007a94:	2b01      	cmp	r3, #1
 8007a96:	d101      	bne.n	8007a9c <HAL_TIM_ConfigClockSource+0x18>
 8007a98:	2302      	movs	r3, #2
 8007a9a:	e0b3      	b.n	8007c04 <HAL_TIM_ConfigClockSource+0x180>
 8007a9c:	687b      	ldr	r3, [r7, #4]
 8007a9e:	2201      	movs	r2, #1
 8007aa0:	f883 203c 	strb.w	r2, [r3, #60]	; 0x3c

  htim->State = HAL_TIM_STATE_BUSY;
 8007aa4:	687b      	ldr	r3, [r7, #4]
 8007aa6:	2202      	movs	r2, #2
 8007aa8:	f883 203d 	strb.w	r2, [r3, #61]	; 0x3d

  /* Check the parameters */
  assert_param(IS_TIM_CLOCKSOURCE(sClockSourceConfig->ClockSource));

  /* Reset the SMS, TS, ECE, ETPS and ETRF bits */
  tmpsmcr = htim->Instance->SMCR;
 8007aac:	687b      	ldr	r3, [r7, #4]
 8007aae:	681b      	ldr	r3, [r3, #0]
 8007ab0:	689b      	ldr	r3, [r3, #8]
 8007ab2:	60fb      	str	r3, [r7, #12]
  tmpsmcr &= ~(TIM_SMCR_SMS | TIM_SMCR_TS);
 8007ab4:	68fb      	ldr	r3, [r7, #12]
 8007ab6:	f023 0377 	bic.w	r3, r3, #119	; 0x77
 8007aba:	60fb      	str	r3, [r7, #12]
  tmpsmcr &= ~(TIM_SMCR_ETF | TIM_SMCR_ETPS | TIM_SMCR_ECE | TIM_SMCR_ETP);
 8007abc:	68fb      	ldr	r3, [r7, #12]
 8007abe:	f423 437f 	bic.w	r3, r3, #65280	; 0xff00
 8007ac2:	60fb      	str	r3, [r7, #12]
  htim->Instance->SMCR = tmpsmcr;
 8007ac4:	687b      	ldr	r3, [r7, #4]
 8007ac6:	681b      	ldr	r3, [r3, #0]
 8007ac8:	68fa      	ldr	r2, [r7, #12]
 8007aca:	609a      	str	r2, [r3, #8]

  switch (sClockSourceConfig->ClockSource)
 8007acc:	683b      	ldr	r3, [r7, #0]
 8007ace:	681b      	ldr	r3, [r3, #0]
 8007ad0:	f5b3 5f00 	cmp.w	r3, #8192	; 0x2000
 8007ad4:	d03e      	beq.n	8007b54 <HAL_TIM_ConfigClockSource+0xd0>
 8007ad6:	f5b3 5f00 	cmp.w	r3, #8192	; 0x2000
 8007ada:	f200 8087 	bhi.w	8007bec <HAL_TIM_ConfigClockSource+0x168>
 8007ade:	f5b3 5f80 	cmp.w	r3, #4096	; 0x1000
 8007ae2:	f000 8085 	beq.w	8007bf0 <HAL_TIM_ConfigClockSource+0x16c>
 8007ae6:	f5b3 5f80 	cmp.w	r3, #4096	; 0x1000
 8007aea:	d87f      	bhi.n	8007bec <HAL_TIM_ConfigClockSource+0x168>
 8007aec:	2b70      	cmp	r3, #112	; 0x70
 8007aee:	d01a      	beq.n	8007b26 <HAL_TIM_ConfigClockSource+0xa2>
 8007af0:	2b70      	cmp	r3, #112	; 0x70
 8007af2:	d87b      	bhi.n	8007bec <HAL_TIM_ConfigClockSource+0x168>
 8007af4:	2b60      	cmp	r3, #96	; 0x60
 8007af6:	d050      	beq.n	8007b9a <HAL_TIM_ConfigClockSource+0x116>
 8007af8:	2b60      	cmp	r3, #96	; 0x60
 8007afa:	d877      	bhi.n	8007bec <HAL_TIM_ConfigClockSource+0x168>
 8007afc:	2b50      	cmp	r3, #80	; 0x50
 8007afe:	d03c      	beq.n	8007b7a <HAL_TIM_ConfigClockSource+0xf6>
 8007b00:	2b50      	cmp	r3, #80	; 0x50
 8007b02:	d873      	bhi.n	8007bec <HAL_TIM_ConfigClockSource+0x168>
 8007b04:	2b40      	cmp	r3, #64	; 0x40
 8007b06:	d058      	beq.n	8007bba <HAL_TIM_ConfigClockSource+0x136>
 8007b08:	2b40      	cmp	r3, #64	; 0x40
 8007b0a:	d86f      	bhi.n	8007bec <HAL_TIM_ConfigClockSource+0x168>
 8007b0c:	2b30      	cmp	r3, #48	; 0x30
 8007b0e:	d064      	beq.n	8007bda <HAL_TIM_ConfigClockSource+0x156>
 8007b10:	2b30      	cmp	r3, #48	; 0x30
 8007b12:	d86b      	bhi.n	8007bec <HAL_TIM_ConfigClockSource+0x168>
 8007b14:	2b20      	cmp	r3, #32
 8007b16:	d060      	beq.n	8007bda <HAL_TIM_ConfigClockSource+0x156>
 8007b18:	2b20      	cmp	r3, #32
 8007b1a:	d867      	bhi.n	8007bec <HAL_TIM_ConfigClockSource+0x168>
 8007b1c:	2b00      	cmp	r3, #0
 8007b1e:	d05c      	beq.n	8007bda <HAL_TIM_ConfigClockSource+0x156>
 8007b20:	2b10      	cmp	r3, #16
 8007b22:	d05a      	beq.n	8007bda <HAL_TIM_ConfigClockSource+0x156>
        TIM_ITRx_SetConfig(htim->Instance, sClockSourceConfig->ClockSource);
        break;
      }

    default:
      break;
 8007b24:	e062      	b.n	8007bec <HAL_TIM_ConfigClockSource+0x168>
      TIM_ETR_SetConfig(htim->Instance,
 8007b26:	687b      	ldr	r3, [r7, #4]
 8007b28:	6818      	ldr	r0, [r3, #0]
 8007b2a:	683b      	ldr	r3, [r7, #0]
 8007b2c:	6899      	ldr	r1, [r3, #8]
 8007b2e:	683b      	ldr	r3, [r7, #0]
 8007b30:	685a      	ldr	r2, [r3, #4]
 8007b32:	683b      	ldr	r3, [r7, #0]
 8007b34:	68db      	ldr	r3, [r3, #12]
 8007b36:	f000 f984 	bl	8007e42 <TIM_ETR_SetConfig>
      tmpsmcr = htim->Instance->SMCR;
 8007b3a:	687b      	ldr	r3, [r7, #4]
 8007b3c:	681b      	ldr	r3, [r3, #0]
 8007b3e:	689b      	ldr	r3, [r3, #8]
 8007b40:	60fb      	str	r3, [r7, #12]
      tmpsmcr |= (TIM_SLAVEMODE_EXTERNAL1 | TIM_CLOCKSOURCE_ETRMODE1);
 8007b42:	68fb      	ldr	r3, [r7, #12]
 8007b44:	f043 0377 	orr.w	r3, r3, #119	; 0x77
 8007b48:	60fb      	str	r3, [r7, #12]
      htim->Instance->SMCR = tmpsmcr;
 8007b4a:	687b      	ldr	r3, [r7, #4]
 8007b4c:	681b      	ldr	r3, [r3, #0]
 8007b4e:	68fa      	ldr	r2, [r7, #12]
 8007b50:	609a      	str	r2, [r3, #8]
      break;
 8007b52:	e04e      	b.n	8007bf2 <HAL_TIM_ConfigClockSource+0x16e>
      TIM_ETR_SetConfig(htim->Instance,
 8007b54:	687b      	ldr	r3, [r7, #4]
 8007b56:	6818      	ldr	r0, [r3, #0]
 8007b58:	683b      	ldr	r3, [r7, #0]
 8007b5a:	6899      	ldr	r1, [r3, #8]
 8007b5c:	683b      	ldr	r3, [r7, #0]
 8007b5e:	685a      	ldr	r2, [r3, #4]
 8007b60:	683b      	ldr	r3, [r7, #0]
 8007b62:	68db      	ldr	r3, [r3, #12]
 8007b64:	f000 f96d 	bl	8007e42 <TIM_ETR_SetConfig>
      htim->Instance->SMCR |= TIM_SMCR_ECE;
 8007b68:	687b      	ldr	r3, [r7, #4]
 8007b6a:	681b      	ldr	r3, [r3, #0]
 8007b6c:	689a      	ldr	r2, [r3, #8]
 8007b6e:	687b      	ldr	r3, [r7, #4]
 8007b70:	681b      	ldr	r3, [r3, #0]
 8007b72:	f442 4280 	orr.w	r2, r2, #16384	; 0x4000
 8007b76:	609a      	str	r2, [r3, #8]
      break;
 8007b78:	e03b      	b.n	8007bf2 <HAL_TIM_ConfigClockSource+0x16e>
      TIM_TI1_ConfigInputStage(htim->Instance,
 8007b7a:	687b      	ldr	r3, [r7, #4]
 8007b7c:	6818      	ldr	r0, [r3, #0]
 8007b7e:	683b      	ldr	r3, [r7, #0]
 8007b80:	6859      	ldr	r1, [r3, #4]
 8007b82:	683b      	ldr	r3, [r7, #0]
 8007b84:	68db      	ldr	r3, [r3, #12]
 8007b86:	461a      	mov	r2, r3
 8007b88:	f000 f8e4 	bl	8007d54 <TIM_TI1_ConfigInputStage>
      TIM_ITRx_SetConfig(htim->Instance, TIM_CLOCKSOURCE_TI1);
 8007b8c:	687b      	ldr	r3, [r7, #4]
 8007b8e:	681b      	ldr	r3, [r3, #0]
 8007b90:	2150      	movs	r1, #80	; 0x50
 8007b92:	4618      	mov	r0, r3
 8007b94:	f000 f93b 	bl	8007e0e <TIM_ITRx_SetConfig>
      break;
 8007b98:	e02b      	b.n	8007bf2 <HAL_TIM_ConfigClockSource+0x16e>
      TIM_TI2_ConfigInputStage(htim->Instance,
 8007b9a:	687b      	ldr	r3, [r7, #4]
 8007b9c:	6818      	ldr	r0, [r3, #0]
 8007b9e:	683b      	ldr	r3, [r7, #0]
 8007ba0:	6859      	ldr	r1, [r3, #4]
 8007ba2:	683b      	ldr	r3, [r7, #0]
 8007ba4:	68db      	ldr	r3, [r3, #12]
 8007ba6:	461a      	mov	r2, r3
 8007ba8:	f000 f902 	bl	8007db0 <TIM_TI2_ConfigInputStage>
      TIM_ITRx_SetConfig(htim->Instance, TIM_CLOCKSOURCE_TI2);
 8007bac:	687b      	ldr	r3, [r7, #4]
 8007bae:	681b      	ldr	r3, [r3, #0]
 8007bb0:	2160      	movs	r1, #96	; 0x60
 8007bb2:	4618      	mov	r0, r3
 8007bb4:	f000 f92b 	bl	8007e0e <TIM_ITRx_SetConfig>
      break;
 8007bb8:	e01b      	b.n	8007bf2 <HAL_TIM_ConfigClockSource+0x16e>
      TIM_TI1_ConfigInputStage(htim->Instance,
 8007bba:	687b      	ldr	r3, [r7, #4]
 8007bbc:	6818      	ldr	r0, [r3, #0]
 8007bbe:	683b      	ldr	r3, [r7, #0]
 8007bc0:	6859      	ldr	r1, [r3, #4]
 8007bc2:	683b      	ldr	r3, [r7, #0]
 8007bc4:	68db      	ldr	r3, [r3, #12]
 8007bc6:	461a      	mov	r2, r3
 8007bc8:	f000 f8c4 	bl	8007d54 <TIM_TI1_ConfigInputStage>
      TIM_ITRx_SetConfig(htim->Instance, TIM_CLOCKSOURCE_TI1ED);
 8007bcc:	687b      	ldr	r3, [r7, #4]
 8007bce:	681b      	ldr	r3, [r3, #0]
 8007bd0:	2140      	movs	r1, #64	; 0x40
 8007bd2:	4618      	mov	r0, r3
 8007bd4:	f000 f91b 	bl	8007e0e <TIM_ITRx_SetConfig>
      break;
 8007bd8:	e00b      	b.n	8007bf2 <HAL_TIM_ConfigClockSource+0x16e>
        TIM_ITRx_SetConfig(htim->Instance, sClockSourceConfig->ClockSource);
 8007bda:	687b      	ldr	r3, [r7, #4]
 8007bdc:	681a      	ldr	r2, [r3, #0]
 8007bde:	683b      	ldr	r3, [r7, #0]
 8007be0:	681b      	ldr	r3, [r3, #0]
 8007be2:	4619      	mov	r1, r3
 8007be4:	4610      	mov	r0, r2
 8007be6:	f000 f912 	bl	8007e0e <TIM_ITRx_SetConfig>
        break;
 8007bea:	e002      	b.n	8007bf2 <HAL_TIM_ConfigClockSource+0x16e>
      break;
 8007bec:	bf00      	nop
 8007bee:	e000      	b.n	8007bf2 <HAL_TIM_ConfigClockSource+0x16e>
      break;
 8007bf0:	bf00      	nop
  }
  htim->State = HAL_TIM_STATE_READY;
 8007bf2:	687b      	ldr	r3, [r7, #4]
 8007bf4:	2201      	movs	r2, #1
 8007bf6:	f883 203d 	strb.w	r2, [r3, #61]	; 0x3d

  __HAL_UNLOCK(htim);
 8007bfa:	687b      	ldr	r3, [r7, #4]
 8007bfc:	2200      	movs	r2, #0
 8007bfe:	f883 203c 	strb.w	r2, [r3, #60]	; 0x3c

  return HAL_OK;
 8007c02:	2300      	movs	r3, #0
}
 8007c04:	4618      	mov	r0, r3
 8007c06:	3710      	adds	r7, #16
 8007c08:	46bd      	mov	sp, r7
 8007c0a:	bd80      	pop	{r7, pc}

08007c0c <HAL_TIM_OC_DelayElapsedCallback>:
  * @brief  Output Compare callback in non-blocking mode
  * @param  htim TIM OC handle
  * @retval None
  */
__weak void HAL_TIM_OC_DelayElapsedCallback(TIM_HandleTypeDef *htim)
{
 8007c0c:	b480      	push	{r7}
 8007c0e:	b083      	sub	sp, #12
 8007c10:	af00      	add	r7, sp, #0
 8007c12:	6078      	str	r0, [r7, #4]
  UNUSED(htim);

  /* NOTE : This function should not be modified, when the callback is needed,
            the HAL_TIM_OC_DelayElapsedCallback could be implemented in the user file
   */
}
 8007c14:	bf00      	nop
 8007c16:	370c      	adds	r7, #12
 8007c18:	46bd      	mov	sp, r7
 8007c1a:	bc80      	pop	{r7}
 8007c1c:	4770      	bx	lr

08007c1e <HAL_TIM_IC_CaptureCallback>:
  * @brief  Input Capture callback in non-blocking mode
  * @param  htim TIM IC handle
  * @retval None
  */
__weak void HAL_TIM_IC_CaptureCallback(TIM_HandleTypeDef *htim)
{
 8007c1e:	b480      	push	{r7}
 8007c20:	b083      	sub	sp, #12
 8007c22:	af00      	add	r7, sp, #0
 8007c24:	6078      	str	r0, [r7, #4]
  UNUSED(htim);

  /* NOTE : This function should not be modified, when the callback is needed,
            the HAL_TIM_IC_CaptureCallback could be implemented in the user file
   */
}
 8007c26:	bf00      	nop
 8007c28:	370c      	adds	r7, #12
 8007c2a:	46bd      	mov	sp, r7
 8007c2c:	bc80      	pop	{r7}
 8007c2e:	4770      	bx	lr

08007c30 <HAL_TIM_PWM_PulseFinishedCallback>:
  * @brief  PWM Pulse finished callback in non-blocking mode
  * @param  htim TIM handle
  * @retval None
  */
__weak void HAL_TIM_PWM_PulseFinishedCallback(TIM_HandleTypeDef *htim)
{
 8007c30:	b480      	push	{r7}
 8007c32:	b083      	sub	sp, #12
 8007c34:	af00      	add	r7, sp, #0
 8007c36:	6078      	str	r0, [r7, #4]
  UNUSED(htim);

  /* NOTE : This function should not be modified, when the callback is needed,
            the HAL_TIM_PWM_PulseFinishedCallback could be implemented in the user file
   */
}
 8007c38:	bf00      	nop
 8007c3a:	370c      	adds	r7, #12
 8007c3c:	46bd      	mov	sp, r7
 8007c3e:	bc80      	pop	{r7}
 8007c40:	4770      	bx	lr

08007c42 <HAL_TIM_TriggerCallback>:
  * @brief  Hall Trigger detection callback in non-blocking mode
  * @param  htim TIM handle
  * @retval None
  */
__weak void HAL_TIM_TriggerCallback(TIM_HandleTypeDef *htim)
{
 8007c42:	b480      	push	{r7}
 8007c44:	b083      	sub	sp, #12
 8007c46:	af00      	add	r7, sp, #0
 8007c48:	6078      	str	r0, [r7, #4]
  UNUSED(htim);

  /* NOTE : This function should not be modified, when the callback is needed,
            the HAL_TIM_TriggerCallback could be implemented in the user file
   */
}
 8007c4a:	bf00      	nop
 8007c4c:	370c      	adds	r7, #12
 8007c4e:	46bd      	mov	sp, r7
 8007c50:	bc80      	pop	{r7}
 8007c52:	4770      	bx	lr

08007c54 <TIM_Base_SetConfig>:
  * @param  TIMx TIM peripheral
  * @param  Structure TIM Base configuration structure
  * @retval None
  */
void TIM_Base_SetConfig(TIM_TypeDef *TIMx, TIM_Base_InitTypeDef *Structure)
{
 8007c54:	b480      	push	{r7}
 8007c56:	b085      	sub	sp, #20
 8007c58:	af00      	add	r7, sp, #0
 8007c5a:	6078      	str	r0, [r7, #4]
 8007c5c:	6039      	str	r1, [r7, #0]
  uint32_t tmpcr1;
  tmpcr1 = TIMx->CR1;
 8007c5e:	687b      	ldr	r3, [r7, #4]
 8007c60:	681b      	ldr	r3, [r3, #0]
 8007c62:	60fb      	str	r3, [r7, #12]

  /* Set TIM Time Base Unit parameters ---------------------------------------*/
  if (IS_TIM_COUNTER_MODE_SELECT_INSTANCE(TIMx))
 8007c64:	687b      	ldr	r3, [r7, #4]
 8007c66:	4a35      	ldr	r2, [pc, #212]	; (8007d3c <TIM_Base_SetConfig+0xe8>)
 8007c68:	4293      	cmp	r3, r2
 8007c6a:	d00b      	beq.n	8007c84 <TIM_Base_SetConfig+0x30>
 8007c6c:	687b      	ldr	r3, [r7, #4]
 8007c6e:	f1b3 4f80 	cmp.w	r3, #1073741824	; 0x40000000
 8007c72:	d007      	beq.n	8007c84 <TIM_Base_SetConfig+0x30>
 8007c74:	687b      	ldr	r3, [r7, #4]
 8007c76:	4a32      	ldr	r2, [pc, #200]	; (8007d40 <TIM_Base_SetConfig+0xec>)
 8007c78:	4293      	cmp	r3, r2
 8007c7a:	d003      	beq.n	8007c84 <TIM_Base_SetConfig+0x30>
 8007c7c:	687b      	ldr	r3, [r7, #4]
 8007c7e:	4a31      	ldr	r2, [pc, #196]	; (8007d44 <TIM_Base_SetConfig+0xf0>)
 8007c80:	4293      	cmp	r3, r2
 8007c82:	d108      	bne.n	8007c96 <TIM_Base_SetConfig+0x42>
  {
    /* Select the Counter Mode */
    tmpcr1 &= ~(TIM_CR1_DIR | TIM_CR1_CMS);
 8007c84:	68fb      	ldr	r3, [r7, #12]
 8007c86:	f023 0370 	bic.w	r3, r3, #112	; 0x70
 8007c8a:	60fb      	str	r3, [r7, #12]
    tmpcr1 |= Structure->CounterMode;
 8007c8c:	683b      	ldr	r3, [r7, #0]
 8007c8e:	685b      	ldr	r3, [r3, #4]
 8007c90:	68fa      	ldr	r2, [r7, #12]
 8007c92:	4313      	orrs	r3, r2
 8007c94:	60fb      	str	r3, [r7, #12]
  }

  if (IS_TIM_CLOCK_DIVISION_INSTANCE(TIMx))
 8007c96:	687b      	ldr	r3, [r7, #4]
 8007c98:	4a28      	ldr	r2, [pc, #160]	; (8007d3c <TIM_Base_SetConfig+0xe8>)
 8007c9a:	4293      	cmp	r3, r2
 8007c9c:	d017      	beq.n	8007cce <TIM_Base_SetConfig+0x7a>
 8007c9e:	687b      	ldr	r3, [r7, #4]
 8007ca0:	f1b3 4f80 	cmp.w	r3, #1073741824	; 0x40000000
 8007ca4:	d013      	beq.n	8007cce <TIM_Base_SetConfig+0x7a>
 8007ca6:	687b      	ldr	r3, [r7, #4]
 8007ca8:	4a25      	ldr	r2, [pc, #148]	; (8007d40 <TIM_Base_SetConfig+0xec>)
 8007caa:	4293      	cmp	r3, r2
 8007cac:	d00f      	beq.n	8007cce <TIM_Base_SetConfig+0x7a>
 8007cae:	687b      	ldr	r3, [r7, #4]
 8007cb0:	4a24      	ldr	r2, [pc, #144]	; (8007d44 <TIM_Base_SetConfig+0xf0>)
 8007cb2:	4293      	cmp	r3, r2
 8007cb4:	d00b      	beq.n	8007cce <TIM_Base_SetConfig+0x7a>
 8007cb6:	687b      	ldr	r3, [r7, #4]
 8007cb8:	4a23      	ldr	r2, [pc, #140]	; (8007d48 <TIM_Base_SetConfig+0xf4>)
 8007cba:	4293      	cmp	r3, r2
 8007cbc:	d007      	beq.n	8007cce <TIM_Base_SetConfig+0x7a>
 8007cbe:	687b      	ldr	r3, [r7, #4]
 8007cc0:	4a22      	ldr	r2, [pc, #136]	; (8007d4c <TIM_Base_SetConfig+0xf8>)
 8007cc2:	4293      	cmp	r3, r2
 8007cc4:	d003      	beq.n	8007cce <TIM_Base_SetConfig+0x7a>
 8007cc6:	687b      	ldr	r3, [r7, #4]
 8007cc8:	4a21      	ldr	r2, [pc, #132]	; (8007d50 <TIM_Base_SetConfig+0xfc>)
 8007cca:	4293      	cmp	r3, r2
 8007ccc:	d108      	bne.n	8007ce0 <TIM_Base_SetConfig+0x8c>
  {
    /* Set the clock division */
    tmpcr1 &= ~TIM_CR1_CKD;
 8007cce:	68fb      	ldr	r3, [r7, #12]
 8007cd0:	f423 7340 	bic.w	r3, r3, #768	; 0x300
 8007cd4:	60fb      	str	r3, [r7, #12]
    tmpcr1 |= (uint32_t)Structure->ClockDivision;
 8007cd6:	683b      	ldr	r3, [r7, #0]
 8007cd8:	68db      	ldr	r3, [r3, #12]
 8007cda:	68fa      	ldr	r2, [r7, #12]
 8007cdc:	4313      	orrs	r3, r2
 8007cde:	60fb      	str	r3, [r7, #12]
  }

  /* Set the auto-reload preload */
  MODIFY_REG(tmpcr1, TIM_CR1_ARPE, Structure->AutoReloadPreload);
 8007ce0:	68fb      	ldr	r3, [r7, #12]
 8007ce2:	f023 0280 	bic.w	r2, r3, #128	; 0x80
 8007ce6:	683b      	ldr	r3, [r7, #0]
 8007ce8:	695b      	ldr	r3, [r3, #20]
 8007cea:	4313      	orrs	r3, r2
 8007cec:	60fb      	str	r3, [r7, #12]

  TIMx->CR1 = tmpcr1;
 8007cee:	687b      	ldr	r3, [r7, #4]
 8007cf0:	68fa      	ldr	r2, [r7, #12]
 8007cf2:	601a      	str	r2, [r3, #0]

  /* Set the Autoreload value */
  TIMx->ARR = (uint32_t)Structure->Period ;
 8007cf4:	683b      	ldr	r3, [r7, #0]
 8007cf6:	689a      	ldr	r2, [r3, #8]
 8007cf8:	687b      	ldr	r3, [r7, #4]
 8007cfa:	62da      	str	r2, [r3, #44]	; 0x2c

  /* Set the Prescaler value */
  TIMx->PSC = Structure->Prescaler;
 8007cfc:	683b      	ldr	r3, [r7, #0]
 8007cfe:	681a      	ldr	r2, [r3, #0]
 8007d00:	687b      	ldr	r3, [r7, #4]
 8007d02:	629a      	str	r2, [r3, #40]	; 0x28

  if (IS_TIM_REPETITION_COUNTER_INSTANCE(TIMx))
 8007d04:	687b      	ldr	r3, [r7, #4]
 8007d06:	4a0d      	ldr	r2, [pc, #52]	; (8007d3c <TIM_Base_SetConfig+0xe8>)
 8007d08:	4293      	cmp	r3, r2
 8007d0a:	d00b      	beq.n	8007d24 <TIM_Base_SetConfig+0xd0>
 8007d0c:	687b      	ldr	r3, [r7, #4]
 8007d0e:	4a0e      	ldr	r2, [pc, #56]	; (8007d48 <TIM_Base_SetConfig+0xf4>)
 8007d10:	4293      	cmp	r3, r2
 8007d12:	d007      	beq.n	8007d24 <TIM_Base_SetConfig+0xd0>
 8007d14:	687b      	ldr	r3, [r7, #4]
 8007d16:	4a0d      	ldr	r2, [pc, #52]	; (8007d4c <TIM_Base_SetConfig+0xf8>)
 8007d18:	4293      	cmp	r3, r2
 8007d1a:	d003      	beq.n	8007d24 <TIM_Base_SetConfig+0xd0>
 8007d1c:	687b      	ldr	r3, [r7, #4]
 8007d1e:	4a0c      	ldr	r2, [pc, #48]	; (8007d50 <TIM_Base_SetConfig+0xfc>)
 8007d20:	4293      	cmp	r3, r2
 8007d22:	d103      	bne.n	8007d2c <TIM_Base_SetConfig+0xd8>
  {
    /* Set the Repetition Counter value */
    TIMx->RCR = Structure->RepetitionCounter;
 8007d24:	683b      	ldr	r3, [r7, #0]
 8007d26:	691a      	ldr	r2, [r3, #16]
 8007d28:	687b      	ldr	r3, [r7, #4]
 8007d2a:	631a      	str	r2, [r3, #48]	; 0x30
  }

  /* Generate an update event to reload the Prescaler
     and the repetition counter (only for advanced timer) value immediately */
  TIMx->EGR = TIM_EGR_UG;
 8007d2c:	687b      	ldr	r3, [r7, #4]
 8007d2e:	2201      	movs	r2, #1
 8007d30:	615a      	str	r2, [r3, #20]
}
 8007d32:	bf00      	nop
 8007d34:	3714      	adds	r7, #20
 8007d36:	46bd      	mov	sp, r7
 8007d38:	bc80      	pop	{r7}
 8007d3a:	4770      	bx	lr
 8007d3c:	40012c00 	.word	0x40012c00
 8007d40:	40000400 	.word	0x40000400
 8007d44:	40000800 	.word	0x40000800
 8007d48:	40014000 	.word	0x40014000
 8007d4c:	40014400 	.word	0x40014400
 8007d50:	40014800 	.word	0x40014800

08007d54 <TIM_TI1_ConfigInputStage>:
  * @param  TIM_ICFilter Specifies the Input Capture Filter.
  *          This parameter must be a value between 0x00 and 0x0F.
  * @retval None
  */
static void TIM_TI1_ConfigInputStage(TIM_TypeDef *TIMx, uint32_t TIM_ICPolarity, uint32_t TIM_ICFilter)
{
 8007d54:	b480      	push	{r7}
 8007d56:	b087      	sub	sp, #28
 8007d58:	af00      	add	r7, sp, #0
 8007d5a:	60f8      	str	r0, [r7, #12]
 8007d5c:	60b9      	str	r1, [r7, #8]
 8007d5e:	607a      	str	r2, [r7, #4]
  uint32_t tmpccmr1;
  uint32_t tmpccer;

  /* Disable the Channel 1: Reset the CC1E Bit */
  tmpccer = TIMx->CCER;
 8007d60:	68fb      	ldr	r3, [r7, #12]
 8007d62:	6a1b      	ldr	r3, [r3, #32]
 8007d64:	617b      	str	r3, [r7, #20]
  TIMx->CCER &= ~TIM_CCER_CC1E;
 8007d66:	68fb      	ldr	r3, [r7, #12]
 8007d68:	6a1b      	ldr	r3, [r3, #32]
 8007d6a:	f023 0201 	bic.w	r2, r3, #1
 8007d6e:	68fb      	ldr	r3, [r7, #12]
 8007d70:	621a      	str	r2, [r3, #32]
  tmpccmr1 = TIMx->CCMR1;
 8007d72:	68fb      	ldr	r3, [r7, #12]
 8007d74:	699b      	ldr	r3, [r3, #24]
 8007d76:	613b      	str	r3, [r7, #16]

  /* Set the filter */
  tmpccmr1 &= ~TIM_CCMR1_IC1F;
 8007d78:	693b      	ldr	r3, [r7, #16]
 8007d7a:	f023 03f0 	bic.w	r3, r3, #240	; 0xf0
 8007d7e:	613b      	str	r3, [r7, #16]
  tmpccmr1 |= (TIM_ICFilter << 4U);
 8007d80:	687b      	ldr	r3, [r7, #4]
 8007d82:	011b      	lsls	r3, r3, #4
 8007d84:	693a      	ldr	r2, [r7, #16]
 8007d86:	4313      	orrs	r3, r2
 8007d88:	613b      	str	r3, [r7, #16]

  /* Select the Polarity and set the CC1E Bit */
  tmpccer &= ~(TIM_CCER_CC1P | TIM_CCER_CC1NP);
 8007d8a:	697b      	ldr	r3, [r7, #20]
 8007d8c:	f023 030a 	bic.w	r3, r3, #10
 8007d90:	617b      	str	r3, [r7, #20]
  tmpccer |= TIM_ICPolarity;
 8007d92:	697a      	ldr	r2, [r7, #20]
 8007d94:	68bb      	ldr	r3, [r7, #8]
 8007d96:	4313      	orrs	r3, r2
 8007d98:	617b      	str	r3, [r7, #20]

  /* Write to TIMx CCMR1 and CCER registers */
  TIMx->CCMR1 = tmpccmr1;
 8007d9a:	68fb      	ldr	r3, [r7, #12]
 8007d9c:	693a      	ldr	r2, [r7, #16]
 8007d9e:	619a      	str	r2, [r3, #24]
  TIMx->CCER = tmpccer;
 8007da0:	68fb      	ldr	r3, [r7, #12]
 8007da2:	697a      	ldr	r2, [r7, #20]
 8007da4:	621a      	str	r2, [r3, #32]
}
 8007da6:	bf00      	nop
 8007da8:	371c      	adds	r7, #28
 8007daa:	46bd      	mov	sp, r7
 8007dac:	bc80      	pop	{r7}
 8007dae:	4770      	bx	lr

08007db0 <TIM_TI2_ConfigInputStage>:
  * @param  TIM_ICFilter Specifies the Input Capture Filter.
  *          This parameter must be a value between 0x00 and 0x0F.
  * @retval None
  */
static void TIM_TI2_ConfigInputStage(TIM_TypeDef *TIMx, uint32_t TIM_ICPolarity, uint32_t TIM_ICFilter)
{
 8007db0:	b480      	push	{r7}
 8007db2:	b087      	sub	sp, #28
 8007db4:	af00      	add	r7, sp, #0
 8007db6:	60f8      	str	r0, [r7, #12]
 8007db8:	60b9      	str	r1, [r7, #8]
 8007dba:	607a      	str	r2, [r7, #4]
  uint32_t tmpccmr1;
  uint32_t tmpccer;

  /* Disable the Channel 2: Reset the CC2E Bit */
  TIMx->CCER &= ~TIM_CCER_CC2E;
 8007dbc:	68fb      	ldr	r3, [r7, #12]
 8007dbe:	6a1b      	ldr	r3, [r3, #32]
 8007dc0:	f023 0210 	bic.w	r2, r3, #16
 8007dc4:	68fb      	ldr	r3, [r7, #12]
 8007dc6:	621a      	str	r2, [r3, #32]
  tmpccmr1 = TIMx->CCMR1;
 8007dc8:	68fb      	ldr	r3, [r7, #12]
 8007dca:	699b      	ldr	r3, [r3, #24]
 8007dcc:	617b      	str	r3, [r7, #20]
  tmpccer = TIMx->CCER;
 8007dce:	68fb      	ldr	r3, [r7, #12]
 8007dd0:	6a1b      	ldr	r3, [r3, #32]
 8007dd2:	613b      	str	r3, [r7, #16]

  /* Set the filter */
  tmpccmr1 &= ~TIM_CCMR1_IC2F;
 8007dd4:	697b      	ldr	r3, [r7, #20]
 8007dd6:	f423 4370 	bic.w	r3, r3, #61440	; 0xf000
 8007dda:	617b      	str	r3, [r7, #20]
  tmpccmr1 |= (TIM_ICFilter << 12U);
 8007ddc:	687b      	ldr	r3, [r7, #4]
 8007dde:	031b      	lsls	r3, r3, #12
 8007de0:	697a      	ldr	r2, [r7, #20]
 8007de2:	4313      	orrs	r3, r2
 8007de4:	617b      	str	r3, [r7, #20]

  /* Select the Polarity and set the CC2E Bit */
  tmpccer &= ~(TIM_CCER_CC2P | TIM_CCER_CC2NP);
 8007de6:	693b      	ldr	r3, [r7, #16]
 8007de8:	f023 03a0 	bic.w	r3, r3, #160	; 0xa0
 8007dec:	613b      	str	r3, [r7, #16]
  tmpccer |= (TIM_ICPolarity << 4U);
 8007dee:	68bb      	ldr	r3, [r7, #8]
 8007df0:	011b      	lsls	r3, r3, #4
 8007df2:	693a      	ldr	r2, [r7, #16]
 8007df4:	4313      	orrs	r3, r2
 8007df6:	613b      	str	r3, [r7, #16]

  /* Write to TIMx CCMR1 and CCER registers */
  TIMx->CCMR1 = tmpccmr1 ;
 8007df8:	68fb      	ldr	r3, [r7, #12]
 8007dfa:	697a      	ldr	r2, [r7, #20]
 8007dfc:	619a      	str	r2, [r3, #24]
  TIMx->CCER = tmpccer;
 8007dfe:	68fb      	ldr	r3, [r7, #12]
 8007e00:	693a      	ldr	r2, [r7, #16]
 8007e02:	621a      	str	r2, [r3, #32]
}
 8007e04:	bf00      	nop
 8007e06:	371c      	adds	r7, #28
 8007e08:	46bd      	mov	sp, r7
 8007e0a:	bc80      	pop	{r7}
 8007e0c:	4770      	bx	lr

08007e0e <TIM_ITRx_SetConfig>:
  *            @arg TIM_TS_TI2FP2: Filtered Timer Input 2
  *            @arg TIM_TS_ETRF: External Trigger input
  * @retval None
  */
static void TIM_ITRx_SetConfig(TIM_TypeDef *TIMx, uint32_t InputTriggerSource)
{
 8007e0e:	b480      	push	{r7}
 8007e10:	b085      	sub	sp, #20
 8007e12:	af00      	add	r7, sp, #0
 8007e14:	6078      	str	r0, [r7, #4]
 8007e16:	6039      	str	r1, [r7, #0]
  uint32_t tmpsmcr;

  /* Get the TIMx SMCR register value */
  tmpsmcr = TIMx->SMCR;
 8007e18:	687b      	ldr	r3, [r7, #4]
 8007e1a:	689b      	ldr	r3, [r3, #8]
 8007e1c:	60fb      	str	r3, [r7, #12]
  /* Reset the TS Bits */
  tmpsmcr &= ~TIM_SMCR_TS;
 8007e1e:	68fb      	ldr	r3, [r7, #12]
 8007e20:	f023 0370 	bic.w	r3, r3, #112	; 0x70
 8007e24:	60fb      	str	r3, [r7, #12]
  /* Set the Input Trigger source and the slave mode*/
  tmpsmcr |= (InputTriggerSource | TIM_SLAVEMODE_EXTERNAL1);
 8007e26:	683a      	ldr	r2, [r7, #0]
 8007e28:	68fb      	ldr	r3, [r7, #12]
 8007e2a:	4313      	orrs	r3, r2
 8007e2c:	f043 0307 	orr.w	r3, r3, #7
 8007e30:	60fb      	str	r3, [r7, #12]
  /* Write to TIMx SMCR */
  TIMx->SMCR = tmpsmcr;
 8007e32:	687b      	ldr	r3, [r7, #4]
 8007e34:	68fa      	ldr	r2, [r7, #12]
 8007e36:	609a      	str	r2, [r3, #8]
}
 8007e38:	bf00      	nop
 8007e3a:	3714      	adds	r7, #20
 8007e3c:	46bd      	mov	sp, r7
 8007e3e:	bc80      	pop	{r7}
 8007e40:	4770      	bx	lr

08007e42 <TIM_ETR_SetConfig>:
  *          This parameter must be a value between 0x00 and 0x0F
  * @retval None
  */
void TIM_ETR_SetConfig(TIM_TypeDef *TIMx, uint32_t TIM_ExtTRGPrescaler,
                       uint32_t TIM_ExtTRGPolarity, uint32_t ExtTRGFilter)
{
 8007e42:	b480      	push	{r7}
 8007e44:	b087      	sub	sp, #28
 8007e46:	af00      	add	r7, sp, #0
 8007e48:	60f8      	str	r0, [r7, #12]
 8007e4a:	60b9      	str	r1, [r7, #8]
 8007e4c:	607a      	str	r2, [r7, #4]
 8007e4e:	603b      	str	r3, [r7, #0]
  uint32_t tmpsmcr;

  tmpsmcr = TIMx->SMCR;
 8007e50:	68fb      	ldr	r3, [r7, #12]
 8007e52:	689b      	ldr	r3, [r3, #8]
 8007e54:	617b      	str	r3, [r7, #20]

  /* Reset the ETR Bits */
  tmpsmcr &= ~(TIM_SMCR_ETF | TIM_SMCR_ETPS | TIM_SMCR_ECE | TIM_SMCR_ETP);
 8007e56:	697b      	ldr	r3, [r7, #20]
 8007e58:	f423 437f 	bic.w	r3, r3, #65280	; 0xff00
 8007e5c:	617b      	str	r3, [r7, #20]

  /* Set the Prescaler, the Filter value and the Polarity */
  tmpsmcr |= (uint32_t)(TIM_ExtTRGPrescaler | (TIM_ExtTRGPolarity | (ExtTRGFilter << 8U)));
 8007e5e:	683b      	ldr	r3, [r7, #0]
 8007e60:	021a      	lsls	r2, r3, #8
 8007e62:	687b      	ldr	r3, [r7, #4]
 8007e64:	431a      	orrs	r2, r3
 8007e66:	68bb      	ldr	r3, [r7, #8]
 8007e68:	4313      	orrs	r3, r2
 8007e6a:	697a      	ldr	r2, [r7, #20]
 8007e6c:	4313      	orrs	r3, r2
 8007e6e:	617b      	str	r3, [r7, #20]

  /* Write to TIMx SMCR */
  TIMx->SMCR = tmpsmcr;
 8007e70:	68fb      	ldr	r3, [r7, #12]
 8007e72:	697a      	ldr	r2, [r7, #20]
 8007e74:	609a      	str	r2, [r3, #8]
}
 8007e76:	bf00      	nop
 8007e78:	371c      	adds	r7, #28
 8007e7a:	46bd      	mov	sp, r7
 8007e7c:	bc80      	pop	{r7}
 8007e7e:	4770      	bx	lr

08007e80 <HAL_TIMEx_MasterConfigSynchronization>:
  *         mode.
  * @retval HAL status
  */
HAL_StatusTypeDef HAL_TIMEx_MasterConfigSynchronization(TIM_HandleTypeDef *htim,
                                                        TIM_MasterConfigTypeDef *sMasterConfig)
{
 8007e80:	b480      	push	{r7}
 8007e82:	b085      	sub	sp, #20
 8007e84:	af00      	add	r7, sp, #0
 8007e86:	6078      	str	r0, [r7, #4]
 8007e88:	6039      	str	r1, [r7, #0]
  assert_param(IS_TIM_MASTER_INSTANCE(htim->Instance));
  assert_param(IS_TIM_TRGO_SOURCE(sMasterConfig->MasterOutputTrigger));
  assert_param(IS_TIM_MSM_STATE(sMasterConfig->MasterSlaveMode));

  /* Check input state */
  __HAL_LOCK(htim);
 8007e8a:	687b      	ldr	r3, [r7, #4]
 8007e8c:	f893 303c 	ldrb.w	r3, [r3, #60]	; 0x3c
 8007e90:	2b01      	cmp	r3, #1
 8007e92:	d101      	bne.n	8007e98 <HAL_TIMEx_MasterConfigSynchronization+0x18>
 8007e94:	2302      	movs	r3, #2
 8007e96:	e04b      	b.n	8007f30 <HAL_TIMEx_MasterConfigSynchronization+0xb0>
 8007e98:	687b      	ldr	r3, [r7, #4]
 8007e9a:	2201      	movs	r2, #1
 8007e9c:	f883 203c 	strb.w	r2, [r3, #60]	; 0x3c

  /* Change the handler state */
  htim->State = HAL_TIM_STATE_BUSY;
 8007ea0:	687b      	ldr	r3, [r7, #4]
 8007ea2:	2202      	movs	r2, #2
 8007ea4:	f883 203d 	strb.w	r2, [r3, #61]	; 0x3d

  /* Get the TIMx CR2 register value */
  tmpcr2 = htim->Instance->CR2;
 8007ea8:	687b      	ldr	r3, [r7, #4]
 8007eaa:	681b      	ldr	r3, [r3, #0]
 8007eac:	685b      	ldr	r3, [r3, #4]
 8007eae:	60fb      	str	r3, [r7, #12]

  /* Get the TIMx SMCR register value */
  tmpsmcr = htim->Instance->SMCR;
 8007eb0:	687b      	ldr	r3, [r7, #4]
 8007eb2:	681b      	ldr	r3, [r3, #0]
 8007eb4:	689b      	ldr	r3, [r3, #8]
 8007eb6:	60bb      	str	r3, [r7, #8]

  /* Reset the MMS Bits */
  tmpcr2 &= ~TIM_CR2_MMS;
 8007eb8:	68fb      	ldr	r3, [r7, #12]
 8007eba:	f023 0370 	bic.w	r3, r3, #112	; 0x70
 8007ebe:	60fb      	str	r3, [r7, #12]
  /* Select the TRGO source */
  tmpcr2 |=  sMasterConfig->MasterOutputTrigger;
 8007ec0:	683b      	ldr	r3, [r7, #0]
 8007ec2:	681b      	ldr	r3, [r3, #0]
 8007ec4:	68fa      	ldr	r2, [r7, #12]
 8007ec6:	4313      	orrs	r3, r2
 8007ec8:	60fb      	str	r3, [r7, #12]

  /* Update TIMx CR2 */
  htim->Instance->CR2 = tmpcr2;
 8007eca:	687b      	ldr	r3, [r7, #4]
 8007ecc:	681b      	ldr	r3, [r3, #0]
 8007ece:	68fa      	ldr	r2, [r7, #12]
 8007ed0:	605a      	str	r2, [r3, #4]

  if (IS_TIM_SLAVE_INSTANCE(htim->Instance))
 8007ed2:	687b      	ldr	r3, [r7, #4]
 8007ed4:	681b      	ldr	r3, [r3, #0]
 8007ed6:	4a19      	ldr	r2, [pc, #100]	; (8007f3c <HAL_TIMEx_MasterConfigSynchronization+0xbc>)
 8007ed8:	4293      	cmp	r3, r2
 8007eda:	d013      	beq.n	8007f04 <HAL_TIMEx_MasterConfigSynchronization+0x84>
 8007edc:	687b      	ldr	r3, [r7, #4]
 8007ede:	681b      	ldr	r3, [r3, #0]
 8007ee0:	f1b3 4f80 	cmp.w	r3, #1073741824	; 0x40000000
 8007ee4:	d00e      	beq.n	8007f04 <HAL_TIMEx_MasterConfigSynchronization+0x84>
 8007ee6:	687b      	ldr	r3, [r7, #4]
 8007ee8:	681b      	ldr	r3, [r3, #0]
 8007eea:	4a15      	ldr	r2, [pc, #84]	; (8007f40 <HAL_TIMEx_MasterConfigSynchronization+0xc0>)
 8007eec:	4293      	cmp	r3, r2
 8007eee:	d009      	beq.n	8007f04 <HAL_TIMEx_MasterConfigSynchronization+0x84>
 8007ef0:	687b      	ldr	r3, [r7, #4]
 8007ef2:	681b      	ldr	r3, [r3, #0]
 8007ef4:	4a13      	ldr	r2, [pc, #76]	; (8007f44 <HAL_TIMEx_MasterConfigSynchronization+0xc4>)
 8007ef6:	4293      	cmp	r3, r2
 8007ef8:	d004      	beq.n	8007f04 <HAL_TIMEx_MasterConfigSynchronization+0x84>
 8007efa:	687b      	ldr	r3, [r7, #4]
 8007efc:	681b      	ldr	r3, [r3, #0]
 8007efe:	4a12      	ldr	r2, [pc, #72]	; (8007f48 <HAL_TIMEx_MasterConfigSynchronization+0xc8>)
 8007f00:	4293      	cmp	r3, r2
 8007f02:	d10c      	bne.n	8007f1e <HAL_TIMEx_MasterConfigSynchronization+0x9e>
  {
    /* Reset the MSM Bit */
    tmpsmcr &= ~TIM_SMCR_MSM;
 8007f04:	68bb      	ldr	r3, [r7, #8]
 8007f06:	f023 0380 	bic.w	r3, r3, #128	; 0x80
 8007f0a:	60bb      	str	r3, [r7, #8]
    /* Set master mode */
    tmpsmcr |= sMasterConfig->MasterSlaveMode;
 8007f0c:	683b      	ldr	r3, [r7, #0]
 8007f0e:	685b      	ldr	r3, [r3, #4]
 8007f10:	68ba      	ldr	r2, [r7, #8]
 8007f12:	4313      	orrs	r3, r2
 8007f14:	60bb      	str	r3, [r7, #8]

    /* Update TIMx SMCR */
    htim->Instance->SMCR = tmpsmcr;
 8007f16:	687b      	ldr	r3, [r7, #4]
 8007f18:	681b      	ldr	r3, [r3, #0]
 8007f1a:	68ba      	ldr	r2, [r7, #8]
 8007f1c:	609a      	str	r2, [r3, #8]
  }

  /* Change the htim state */
  htim->State = HAL_TIM_STATE_READY;
 8007f1e:	687b      	ldr	r3, [r7, #4]
 8007f20:	2201      	movs	r2, #1
 8007f22:	f883 203d 	strb.w	r2, [r3, #61]	; 0x3d

  __HAL_UNLOCK(htim);
 8007f26:	687b      	ldr	r3, [r7, #4]
 8007f28:	2200      	movs	r2, #0
 8007f2a:	f883 203c 	strb.w	r2, [r3, #60]	; 0x3c

  return HAL_OK;
 8007f2e:	2300      	movs	r3, #0
}
 8007f30:	4618      	mov	r0, r3
 8007f32:	3714      	adds	r7, #20
 8007f34:	46bd      	mov	sp, r7
 8007f36:	bc80      	pop	{r7}
 8007f38:	4770      	bx	lr
 8007f3a:	bf00      	nop
 8007f3c:	40012c00 	.word	0x40012c00
 8007f40:	40000400 	.word	0x40000400
 8007f44:	40000800 	.word	0x40000800
 8007f48:	40014000 	.word	0x40014000

08007f4c <HAL_TIMEx_CommutCallback>:
  * @brief  Hall commutation changed callback in non-blocking mode
  * @param  htim TIM handle
  * @retval None
  */
__weak void HAL_TIMEx_CommutCallback(TIM_HandleTypeDef *htim)
{
 8007f4c:	b480      	push	{r7}
 8007f4e:	b083      	sub	sp, #12
 8007f50:	af00      	add	r7, sp, #0
 8007f52:	6078      	str	r0, [r7, #4]
  UNUSED(htim);

  /* NOTE : This function should not be modified, when the callback is needed,
            the HAL_TIMEx_CommutCallback could be implemented in the user file
   */
}
 8007f54:	bf00      	nop
 8007f56:	370c      	adds	r7, #12
 8007f58:	46bd      	mov	sp, r7
 8007f5a:	bc80      	pop	{r7}
 8007f5c:	4770      	bx	lr

08007f5e <HAL_TIMEx_BreakCallback>:
  * @brief  Hall Break detection callback in non-blocking mode
  * @param  htim TIM handle
  * @retval None
  */
__weak void HAL_TIMEx_BreakCallback(TIM_HandleTypeDef *htim)
{
 8007f5e:	b480      	push	{r7}
 8007f60:	b083      	sub	sp, #12
 8007f62:	af00      	add	r7, sp, #0
 8007f64:	6078      	str	r0, [r7, #4]
  UNUSED(htim);

  /* NOTE : This function should not be modified, when the callback is needed,
            the HAL_TIMEx_BreakCallback could be implemented in the user file
   */
}
 8007f66:	bf00      	nop
 8007f68:	370c      	adds	r7, #12
 8007f6a:	46bd      	mov	sp, r7
 8007f6c:	bc80      	pop	{r7}
 8007f6e:	4770      	bx	lr

08007f70 <HAL_UART_Init>:
  * @param  huart  Pointer to a UART_HandleTypeDef structure that contains
  *                the configuration information for the specified UART module.
  * @retval HAL status
  */
HAL_StatusTypeDef HAL_UART_Init(UART_HandleTypeDef *huart)
{
 8007f70:	b580      	push	{r7, lr}
 8007f72:	b082      	sub	sp, #8
 8007f74:	af00      	add	r7, sp, #0
 8007f76:	6078      	str	r0, [r7, #4]
  /* Check the UART handle allocation */
  if (huart == NULL)
 8007f78:	687b      	ldr	r3, [r7, #4]
 8007f7a:	2b00      	cmp	r3, #0
 8007f7c:	d101      	bne.n	8007f82 <HAL_UART_Init+0x12>
  {
    return HAL_ERROR;
 8007f7e:	2301      	movs	r3, #1
 8007f80:	e03f      	b.n	8008002 <HAL_UART_Init+0x92>
  assert_param(IS_UART_WORD_LENGTH(huart->Init.WordLength));
#if defined(USART_CR1_OVER8)
  assert_param(IS_UART_OVERSAMPLING(huart->Init.OverSampling));
#endif /* USART_CR1_OVER8 */

  if (huart->gState == HAL_UART_STATE_RESET)
 8007f82:	687b      	ldr	r3, [r7, #4]
 8007f84:	f893 303d 	ldrb.w	r3, [r3, #61]	; 0x3d
 8007f88:	b2db      	uxtb	r3, r3
 8007f8a:	2b00      	cmp	r3, #0
 8007f8c:	d106      	bne.n	8007f9c <HAL_UART_Init+0x2c>
  {
    /* Allocate lock resource and initialize it */
    huart->Lock = HAL_UNLOCKED;
 8007f8e:	687b      	ldr	r3, [r7, #4]
 8007f90:	2200      	movs	r2, #0
 8007f92:	f883 203c 	strb.w	r2, [r3, #60]	; 0x3c

    /* Init the low level hardware */
    huart->MspInitCallback(huart);
#else
    /* Init the low level hardware : GPIO, CLOCK */
    HAL_UART_MspInit(huart);
 8007f96:	6878      	ldr	r0, [r7, #4]
 8007f98:	f7fc ffa2 	bl	8004ee0 <HAL_UART_MspInit>
#endif /* (USE_HAL_UART_REGISTER_CALLBACKS) */
  }

  huart->gState = HAL_UART_STATE_BUSY;
 8007f9c:	687b      	ldr	r3, [r7, #4]
 8007f9e:	2224      	movs	r2, #36	; 0x24
 8007fa0:	f883 203d 	strb.w	r2, [r3, #61]	; 0x3d

  /* Disable the peripheral */
  __HAL_UART_DISABLE(huart);
 8007fa4:	687b      	ldr	r3, [r7, #4]
 8007fa6:	681b      	ldr	r3, [r3, #0]
 8007fa8:	68da      	ldr	r2, [r3, #12]
 8007faa:	687b      	ldr	r3, [r7, #4]
 8007fac:	681b      	ldr	r3, [r3, #0]
 8007fae:	f422 5200 	bic.w	r2, r2, #8192	; 0x2000
 8007fb2:	60da      	str	r2, [r3, #12]

  /* Set the UART Communication parameters */
  UART_SetConfig(huart);
 8007fb4:	6878      	ldr	r0, [r7, #4]
 8007fb6:	f000 f9e1 	bl	800837c <UART_SetConfig>

  /* In asynchronous mode, the following bits must be kept cleared:
     - LINEN and CLKEN bits in the USART_CR2 register,
     - SCEN, HDSEL and IREN  bits in the USART_CR3 register.*/
  CLEAR_BIT(huart->Instance->CR2, (USART_CR2_LINEN | USART_CR2_CLKEN));
 8007fba:	687b      	ldr	r3, [r7, #4]
 8007fbc:	681b      	ldr	r3, [r3, #0]
 8007fbe:	691a      	ldr	r2, [r3, #16]
 8007fc0:	687b      	ldr	r3, [r7, #4]
 8007fc2:	681b      	ldr	r3, [r3, #0]
 8007fc4:	f422 4290 	bic.w	r2, r2, #18432	; 0x4800
 8007fc8:	611a      	str	r2, [r3, #16]
  CLEAR_BIT(huart->Instance->CR3, (USART_CR3_SCEN | USART_CR3_HDSEL | USART_CR3_IREN));
 8007fca:	687b      	ldr	r3, [r7, #4]
 8007fcc:	681b      	ldr	r3, [r3, #0]
 8007fce:	695a      	ldr	r2, [r3, #20]
 8007fd0:	687b      	ldr	r3, [r7, #4]
 8007fd2:	681b      	ldr	r3, [r3, #0]
 8007fd4:	f022 022a 	bic.w	r2, r2, #42	; 0x2a
 8007fd8:	615a      	str	r2, [r3, #20]

  /* Enable the peripheral */
  __HAL_UART_ENABLE(huart);
 8007fda:	687b      	ldr	r3, [r7, #4]
 8007fdc:	681b      	ldr	r3, [r3, #0]
 8007fde:	68da      	ldr	r2, [r3, #12]
 8007fe0:	687b      	ldr	r3, [r7, #4]
 8007fe2:	681b      	ldr	r3, [r3, #0]
 8007fe4:	f442 5200 	orr.w	r2, r2, #8192	; 0x2000
 8007fe8:	60da      	str	r2, [r3, #12]

  /* Initialize the UART state */
  huart->ErrorCode = HAL_UART_ERROR_NONE;
 8007fea:	687b      	ldr	r3, [r7, #4]
 8007fec:	2200      	movs	r2, #0
 8007fee:	641a      	str	r2, [r3, #64]	; 0x40
  huart->gState = HAL_UART_STATE_READY;
 8007ff0:	687b      	ldr	r3, [r7, #4]
 8007ff2:	2220      	movs	r2, #32
 8007ff4:	f883 203d 	strb.w	r2, [r3, #61]	; 0x3d
  huart->RxState = HAL_UART_STATE_READY;
 8007ff8:	687b      	ldr	r3, [r7, #4]
 8007ffa:	2220      	movs	r2, #32
 8007ffc:	f883 203e 	strb.w	r2, [r3, #62]	; 0x3e

  return HAL_OK;
 8008000:	2300      	movs	r3, #0
}
 8008002:	4618      	mov	r0, r3
 8008004:	3708      	adds	r7, #8
 8008006:	46bd      	mov	sp, r7
 8008008:	bd80      	pop	{r7, pc}

0800800a <HAL_UART_Transmit>:
  * @param  Size  Amount of data elements (u8 or u16) to be sent
  * @param  Timeout Timeout duration
  * @retval HAL status
  */
HAL_StatusTypeDef HAL_UART_Transmit(UART_HandleTypeDef *huart, uint8_t *pData, uint16_t Size, uint32_t Timeout)
{
 800800a:	b580      	push	{r7, lr}
 800800c:	b08a      	sub	sp, #40	; 0x28
 800800e:	af02      	add	r7, sp, #8
 8008010:	60f8      	str	r0, [r7, #12]
 8008012:	60b9      	str	r1, [r7, #8]
 8008014:	603b      	str	r3, [r7, #0]
 8008016:	4613      	mov	r3, r2
 8008018:	80fb      	strh	r3, [r7, #6]
  uint8_t  *pdata8bits;
  uint16_t *pdata16bits;
  uint32_t tickstart = 0U;
 800801a:	2300      	movs	r3, #0
 800801c:	617b      	str	r3, [r7, #20]

  /* Check that a Tx process is not already ongoing */
  if (huart->gState == HAL_UART_STATE_READY)
 800801e:	68fb      	ldr	r3, [r7, #12]
 8008020:	f893 303d 	ldrb.w	r3, [r3, #61]	; 0x3d
 8008024:	b2db      	uxtb	r3, r3
 8008026:	2b20      	cmp	r3, #32
 8008028:	d17c      	bne.n	8008124 <HAL_UART_Transmit+0x11a>
  {
    if ((pData == NULL) || (Size == 0U))
 800802a:	68bb      	ldr	r3, [r7, #8]
 800802c:	2b00      	cmp	r3, #0
 800802e:	d002      	beq.n	8008036 <HAL_UART_Transmit+0x2c>
 8008030:	88fb      	ldrh	r3, [r7, #6]
 8008032:	2b00      	cmp	r3, #0
 8008034:	d101      	bne.n	800803a <HAL_UART_Transmit+0x30>
    {
      return  HAL_ERROR;
 8008036:	2301      	movs	r3, #1
 8008038:	e075      	b.n	8008126 <HAL_UART_Transmit+0x11c>
    }

    /* Process Locked */
    __HAL_LOCK(huart);
 800803a:	68fb      	ldr	r3, [r7, #12]
 800803c:	f893 303c 	ldrb.w	r3, [r3, #60]	; 0x3c
 8008040:	2b01      	cmp	r3, #1
 8008042:	d101      	bne.n	8008048 <HAL_UART_Transmit+0x3e>
 8008044:	2302      	movs	r3, #2
 8008046:	e06e      	b.n	8008126 <HAL_UART_Transmit+0x11c>
 8008048:	68fb      	ldr	r3, [r7, #12]
 800804a:	2201      	movs	r2, #1
 800804c:	f883 203c 	strb.w	r2, [r3, #60]	; 0x3c

    huart->ErrorCode = HAL_UART_ERROR_NONE;
 8008050:	68fb      	ldr	r3, [r7, #12]
 8008052:	2200      	movs	r2, #0
 8008054:	641a      	str	r2, [r3, #64]	; 0x40
    huart->gState = HAL_UART_STATE_BUSY_TX;
 8008056:	68fb      	ldr	r3, [r7, #12]
 8008058:	2221      	movs	r2, #33	; 0x21
 800805a:	f883 203d 	strb.w	r2, [r3, #61]	; 0x3d

    /* Init tickstart for timeout management */
    tickstart = HAL_GetTick();
 800805e:	f7fd fa03 	bl	8005468 <HAL_GetTick>
 8008062:	6178      	str	r0, [r7, #20]

    huart->TxXferSize = Size;
 8008064:	68fb      	ldr	r3, [r7, #12]
 8008066:	88fa      	ldrh	r2, [r7, #6]
 8008068:	849a      	strh	r2, [r3, #36]	; 0x24
    huart->TxXferCount = Size;
 800806a:	68fb      	ldr	r3, [r7, #12]
 800806c:	88fa      	ldrh	r2, [r7, #6]
 800806e:	84da      	strh	r2, [r3, #38]	; 0x26

    /* In case of 9bits/No Parity transfer, pData needs to be handled as a uint16_t pointer */
    if ((huart->Init.WordLength == UART_WORDLENGTH_9B) && (huart->Init.Parity == UART_PARITY_NONE))
 8008070:	68fb      	ldr	r3, [r7, #12]
 8008072:	689b      	ldr	r3, [r3, #8]
 8008074:	f5b3 5f80 	cmp.w	r3, #4096	; 0x1000
 8008078:	d108      	bne.n	800808c <HAL_UART_Transmit+0x82>
 800807a:	68fb      	ldr	r3, [r7, #12]
 800807c:	691b      	ldr	r3, [r3, #16]
 800807e:	2b00      	cmp	r3, #0
 8008080:	d104      	bne.n	800808c <HAL_UART_Transmit+0x82>
    {
      pdata8bits  = NULL;
 8008082:	2300      	movs	r3, #0
 8008084:	61fb      	str	r3, [r7, #28]
      pdata16bits = (uint16_t *) pData;
 8008086:	68bb      	ldr	r3, [r7, #8]
 8008088:	61bb      	str	r3, [r7, #24]
 800808a:	e003      	b.n	8008094 <HAL_UART_Transmit+0x8a>
    }
    else
    {
      pdata8bits  = pData;
 800808c:	68bb      	ldr	r3, [r7, #8]
 800808e:	61fb      	str	r3, [r7, #28]
      pdata16bits = NULL;
 8008090:	2300      	movs	r3, #0
 8008092:	61bb      	str	r3, [r7, #24]
    }

    /* Process Unlocked */
    __HAL_UNLOCK(huart);
 8008094:	68fb      	ldr	r3, [r7, #12]
 8008096:	2200      	movs	r2, #0
 8008098:	f883 203c 	strb.w	r2, [r3, #60]	; 0x3c

    while (huart->TxXferCount > 0U)
 800809c:	e02a      	b.n	80080f4 <HAL_UART_Transmit+0xea>
    {
      if (UART_WaitOnFlagUntilTimeout(huart, UART_FLAG_TXE, RESET, tickstart, Timeout) != HAL_OK)
 800809e:	683b      	ldr	r3, [r7, #0]
 80080a0:	9300      	str	r3, [sp, #0]
 80080a2:	697b      	ldr	r3, [r7, #20]
 80080a4:	2200      	movs	r2, #0
 80080a6:	2180      	movs	r1, #128	; 0x80
 80080a8:	68f8      	ldr	r0, [r7, #12]
 80080aa:	f000 f91d 	bl	80082e8 <UART_WaitOnFlagUntilTimeout>
 80080ae:	4603      	mov	r3, r0
 80080b0:	2b00      	cmp	r3, #0
 80080b2:	d001      	beq.n	80080b8 <HAL_UART_Transmit+0xae>
      {
        return HAL_TIMEOUT;
 80080b4:	2303      	movs	r3, #3
 80080b6:	e036      	b.n	8008126 <HAL_UART_Transmit+0x11c>
      }
      if (pdata8bits == NULL)
 80080b8:	69fb      	ldr	r3, [r7, #28]
 80080ba:	2b00      	cmp	r3, #0
 80080bc:	d10b      	bne.n	80080d6 <HAL_UART_Transmit+0xcc>
      {
        huart->Instance->DR = (uint16_t)(*pdata16bits & 0x01FFU);
 80080be:	69bb      	ldr	r3, [r7, #24]
 80080c0:	881b      	ldrh	r3, [r3, #0]
 80080c2:	461a      	mov	r2, r3
 80080c4:	68fb      	ldr	r3, [r7, #12]
 80080c6:	681b      	ldr	r3, [r3, #0]
 80080c8:	f3c2 0208 	ubfx	r2, r2, #0, #9
 80080cc:	605a      	str	r2, [r3, #4]
        pdata16bits++;
 80080ce:	69bb      	ldr	r3, [r7, #24]
 80080d0:	3302      	adds	r3, #2
 80080d2:	61bb      	str	r3, [r7, #24]
 80080d4:	e007      	b.n	80080e6 <HAL_UART_Transmit+0xdc>
      }
      else
      {
        huart->Instance->DR = (uint8_t)(*pdata8bits & 0xFFU);
 80080d6:	69fb      	ldr	r3, [r7, #28]
 80080d8:	781a      	ldrb	r2, [r3, #0]
 80080da:	68fb      	ldr	r3, [r7, #12]
 80080dc:	681b      	ldr	r3, [r3, #0]
 80080de:	605a      	str	r2, [r3, #4]
        pdata8bits++;
 80080e0:	69fb      	ldr	r3, [r7, #28]
 80080e2:	3301      	adds	r3, #1
 80080e4:	61fb      	str	r3, [r7, #28]
      }
      huart->TxXferCount--;
 80080e6:	68fb      	ldr	r3, [r7, #12]
 80080e8:	8cdb      	ldrh	r3, [r3, #38]	; 0x26
 80080ea:	b29b      	uxth	r3, r3
 80080ec:	3b01      	subs	r3, #1
 80080ee:	b29a      	uxth	r2, r3
 80080f0:	68fb      	ldr	r3, [r7, #12]
 80080f2:	84da      	strh	r2, [r3, #38]	; 0x26
    while (huart->TxXferCount > 0U)
 80080f4:	68fb      	ldr	r3, [r7, #12]
 80080f6:	8cdb      	ldrh	r3, [r3, #38]	; 0x26
 80080f8:	b29b      	uxth	r3, r3
 80080fa:	2b00      	cmp	r3, #0
 80080fc:	d1cf      	bne.n	800809e <HAL_UART_Transmit+0x94>
    }

    if (UART_WaitOnFlagUntilTimeout(huart, UART_FLAG_TC, RESET, tickstart, Timeout) != HAL_OK)
 80080fe:	683b      	ldr	r3, [r7, #0]
 8008100:	9300      	str	r3, [sp, #0]
 8008102:	697b      	ldr	r3, [r7, #20]
 8008104:	2200      	movs	r2, #0
 8008106:	2140      	movs	r1, #64	; 0x40
 8008108:	68f8      	ldr	r0, [r7, #12]
 800810a:	f000 f8ed 	bl	80082e8 <UART_WaitOnFlagUntilTimeout>
 800810e:	4603      	mov	r3, r0
 8008110:	2b00      	cmp	r3, #0
 8008112:	d001      	beq.n	8008118 <HAL_UART_Transmit+0x10e>
    {
      return HAL_TIMEOUT;
 8008114:	2303      	movs	r3, #3
 8008116:	e006      	b.n	8008126 <HAL_UART_Transmit+0x11c>
    }

    /* At end of Tx process, restore huart->gState to Ready */
    huart->gState = HAL_UART_STATE_READY;
 8008118:	68fb      	ldr	r3, [r7, #12]
 800811a:	2220      	movs	r2, #32
 800811c:	f883 203d 	strb.w	r2, [r3, #61]	; 0x3d

    return HAL_OK;
 8008120:	2300      	movs	r3, #0
 8008122:	e000      	b.n	8008126 <HAL_UART_Transmit+0x11c>
  }
  else
  {
    return HAL_BUSY;
 8008124:	2302      	movs	r3, #2
  }
}
 8008126:	4618      	mov	r0, r3
 8008128:	3720      	adds	r7, #32
 800812a:	46bd      	mov	sp, r7
 800812c:	bd80      	pop	{r7, pc}

0800812e <HAL_UARTEx_ReceiveToIdle>:
  * @param RxLen   Number of data elements finally received (could be lower than Size, in case reception ends on IDLE event)
  * @param Timeout Timeout duration expressed in ms (covers the whole reception sequence).
  * @retval HAL status
  */
HAL_StatusTypeDef HAL_UARTEx_ReceiveToIdle(UART_HandleTypeDef *huart, uint8_t *pData, uint16_t Size, uint16_t *RxLen, uint32_t Timeout)
{
 800812e:	b580      	push	{r7, lr}
 8008130:	b088      	sub	sp, #32
 8008132:	af00      	add	r7, sp, #0
 8008134:	60f8      	str	r0, [r7, #12]
 8008136:	60b9      	str	r1, [r7, #8]
 8008138:	603b      	str	r3, [r7, #0]
 800813a:	4613      	mov	r3, r2
 800813c:	80fb      	strh	r3, [r7, #6]
  uint8_t  *pdata8bits;
  uint16_t *pdata16bits;
  uint32_t tickstart;

  /* Check that a Rx process is not already ongoing */
  if (huart->RxState == HAL_UART_STATE_READY)
 800813e:	68fb      	ldr	r3, [r7, #12]
 8008140:	f893 303e 	ldrb.w	r3, [r3, #62]	; 0x3e
 8008144:	b2db      	uxtb	r3, r3
 8008146:	2b20      	cmp	r3, #32
 8008148:	f040 80c9 	bne.w	80082de <HAL_UARTEx_ReceiveToIdle+0x1b0>
  {
    if ((pData == NULL) || (Size == 0U))
 800814c:	68bb      	ldr	r3, [r7, #8]
 800814e:	2b00      	cmp	r3, #0
 8008150:	d002      	beq.n	8008158 <HAL_UARTEx_ReceiveToIdle+0x2a>
 8008152:	88fb      	ldrh	r3, [r7, #6]
 8008154:	2b00      	cmp	r3, #0
 8008156:	d101      	bne.n	800815c <HAL_UARTEx_ReceiveToIdle+0x2e>
    {
      return  HAL_ERROR;
 8008158:	2301      	movs	r3, #1
 800815a:	e0c1      	b.n	80082e0 <HAL_UARTEx_ReceiveToIdle+0x1b2>
    }

    __HAL_LOCK(huart);
 800815c:	68fb      	ldr	r3, [r7, #12]
 800815e:	f893 303c 	ldrb.w	r3, [r3, #60]	; 0x3c
 8008162:	2b01      	cmp	r3, #1
 8008164:	d101      	bne.n	800816a <HAL_UARTEx_ReceiveToIdle+0x3c>
 8008166:	2302      	movs	r3, #2
 8008168:	e0ba      	b.n	80082e0 <HAL_UARTEx_ReceiveToIdle+0x1b2>
 800816a:	68fb      	ldr	r3, [r7, #12]
 800816c:	2201      	movs	r2, #1
 800816e:	f883 203c 	strb.w	r2, [r3, #60]	; 0x3c

    huart->ErrorCode = HAL_UART_ERROR_NONE;
 8008172:	68fb      	ldr	r3, [r7, #12]
 8008174:	2200      	movs	r2, #0
 8008176:	641a      	str	r2, [r3, #64]	; 0x40
    huart->RxState = HAL_UART_STATE_BUSY_RX;
 8008178:	68fb      	ldr	r3, [r7, #12]
 800817a:	2222      	movs	r2, #34	; 0x22
 800817c:	f883 203e 	strb.w	r2, [r3, #62]	; 0x3e
    huart->ReceptionType = HAL_UART_RECEPTION_TOIDLE;
 8008180:	68fb      	ldr	r3, [r7, #12]
 8008182:	2201      	movs	r2, #1
 8008184:	631a      	str	r2, [r3, #48]	; 0x30

    /* Init tickstart for timeout management */
    tickstart = HAL_GetTick();
 8008186:	f7fd f96f 	bl	8005468 <HAL_GetTick>
 800818a:	6178      	str	r0, [r7, #20]

    huart->RxXferSize  = Size;
 800818c:	68fb      	ldr	r3, [r7, #12]
 800818e:	88fa      	ldrh	r2, [r7, #6]
 8008190:	859a      	strh	r2, [r3, #44]	; 0x2c
    huart->RxXferCount = Size;
 8008192:	68fb      	ldr	r3, [r7, #12]
 8008194:	88fa      	ldrh	r2, [r7, #6]
 8008196:	85da      	strh	r2, [r3, #46]	; 0x2e

    /* In case of 9bits/No Parity transfer, pRxData needs to be handled as a uint16_t pointer */
    if ((huart->Init.WordLength == UART_WORDLENGTH_9B) && (huart->Init.Parity == UART_PARITY_NONE))
 8008198:	68fb      	ldr	r3, [r7, #12]
 800819a:	689b      	ldr	r3, [r3, #8]
 800819c:	f5b3 5f80 	cmp.w	r3, #4096	; 0x1000
 80081a0:	d108      	bne.n	80081b4 <HAL_UARTEx_ReceiveToIdle+0x86>
 80081a2:	68fb      	ldr	r3, [r7, #12]
 80081a4:	691b      	ldr	r3, [r3, #16]
 80081a6:	2b00      	cmp	r3, #0
 80081a8:	d104      	bne.n	80081b4 <HAL_UARTEx_ReceiveToIdle+0x86>
    {
      pdata8bits  = NULL;
 80081aa:	2300      	movs	r3, #0
 80081ac:	61fb      	str	r3, [r7, #28]
      pdata16bits = (uint16_t *) pData;
 80081ae:	68bb      	ldr	r3, [r7, #8]
 80081b0:	61bb      	str	r3, [r7, #24]
 80081b2:	e003      	b.n	80081bc <HAL_UARTEx_ReceiveToIdle+0x8e>
    }
    else
    {
      pdata8bits  = pData;
 80081b4:	68bb      	ldr	r3, [r7, #8]
 80081b6:	61fb      	str	r3, [r7, #28]
      pdata16bits = NULL;
 80081b8:	2300      	movs	r3, #0
 80081ba:	61bb      	str	r3, [r7, #24]
    }

    __HAL_UNLOCK(huart);
 80081bc:	68fb      	ldr	r3, [r7, #12]
 80081be:	2200      	movs	r2, #0
 80081c0:	f883 203c 	strb.w	r2, [r3, #60]	; 0x3c

    /* Initialize output number of received elements */
    *RxLen = 0U;
 80081c4:	683b      	ldr	r3, [r7, #0]
 80081c6:	2200      	movs	r2, #0
 80081c8:	801a      	strh	r2, [r3, #0]

    /* as long as data have to be received */
    while (huart->RxXferCount > 0U)
 80081ca:	e074      	b.n	80082b6 <HAL_UARTEx_ReceiveToIdle+0x188>
    {
      /* Check if IDLE flag is set */
      if (__HAL_UART_GET_FLAG(huart, UART_FLAG_IDLE))
 80081cc:	68fb      	ldr	r3, [r7, #12]
 80081ce:	681b      	ldr	r3, [r3, #0]
 80081d0:	681b      	ldr	r3, [r3, #0]
 80081d2:	f003 0310 	and.w	r3, r3, #16
 80081d6:	2b10      	cmp	r3, #16
 80081d8:	d114      	bne.n	8008204 <HAL_UARTEx_ReceiveToIdle+0xd6>
      {
        /* Clear IDLE flag in ISR */
        __HAL_UART_CLEAR_IDLEFLAG(huart);
 80081da:	2300      	movs	r3, #0
 80081dc:	613b      	str	r3, [r7, #16]
 80081de:	68fb      	ldr	r3, [r7, #12]
 80081e0:	681b      	ldr	r3, [r3, #0]
 80081e2:	681b      	ldr	r3, [r3, #0]
 80081e4:	613b      	str	r3, [r7, #16]
 80081e6:	68fb      	ldr	r3, [r7, #12]
 80081e8:	681b      	ldr	r3, [r3, #0]
 80081ea:	685b      	ldr	r3, [r3, #4]
 80081ec:	613b      	str	r3, [r7, #16]
 80081ee:	693b      	ldr	r3, [r7, #16]

        /* If Set, but no data ever received, clear flag without exiting loop */
        /* If Set, and data has already been received, this means Idle Event is valid : End reception */
        if (*RxLen > 0U)
 80081f0:	683b      	ldr	r3, [r7, #0]
 80081f2:	881b      	ldrh	r3, [r3, #0]
 80081f4:	2b00      	cmp	r3, #0
 80081f6:	d005      	beq.n	8008204 <HAL_UARTEx_ReceiveToIdle+0xd6>
        {
          huart->RxState = HAL_UART_STATE_READY;
 80081f8:	68fb      	ldr	r3, [r7, #12]
 80081fa:	2220      	movs	r2, #32
 80081fc:	f883 203e 	strb.w	r2, [r3, #62]	; 0x3e

          return HAL_OK;
 8008200:	2300      	movs	r3, #0
 8008202:	e06d      	b.n	80082e0 <HAL_UARTEx_ReceiveToIdle+0x1b2>
        }
      }

      /* Check if RXNE flag is set */
      if (__HAL_UART_GET_FLAG(huart, UART_FLAG_RXNE))
 8008204:	68fb      	ldr	r3, [r7, #12]
 8008206:	681b      	ldr	r3, [r3, #0]
 8008208:	681b      	ldr	r3, [r3, #0]
 800820a:	f003 0320 	and.w	r3, r3, #32
 800820e:	2b20      	cmp	r3, #32
 8008210:	d13c      	bne.n	800828c <HAL_UARTEx_ReceiveToIdle+0x15e>
      {
        if (pdata8bits == NULL)
 8008212:	69fb      	ldr	r3, [r7, #28]
 8008214:	2b00      	cmp	r3, #0
 8008216:	d10c      	bne.n	8008232 <HAL_UARTEx_ReceiveToIdle+0x104>
        {
          *pdata16bits = (uint16_t)(huart->Instance->DR & (uint16_t)0x01FF);
 8008218:	68fb      	ldr	r3, [r7, #12]
 800821a:	681b      	ldr	r3, [r3, #0]
 800821c:	685b      	ldr	r3, [r3, #4]
 800821e:	b29b      	uxth	r3, r3
 8008220:	f3c3 0308 	ubfx	r3, r3, #0, #9
 8008224:	b29a      	uxth	r2, r3
 8008226:	69bb      	ldr	r3, [r7, #24]
 8008228:	801a      	strh	r2, [r3, #0]
          pdata16bits++;
 800822a:	69bb      	ldr	r3, [r7, #24]
 800822c:	3302      	adds	r3, #2
 800822e:	61bb      	str	r3, [r7, #24]
 8008230:	e01f      	b.n	8008272 <HAL_UARTEx_ReceiveToIdle+0x144>
        }
        else
        {
           if ((huart->Init.WordLength == UART_WORDLENGTH_9B) || ((huart->Init.WordLength == UART_WORDLENGTH_8B) && (huart->Init.Parity == UART_PARITY_NONE)))
 8008232:	68fb      	ldr	r3, [r7, #12]
 8008234:	689b      	ldr	r3, [r3, #8]
 8008236:	f5b3 5f80 	cmp.w	r3, #4096	; 0x1000
 800823a:	d007      	beq.n	800824c <HAL_UARTEx_ReceiveToIdle+0x11e>
 800823c:	68fb      	ldr	r3, [r7, #12]
 800823e:	689b      	ldr	r3, [r3, #8]
 8008240:	2b00      	cmp	r3, #0
 8008242:	d10a      	bne.n	800825a <HAL_UARTEx_ReceiveToIdle+0x12c>
 8008244:	68fb      	ldr	r3, [r7, #12]
 8008246:	691b      	ldr	r3, [r3, #16]
 8008248:	2b00      	cmp	r3, #0
 800824a:	d106      	bne.n	800825a <HAL_UARTEx_ReceiveToIdle+0x12c>
           {
             *pdata8bits = (uint8_t)(huart->Instance->DR & (uint8_t)0x00FF);
 800824c:	68fb      	ldr	r3, [r7, #12]
 800824e:	681b      	ldr	r3, [r3, #0]
 8008250:	685b      	ldr	r3, [r3, #4]
 8008252:	b2da      	uxtb	r2, r3
 8008254:	69fb      	ldr	r3, [r7, #28]
 8008256:	701a      	strb	r2, [r3, #0]
 8008258:	e008      	b.n	800826c <HAL_UARTEx_ReceiveToIdle+0x13e>
           }
           else
           {
             *pdata8bits = (uint8_t)(huart->Instance->DR & (uint8_t)0x007F);
 800825a:	68fb      	ldr	r3, [r7, #12]
 800825c:	681b      	ldr	r3, [r3, #0]
 800825e:	685b      	ldr	r3, [r3, #4]
 8008260:	b2db      	uxtb	r3, r3
 8008262:	f003 037f 	and.w	r3, r3, #127	; 0x7f
 8008266:	b2da      	uxtb	r2, r3
 8008268:	69fb      	ldr	r3, [r7, #28]
 800826a:	701a      	strb	r2, [r3, #0]
           }

          pdata8bits++;
 800826c:	69fb      	ldr	r3, [r7, #28]
 800826e:	3301      	adds	r3, #1
 8008270:	61fb      	str	r3, [r7, #28]
        }
        /* Increment number of received elements */
        *RxLen += 1U;
 8008272:	683b      	ldr	r3, [r7, #0]
 8008274:	881b      	ldrh	r3, [r3, #0]
 8008276:	3301      	adds	r3, #1
 8008278:	b29a      	uxth	r2, r3
 800827a:	683b      	ldr	r3, [r7, #0]
 800827c:	801a      	strh	r2, [r3, #0]
        huart->RxXferCount--;
 800827e:	68fb      	ldr	r3, [r7, #12]
 8008280:	8ddb      	ldrh	r3, [r3, #46]	; 0x2e
 8008282:	b29b      	uxth	r3, r3
 8008284:	3b01      	subs	r3, #1
 8008286:	b29a      	uxth	r2, r3
 8008288:	68fb      	ldr	r3, [r7, #12]
 800828a:	85da      	strh	r2, [r3, #46]	; 0x2e
      }

      /* Check for the Timeout */
      if (Timeout != HAL_MAX_DELAY)
 800828c:	6abb      	ldr	r3, [r7, #40]	; 0x28
 800828e:	f1b3 3fff 	cmp.w	r3, #4294967295
 8008292:	d010      	beq.n	80082b6 <HAL_UARTEx_ReceiveToIdle+0x188>
      {
        if (((HAL_GetTick() - tickstart) > Timeout) || (Timeout == 0U))
 8008294:	f7fd f8e8 	bl	8005468 <HAL_GetTick>
 8008298:	4602      	mov	r2, r0
 800829a:	697b      	ldr	r3, [r7, #20]
 800829c:	1ad3      	subs	r3, r2, r3
 800829e:	6aba      	ldr	r2, [r7, #40]	; 0x28
 80082a0:	429a      	cmp	r2, r3
 80082a2:	d302      	bcc.n	80082aa <HAL_UARTEx_ReceiveToIdle+0x17c>
 80082a4:	6abb      	ldr	r3, [r7, #40]	; 0x28
 80082a6:	2b00      	cmp	r3, #0
 80082a8:	d105      	bne.n	80082b6 <HAL_UARTEx_ReceiveToIdle+0x188>
        {
          huart->RxState = HAL_UART_STATE_READY;
 80082aa:	68fb      	ldr	r3, [r7, #12]
 80082ac:	2220      	movs	r2, #32
 80082ae:	f883 203e 	strb.w	r2, [r3, #62]	; 0x3e

          return HAL_TIMEOUT;
 80082b2:	2303      	movs	r3, #3
 80082b4:	e014      	b.n	80082e0 <HAL_UARTEx_ReceiveToIdle+0x1b2>
    while (huart->RxXferCount > 0U)
 80082b6:	68fb      	ldr	r3, [r7, #12]
 80082b8:	8ddb      	ldrh	r3, [r3, #46]	; 0x2e
 80082ba:	b29b      	uxth	r3, r3
 80082bc:	2b00      	cmp	r3, #0
 80082be:	d185      	bne.n	80081cc <HAL_UARTEx_ReceiveToIdle+0x9e>
        }
      }
    }

    /* Set number of received elements in output parameter : RxLen */
    *RxLen = huart->RxXferSize - huart->RxXferCount;
 80082c0:	68fb      	ldr	r3, [r7, #12]
 80082c2:	8d9a      	ldrh	r2, [r3, #44]	; 0x2c
 80082c4:	68fb      	ldr	r3, [r7, #12]
 80082c6:	8ddb      	ldrh	r3, [r3, #46]	; 0x2e
 80082c8:	b29b      	uxth	r3, r3
 80082ca:	1ad3      	subs	r3, r2, r3
 80082cc:	b29a      	uxth	r2, r3
 80082ce:	683b      	ldr	r3, [r7, #0]
 80082d0:	801a      	strh	r2, [r3, #0]
    /* At end of Rx process, restore huart->RxState to Ready */
    huart->RxState = HAL_UART_STATE_READY;
 80082d2:	68fb      	ldr	r3, [r7, #12]
 80082d4:	2220      	movs	r2, #32
 80082d6:	f883 203e 	strb.w	r2, [r3, #62]	; 0x3e

    return HAL_OK;
 80082da:	2300      	movs	r3, #0
 80082dc:	e000      	b.n	80082e0 <HAL_UARTEx_ReceiveToIdle+0x1b2>
  }
  else
  {
    return HAL_BUSY;
 80082de:	2302      	movs	r3, #2
  }
}
 80082e0:	4618      	mov	r0, r3
 80082e2:	3720      	adds	r7, #32
 80082e4:	46bd      	mov	sp, r7
 80082e6:	bd80      	pop	{r7, pc}

080082e8 <UART_WaitOnFlagUntilTimeout>:
  * @param  Tickstart Tick start value
  * @param  Timeout Timeout duration
  * @retval HAL status
  */
static HAL_StatusTypeDef UART_WaitOnFlagUntilTimeout(UART_HandleTypeDef *huart, uint32_t Flag, FlagStatus Status, uint32_t Tickstart, uint32_t Timeout)
{
 80082e8:	b580      	push	{r7, lr}
 80082ea:	b084      	sub	sp, #16
 80082ec:	af00      	add	r7, sp, #0
 80082ee:	60f8      	str	r0, [r7, #12]
 80082f0:	60b9      	str	r1, [r7, #8]
 80082f2:	603b      	str	r3, [r7, #0]
 80082f4:	4613      	mov	r3, r2
 80082f6:	71fb      	strb	r3, [r7, #7]
  /* Wait until flag is set */
  while ((__HAL_UART_GET_FLAG(huart, Flag) ? SET : RESET) == Status)
 80082f8:	e02c      	b.n	8008354 <UART_WaitOnFlagUntilTimeout+0x6c>
  {
    /* Check for the Timeout */
    if (Timeout != HAL_MAX_DELAY)
 80082fa:	69bb      	ldr	r3, [r7, #24]
 80082fc:	f1b3 3fff 	cmp.w	r3, #4294967295
 8008300:	d028      	beq.n	8008354 <UART_WaitOnFlagUntilTimeout+0x6c>
    {
      if ((Timeout == 0U) || ((HAL_GetTick() - Tickstart) > Timeout))
 8008302:	69bb      	ldr	r3, [r7, #24]
 8008304:	2b00      	cmp	r3, #0
 8008306:	d007      	beq.n	8008318 <UART_WaitOnFlagUntilTimeout+0x30>
 8008308:	f7fd f8ae 	bl	8005468 <HAL_GetTick>
 800830c:	4602      	mov	r2, r0
 800830e:	683b      	ldr	r3, [r7, #0]
 8008310:	1ad3      	subs	r3, r2, r3
 8008312:	69ba      	ldr	r2, [r7, #24]
 8008314:	429a      	cmp	r2, r3
 8008316:	d21d      	bcs.n	8008354 <UART_WaitOnFlagUntilTimeout+0x6c>
      {
        /* Disable TXE, RXNE, PE and ERR (Frame error, noise error, overrun error) interrupts for the interrupt process */
        CLEAR_BIT(huart->Instance->CR1, (USART_CR1_RXNEIE | USART_CR1_PEIE | USART_CR1_TXEIE));
 8008318:	68fb      	ldr	r3, [r7, #12]
 800831a:	681b      	ldr	r3, [r3, #0]
 800831c:	68da      	ldr	r2, [r3, #12]
 800831e:	68fb      	ldr	r3, [r7, #12]
 8008320:	681b      	ldr	r3, [r3, #0]
 8008322:	f422 72d0 	bic.w	r2, r2, #416	; 0x1a0
 8008326:	60da      	str	r2, [r3, #12]
        CLEAR_BIT(huart->Instance->CR3, USART_CR3_EIE);
 8008328:	68fb      	ldr	r3, [r7, #12]
 800832a:	681b      	ldr	r3, [r3, #0]
 800832c:	695a      	ldr	r2, [r3, #20]
 800832e:	68fb      	ldr	r3, [r7, #12]
 8008330:	681b      	ldr	r3, [r3, #0]
 8008332:	f022 0201 	bic.w	r2, r2, #1
 8008336:	615a      	str	r2, [r3, #20]

        huart->gState  = HAL_UART_STATE_READY;
 8008338:	68fb      	ldr	r3, [r7, #12]
 800833a:	2220      	movs	r2, #32
 800833c:	f883 203d 	strb.w	r2, [r3, #61]	; 0x3d
        huart->RxState = HAL_UART_STATE_READY;
 8008340:	68fb      	ldr	r3, [r7, #12]
 8008342:	2220      	movs	r2, #32
 8008344:	f883 203e 	strb.w	r2, [r3, #62]	; 0x3e

        /* Process Unlocked */
        __HAL_UNLOCK(huart);
 8008348:	68fb      	ldr	r3, [r7, #12]
 800834a:	2200      	movs	r2, #0
 800834c:	f883 203c 	strb.w	r2, [r3, #60]	; 0x3c

        return HAL_TIMEOUT;
 8008350:	2303      	movs	r3, #3
 8008352:	e00f      	b.n	8008374 <UART_WaitOnFlagUntilTimeout+0x8c>
  while ((__HAL_UART_GET_FLAG(huart, Flag) ? SET : RESET) == Status)
 8008354:	68fb      	ldr	r3, [r7, #12]
 8008356:	681b      	ldr	r3, [r3, #0]
 8008358:	681a      	ldr	r2, [r3, #0]
 800835a:	68bb      	ldr	r3, [r7, #8]
 800835c:	4013      	ands	r3, r2
 800835e:	68ba      	ldr	r2, [r7, #8]
 8008360:	429a      	cmp	r2, r3
 8008362:	bf0c      	ite	eq
 8008364:	2301      	moveq	r3, #1
 8008366:	2300      	movne	r3, #0
 8008368:	b2db      	uxtb	r3, r3
 800836a:	461a      	mov	r2, r3
 800836c:	79fb      	ldrb	r3, [r7, #7]
 800836e:	429a      	cmp	r2, r3
 8008370:	d0c3      	beq.n	80082fa <UART_WaitOnFlagUntilTimeout+0x12>
      }
    }
  }
  return HAL_OK;
 8008372:	2300      	movs	r3, #0
}
 8008374:	4618      	mov	r0, r3
 8008376:	3710      	adds	r7, #16
 8008378:	46bd      	mov	sp, r7
 800837a:	bd80      	pop	{r7, pc}

0800837c <UART_SetConfig>:
  * @param  huart  Pointer to a UART_HandleTypeDef structure that contains
  *                the configuration information for the specified UART module.
  * @retval None
  */
static void UART_SetConfig(UART_HandleTypeDef *huart)
{
 800837c:	b580      	push	{r7, lr}
 800837e:	b084      	sub	sp, #16
 8008380:	af00      	add	r7, sp, #0
 8008382:	6078      	str	r0, [r7, #4]
  assert_param(IS_UART_MODE(huart->Init.Mode));

  /*-------------------------- USART CR2 Configuration -----------------------*/
  /* Configure the UART Stop Bits: Set STOP[13:12] bits
     according to huart->Init.StopBits value */
  MODIFY_REG(huart->Instance->CR2, USART_CR2_STOP, huart->Init.StopBits);
 8008384:	687b      	ldr	r3, [r7, #4]
 8008386:	681b      	ldr	r3, [r3, #0]
 8008388:	691b      	ldr	r3, [r3, #16]
 800838a:	f423 5140 	bic.w	r1, r3, #12288	; 0x3000
 800838e:	687b      	ldr	r3, [r7, #4]
 8008390:	68da      	ldr	r2, [r3, #12]
 8008392:	687b      	ldr	r3, [r7, #4]
 8008394:	681b      	ldr	r3, [r3, #0]
 8008396:	430a      	orrs	r2, r1
 8008398:	611a      	str	r2, [r3, #16]
     Set PCE and PS bits according to huart->Init.Parity value
     Set TE and RE bits according to huart->Init.Mode value
     Set OVER8 bit according to huart->Init.OverSampling value */

#if defined(USART_CR1_OVER8)
  tmpreg = (uint32_t)huart->Init.WordLength | huart->Init.Parity | huart->Init.Mode | huart->Init.OverSampling;
 800839a:	687b      	ldr	r3, [r7, #4]
 800839c:	689a      	ldr	r2, [r3, #8]
 800839e:	687b      	ldr	r3, [r7, #4]
 80083a0:	691b      	ldr	r3, [r3, #16]
 80083a2:	431a      	orrs	r2, r3
 80083a4:	687b      	ldr	r3, [r7, #4]
 80083a6:	695b      	ldr	r3, [r3, #20]
 80083a8:	431a      	orrs	r2, r3
 80083aa:	687b      	ldr	r3, [r7, #4]
 80083ac:	69db      	ldr	r3, [r3, #28]
 80083ae:	4313      	orrs	r3, r2
 80083b0:	60bb      	str	r3, [r7, #8]
  MODIFY_REG(huart->Instance->CR1,
 80083b2:	687b      	ldr	r3, [r7, #4]
 80083b4:	681b      	ldr	r3, [r3, #0]
 80083b6:	68db      	ldr	r3, [r3, #12]
 80083b8:	f423 4316 	bic.w	r3, r3, #38400	; 0x9600
 80083bc:	f023 030c 	bic.w	r3, r3, #12
 80083c0:	687a      	ldr	r2, [r7, #4]
 80083c2:	6812      	ldr	r2, [r2, #0]
 80083c4:	68b9      	ldr	r1, [r7, #8]
 80083c6:	430b      	orrs	r3, r1
 80083c8:	60d3      	str	r3, [r2, #12]
             tmpreg);
#endif /* USART_CR1_OVER8 */

  /*-------------------------- USART CR3 Configuration -----------------------*/
  /* Configure the UART HFC: Set CTSE and RTSE bits according to huart->Init.HwFlowCtl value */
  MODIFY_REG(huart->Instance->CR3, (USART_CR3_RTSE | USART_CR3_CTSE), huart->Init.HwFlowCtl);
 80083ca:	687b      	ldr	r3, [r7, #4]
 80083cc:	681b      	ldr	r3, [r3, #0]
 80083ce:	695b      	ldr	r3, [r3, #20]
 80083d0:	f423 7140 	bic.w	r1, r3, #768	; 0x300
 80083d4:	687b      	ldr	r3, [r7, #4]
 80083d6:	699a      	ldr	r2, [r3, #24]
 80083d8:	687b      	ldr	r3, [r7, #4]
 80083da:	681b      	ldr	r3, [r3, #0]
 80083dc:	430a      	orrs	r2, r1
 80083de:	615a      	str	r2, [r3, #20]


  if(huart->Instance == USART1)
 80083e0:	687b      	ldr	r3, [r7, #4]
 80083e2:	681b      	ldr	r3, [r3, #0]
 80083e4:	4a55      	ldr	r2, [pc, #340]	; (800853c <UART_SetConfig+0x1c0>)
 80083e6:	4293      	cmp	r3, r2
 80083e8:	d103      	bne.n	80083f2 <UART_SetConfig+0x76>
  {
    pclk = HAL_RCC_GetPCLK2Freq();
 80083ea:	f7fe fad9 	bl	80069a0 <HAL_RCC_GetPCLK2Freq>
 80083ee:	60f8      	str	r0, [r7, #12]
 80083f0:	e002      	b.n	80083f8 <UART_SetConfig+0x7c>
  }
  else
  {
    pclk = HAL_RCC_GetPCLK1Freq();
 80083f2:	f7fe fac1 	bl	8006978 <HAL_RCC_GetPCLK1Freq>
 80083f6:	60f8      	str	r0, [r7, #12]
  }

  /*-------------------------- USART BRR Configuration ---------------------*/
#if defined(USART_CR1_OVER8)
  if (huart->Init.OverSampling == UART_OVERSAMPLING_8)
 80083f8:	687b      	ldr	r3, [r7, #4]
 80083fa:	69db      	ldr	r3, [r3, #28]
 80083fc:	f5b3 4f00 	cmp.w	r3, #32768	; 0x8000
 8008400:	d14c      	bne.n	800849c <UART_SetConfig+0x120>
  {
    huart->Instance->BRR = UART_BRR_SAMPLING8(pclk, huart->Init.BaudRate);
 8008402:	68fa      	ldr	r2, [r7, #12]
 8008404:	4613      	mov	r3, r2
 8008406:	009b      	lsls	r3, r3, #2
 8008408:	4413      	add	r3, r2
 800840a:	009a      	lsls	r2, r3, #2
 800840c:	441a      	add	r2, r3
 800840e:	687b      	ldr	r3, [r7, #4]
 8008410:	685b      	ldr	r3, [r3, #4]
 8008412:	005b      	lsls	r3, r3, #1
 8008414:	fbb2 f3f3 	udiv	r3, r2, r3
 8008418:	4a49      	ldr	r2, [pc, #292]	; (8008540 <UART_SetConfig+0x1c4>)
 800841a:	fba2 2303 	umull	r2, r3, r2, r3
 800841e:	095b      	lsrs	r3, r3, #5
 8008420:	0119      	lsls	r1, r3, #4
 8008422:	68fa      	ldr	r2, [r7, #12]
 8008424:	4613      	mov	r3, r2
 8008426:	009b      	lsls	r3, r3, #2
 8008428:	4413      	add	r3, r2
 800842a:	009a      	lsls	r2, r3, #2
 800842c:	441a      	add	r2, r3
 800842e:	687b      	ldr	r3, [r7, #4]
 8008430:	685b      	ldr	r3, [r3, #4]
 8008432:	005b      	lsls	r3, r3, #1
 8008434:	fbb2 f2f3 	udiv	r2, r2, r3
 8008438:	4b41      	ldr	r3, [pc, #260]	; (8008540 <UART_SetConfig+0x1c4>)
 800843a:	fba3 0302 	umull	r0, r3, r3, r2
 800843e:	095b      	lsrs	r3, r3, #5
 8008440:	2064      	movs	r0, #100	; 0x64
 8008442:	fb00 f303 	mul.w	r3, r0, r3
 8008446:	1ad3      	subs	r3, r2, r3
 8008448:	00db      	lsls	r3, r3, #3
 800844a:	3332      	adds	r3, #50	; 0x32
 800844c:	4a3c      	ldr	r2, [pc, #240]	; (8008540 <UART_SetConfig+0x1c4>)
 800844e:	fba2 2303 	umull	r2, r3, r2, r3
 8008452:	095b      	lsrs	r3, r3, #5
 8008454:	005b      	lsls	r3, r3, #1
 8008456:	f403 73f8 	and.w	r3, r3, #496	; 0x1f0
 800845a:	4419      	add	r1, r3
 800845c:	68fa      	ldr	r2, [r7, #12]
 800845e:	4613      	mov	r3, r2
 8008460:	009b      	lsls	r3, r3, #2
 8008462:	4413      	add	r3, r2
 8008464:	009a      	lsls	r2, r3, #2
 8008466:	441a      	add	r2, r3
 8008468:	687b      	ldr	r3, [r7, #4]
 800846a:	685b      	ldr	r3, [r3, #4]
 800846c:	005b      	lsls	r3, r3, #1
 800846e:	fbb2 f2f3 	udiv	r2, r2, r3
 8008472:	4b33      	ldr	r3, [pc, #204]	; (8008540 <UART_SetConfig+0x1c4>)
 8008474:	fba3 0302 	umull	r0, r3, r3, r2
 8008478:	095b      	lsrs	r3, r3, #5
 800847a:	2064      	movs	r0, #100	; 0x64
 800847c:	fb00 f303 	mul.w	r3, r0, r3
 8008480:	1ad3      	subs	r3, r2, r3
 8008482:	00db      	lsls	r3, r3, #3
 8008484:	3332      	adds	r3, #50	; 0x32
 8008486:	4a2e      	ldr	r2, [pc, #184]	; (8008540 <UART_SetConfig+0x1c4>)
 8008488:	fba2 2303 	umull	r2, r3, r2, r3
 800848c:	095b      	lsrs	r3, r3, #5
 800848e:	f003 0207 	and.w	r2, r3, #7
 8008492:	687b      	ldr	r3, [r7, #4]
 8008494:	681b      	ldr	r3, [r3, #0]
 8008496:	440a      	add	r2, r1
 8008498:	609a      	str	r2, [r3, #8]
    huart->Instance->BRR = UART_BRR_SAMPLING16(pclk, huart->Init.BaudRate);
  }
#else
  huart->Instance->BRR = UART_BRR_SAMPLING16(pclk, huart->Init.BaudRate);
#endif /* USART_CR1_OVER8 */
}
 800849a:	e04a      	b.n	8008532 <UART_SetConfig+0x1b6>
    huart->Instance->BRR = UART_BRR_SAMPLING16(pclk, huart->Init.BaudRate);
 800849c:	68fa      	ldr	r2, [r7, #12]
 800849e:	4613      	mov	r3, r2
 80084a0:	009b      	lsls	r3, r3, #2
 80084a2:	4413      	add	r3, r2
 80084a4:	009a      	lsls	r2, r3, #2
 80084a6:	441a      	add	r2, r3
 80084a8:	687b      	ldr	r3, [r7, #4]
 80084aa:	685b      	ldr	r3, [r3, #4]
 80084ac:	009b      	lsls	r3, r3, #2
 80084ae:	fbb2 f3f3 	udiv	r3, r2, r3
 80084b2:	4a23      	ldr	r2, [pc, #140]	; (8008540 <UART_SetConfig+0x1c4>)
 80084b4:	fba2 2303 	umull	r2, r3, r2, r3
 80084b8:	095b      	lsrs	r3, r3, #5
 80084ba:	0119      	lsls	r1, r3, #4
 80084bc:	68fa      	ldr	r2, [r7, #12]
 80084be:	4613      	mov	r3, r2
 80084c0:	009b      	lsls	r3, r3, #2
 80084c2:	4413      	add	r3, r2
 80084c4:	009a      	lsls	r2, r3, #2
 80084c6:	441a      	add	r2, r3
 80084c8:	687b      	ldr	r3, [r7, #4]
 80084ca:	685b      	ldr	r3, [r3, #4]
 80084cc:	009b      	lsls	r3, r3, #2
 80084ce:	fbb2 f2f3 	udiv	r2, r2, r3
 80084d2:	4b1b      	ldr	r3, [pc, #108]	; (8008540 <UART_SetConfig+0x1c4>)
 80084d4:	fba3 0302 	umull	r0, r3, r3, r2
 80084d8:	095b      	lsrs	r3, r3, #5
 80084da:	2064      	movs	r0, #100	; 0x64
 80084dc:	fb00 f303 	mul.w	r3, r0, r3
 80084e0:	1ad3      	subs	r3, r2, r3
 80084e2:	011b      	lsls	r3, r3, #4
 80084e4:	3332      	adds	r3, #50	; 0x32
 80084e6:	4a16      	ldr	r2, [pc, #88]	; (8008540 <UART_SetConfig+0x1c4>)
 80084e8:	fba2 2303 	umull	r2, r3, r2, r3
 80084ec:	095b      	lsrs	r3, r3, #5
 80084ee:	f003 03f0 	and.w	r3, r3, #240	; 0xf0
 80084f2:	4419      	add	r1, r3
 80084f4:	68fa      	ldr	r2, [r7, #12]
 80084f6:	4613      	mov	r3, r2
 80084f8:	009b      	lsls	r3, r3, #2
 80084fa:	4413      	add	r3, r2
 80084fc:	009a      	lsls	r2, r3, #2
 80084fe:	441a      	add	r2, r3
 8008500:	687b      	ldr	r3, [r7, #4]
 8008502:	685b      	ldr	r3, [r3, #4]
 8008504:	009b      	lsls	r3, r3, #2
 8008506:	fbb2 f2f3 	udiv	r2, r2, r3
 800850a:	4b0d      	ldr	r3, [pc, #52]	; (8008540 <UART_SetConfig+0x1c4>)
 800850c:	fba3 0302 	umull	r0, r3, r3, r2
 8008510:	095b      	lsrs	r3, r3, #5
 8008512:	2064      	movs	r0, #100	; 0x64
 8008514:	fb00 f303 	mul.w	r3, r0, r3
 8008518:	1ad3      	subs	r3, r2, r3
 800851a:	011b      	lsls	r3, r3, #4
 800851c:	3332      	adds	r3, #50	; 0x32
 800851e:	4a08      	ldr	r2, [pc, #32]	; (8008540 <UART_SetConfig+0x1c4>)
 8008520:	fba2 2303 	umull	r2, r3, r2, r3
 8008524:	095b      	lsrs	r3, r3, #5
 8008526:	f003 020f 	and.w	r2, r3, #15
 800852a:	687b      	ldr	r3, [r7, #4]
 800852c:	681b      	ldr	r3, [r3, #0]
 800852e:	440a      	add	r2, r1
 8008530:	609a      	str	r2, [r3, #8]
}
 8008532:	bf00      	nop
 8008534:	3710      	adds	r7, #16
 8008536:	46bd      	mov	sp, r7
 8008538:	bd80      	pop	{r7, pc}
 800853a:	bf00      	nop
 800853c:	40013800 	.word	0x40013800
 8008540:	51eb851f 	.word	0x51eb851f

08008544 <__libc_init_array>:
 8008544:	b570      	push	{r4, r5, r6, lr}
 8008546:	2600      	movs	r6, #0
 8008548:	4d0c      	ldr	r5, [pc, #48]	; (800857c <__libc_init_array+0x38>)
 800854a:	4c0d      	ldr	r4, [pc, #52]	; (8008580 <__libc_init_array+0x3c>)
 800854c:	1b64      	subs	r4, r4, r5
 800854e:	10a4      	asrs	r4, r4, #2
 8008550:	42a6      	cmp	r6, r4
 8008552:	d109      	bne.n	8008568 <__libc_init_array+0x24>
 8008554:	f000 f88a 	bl	800866c <_init>
 8008558:	2600      	movs	r6, #0
 800855a:	4d0a      	ldr	r5, [pc, #40]	; (8008584 <__libc_init_array+0x40>)
 800855c:	4c0a      	ldr	r4, [pc, #40]	; (8008588 <__libc_init_array+0x44>)
 800855e:	1b64      	subs	r4, r4, r5
 8008560:	10a4      	asrs	r4, r4, #2
 8008562:	42a6      	cmp	r6, r4
 8008564:	d105      	bne.n	8008572 <__libc_init_array+0x2e>
 8008566:	bd70      	pop	{r4, r5, r6, pc}
 8008568:	f855 3b04 	ldr.w	r3, [r5], #4
 800856c:	4798      	blx	r3
 800856e:	3601      	adds	r6, #1
 8008570:	e7ee      	b.n	8008550 <__libc_init_array+0xc>
 8008572:	f855 3b04 	ldr.w	r3, [r5], #4
 8008576:	4798      	blx	r3
 8008578:	3601      	adds	r6, #1
 800857a:	e7f2      	b.n	8008562 <__libc_init_array+0x1e>
 800857c:	08008740 	.word	0x08008740
 8008580:	08008740 	.word	0x08008740
 8008584:	08008740 	.word	0x08008740
 8008588:	08008744 	.word	0x08008744

0800858c <memcpy>:
 800858c:	440a      	add	r2, r1
 800858e:	4291      	cmp	r1, r2
 8008590:	f100 33ff 	add.w	r3, r0, #4294967295
 8008594:	d100      	bne.n	8008598 <memcpy+0xc>
 8008596:	4770      	bx	lr
 8008598:	b510      	push	{r4, lr}
 800859a:	f811 4b01 	ldrb.w	r4, [r1], #1
 800859e:	4291      	cmp	r1, r2
 80085a0:	f803 4f01 	strb.w	r4, [r3, #1]!
 80085a4:	d1f9      	bne.n	800859a <memcpy+0xe>
 80085a6:	bd10      	pop	{r4, pc}

080085a8 <memset>:
 80085a8:	4603      	mov	r3, r0
 80085aa:	4402      	add	r2, r0
 80085ac:	4293      	cmp	r3, r2
 80085ae:	d100      	bne.n	80085b2 <memset+0xa>
 80085b0:	4770      	bx	lr
 80085b2:	f803 1b01 	strb.w	r1, [r3], #1
 80085b6:	e7f9      	b.n	80085ac <memset+0x4>

080085b8 <strncmp>:
 80085b8:	b510      	push	{r4, lr}
 80085ba:	b16a      	cbz	r2, 80085d8 <strncmp+0x20>
 80085bc:	3901      	subs	r1, #1
 80085be:	1884      	adds	r4, r0, r2
 80085c0:	f810 3b01 	ldrb.w	r3, [r0], #1
 80085c4:	f811 2f01 	ldrb.w	r2, [r1, #1]!
 80085c8:	4293      	cmp	r3, r2
 80085ca:	d103      	bne.n	80085d4 <strncmp+0x1c>
 80085cc:	42a0      	cmp	r0, r4
 80085ce:	d001      	beq.n	80085d4 <strncmp+0x1c>
 80085d0:	2b00      	cmp	r3, #0
 80085d2:	d1f5      	bne.n	80085c0 <strncmp+0x8>
 80085d4:	1a98      	subs	r0, r3, r2
 80085d6:	bd10      	pop	{r4, pc}
 80085d8:	4610      	mov	r0, r2
 80085da:	e7fc      	b.n	80085d6 <strncmp+0x1e>

080085dc <round>:
 80085dc:	b5f8      	push	{r3, r4, r5, r6, r7, lr}
 80085de:	f3c1 570a 	ubfx	r7, r1, #20, #11
 80085e2:	f2a7 34ff 	subw	r4, r7, #1023	; 0x3ff
 80085e6:	2c13      	cmp	r4, #19
 80085e8:	4602      	mov	r2, r0
 80085ea:	460b      	mov	r3, r1
 80085ec:	4606      	mov	r6, r0
 80085ee:	460d      	mov	r5, r1
 80085f0:	dc19      	bgt.n	8008626 <round+0x4a>
 80085f2:	2c00      	cmp	r4, #0
 80085f4:	da09      	bge.n	800860a <round+0x2e>
 80085f6:	3401      	adds	r4, #1
 80085f8:	f001 4300 	and.w	r3, r1, #2147483648	; 0x80000000
 80085fc:	d103      	bne.n	8008606 <round+0x2a>
 80085fe:	f043 537f 	orr.w	r3, r3, #1069547520	; 0x3fc00000
 8008602:	f443 1340 	orr.w	r3, r3, #3145728	; 0x300000
 8008606:	2200      	movs	r2, #0
 8008608:	e02a      	b.n	8008660 <round+0x84>
 800860a:	4917      	ldr	r1, [pc, #92]	; (8008668 <round+0x8c>)
 800860c:	4121      	asrs	r1, r4
 800860e:	ea03 0001 	and.w	r0, r3, r1
 8008612:	4302      	orrs	r2, r0
 8008614:	d010      	beq.n	8008638 <round+0x5c>
 8008616:	f44f 2200 	mov.w	r2, #524288	; 0x80000
 800861a:	fa42 f404 	asr.w	r4, r2, r4
 800861e:	4423      	add	r3, r4
 8008620:	ea23 0301 	bic.w	r3, r3, r1
 8008624:	e7ef      	b.n	8008606 <round+0x2a>
 8008626:	2c33      	cmp	r4, #51	; 0x33
 8008628:	dd09      	ble.n	800863e <round+0x62>
 800862a:	f5b4 6f80 	cmp.w	r4, #1024	; 0x400
 800862e:	d103      	bne.n	8008638 <round+0x5c>
 8008630:	f7f7 fdfc 	bl	800022c <__adddf3>
 8008634:	4606      	mov	r6, r0
 8008636:	460d      	mov	r5, r1
 8008638:	4630      	mov	r0, r6
 800863a:	4629      	mov	r1, r5
 800863c:	bdf8      	pop	{r3, r4, r5, r6, r7, pc}
 800863e:	f04f 30ff 	mov.w	r0, #4294967295
 8008642:	f2a7 4713 	subw	r7, r7, #1043	; 0x413
 8008646:	40f8      	lsrs	r0, r7
 8008648:	4202      	tst	r2, r0
 800864a:	d0f5      	beq.n	8008638 <round+0x5c>
 800864c:	2101      	movs	r1, #1
 800864e:	f1c4 0433 	rsb	r4, r4, #51	; 0x33
 8008652:	fa01 f404 	lsl.w	r4, r1, r4
 8008656:	1912      	adds	r2, r2, r4
 8008658:	bf28      	it	cs
 800865a:	185b      	addcs	r3, r3, r1
 800865c:	ea22 0200 	bic.w	r2, r2, r0
 8008660:	4619      	mov	r1, r3
 8008662:	4610      	mov	r0, r2
 8008664:	e7e6      	b.n	8008634 <round+0x58>
 8008666:	bf00      	nop
 8008668:	000fffff 	.word	0x000fffff

0800866c <_init>:
 800866c:	b5f8      	push	{r3, r4, r5, r6, r7, lr}
 800866e:	bf00      	nop
 8008670:	bcf8      	pop	{r3, r4, r5, r6, r7}
 8008672:	bc08      	pop	{r3}
 8008674:	469e      	mov	lr, r3
 8008676:	4770      	bx	lr

08008678 <_fini>:
 8008678:	b5f8      	push	{r3, r4, r5, r6, r7, lr}
 800867a:	bf00      	nop
 800867c:	bcf8      	pop	{r3, r4, r5, r6, r7}
 800867e:	bc08      	pop	{r3}
 8008680:	469e      	mov	lr, r3
 8008682:	4770      	bx	lr
